
video_app2.elf:     file format elf32-littlenios2
video_app2.elf
architecture: nios2:r1, flags 0x00000112:
EXEC_P, HAS_SYMS, D_PAGED
start address 0x00000238

Program Header:
    LOAD off    0x00001000 vaddr 0x00000000 paddr 0x00000000 align 2**12
         filesz 0x00000020 memsz 0x00000020 flags r-x
    LOAD off    0x00001020 vaddr 0x00000020 paddr 0x00000020 align 2**12
         filesz 0x0000969c memsz 0x0000969c flags r-x
    LOAD off    0x0000a6bc vaddr 0x000096bc paddr 0x000099ec align 2**12
         filesz 0x00000330 memsz 0x00000330 flags rw-
    LOAD off    0x0000ad1c vaddr 0x00009d1c paddr 0x00009d1c align 2**12
         filesz 0x00000000 memsz 0x00001144 flags rw-

Sections:
Idx Name          Size      VMA       LMA       File off  Algn
  0 .entry        00000020  00000000  00000000  00001000  2**5
                  CONTENTS, ALLOC, LOAD, READONLY, CODE
  1 .exceptions   00000218  00000020  00000020  00001020  2**2
                  CONTENTS, ALLOC, LOAD, READONLY, CODE
  2 .text         000089b0  00000238  00000238  00001238  2**2
                  CONTENTS, ALLOC, LOAD, READONLY, CODE
  3 .rodata       00000ad4  00008be8  00008be8  00009be8  2**2
                  CONTENTS, ALLOC, LOAD, READONLY, DATA
  4 .rwdata       00000330  000096bc  000099ec  0000a6bc  2**2
                  CONTENTS, ALLOC, LOAD, DATA, SMALL_DATA
  5 .bss          00001144  00009d1c  00009d1c  0000ad1c  2**5
                  ALLOC, SMALL_DATA
  6 .onchip_memory2_0 00000000  0000ae60  0000ae60  0000a9ec  2**0
                  CONTENTS
  7 .comment      0000002d  00000000  00000000  0000a9ec  2**0
                  CONTENTS, READONLY
  8 .debug_aranges 00000a18  00000000  00000000  0000aa20  2**3
                  CONTENTS, READONLY, DEBUGGING, OCTETS
  9 .debug_info   0000f762  00000000  00000000  0000b438  2**0
                  CONTENTS, READONLY, DEBUGGING, OCTETS
 10 .debug_abbrev 0000556e  00000000  00000000  0001ab9a  2**0
                  CONTENTS, READONLY, DEBUGGING, OCTETS
 11 .debug_line   00008d54  00000000  00000000  00020108  2**0
                  CONTENTS, READONLY, DEBUGGING, OCTETS
 12 .debug_frame  000017c0  00000000  00000000  00028e5c  2**2
                  CONTENTS, READONLY, DEBUGGING, OCTETS
 13 .debug_str    00003697  00000000  00000000  0002a61c  2**0
                  CONTENTS, READONLY, DEBUGGING, OCTETS
 14 .debug_loc    00008a1c  00000000  00000000  0002dcb3  2**0
                  CONTENTS, READONLY, DEBUGGING, OCTETS
 15 .debug_alt_sim_info 00000060  00000000  00000000  000366d0  2**2
                  CONTENTS, READONLY, DEBUGGING, OCTETS
 16 .debug_ranges 00001098  00000000  00000000  00036730  2**3
                  CONTENTS, READONLY, DEBUGGING, OCTETS
 17 .thread_model 00000003  00000000  00000000  0003a350  2**0
                  CONTENTS, READONLY
 18 .cpu          0000000c  00000000  00000000  0003a353  2**0
                  CONTENTS, READONLY
 19 .qsys         00000001  00000000  00000000  0003a35f  2**0
                  CONTENTS, READONLY
 20 .simulation_enabled 00000001  00000000  00000000  0003a360  2**0
                  CONTENTS, READONLY
 21 .stderr_dev   00000009  00000000  00000000  0003a361  2**0
                  CONTENTS, READONLY
 22 .stdin_dev    00000009  00000000  00000000  0003a36a  2**0
                  CONTENTS, READONLY
 23 .stdout_dev   00000009  00000000  00000000  0003a373  2**0
                  CONTENTS, READONLY
 24 .sopc_system_name 0000000a  00000000  00000000  0003a37c  2**0
                  CONTENTS, READONLY
 25 .sopcinfo     003201de  00000000  00000000  0003a386  2**0
                  CONTENTS, READONLY
SYMBOL TABLE:
00000000 l    d  .entry	00000000 .entry
00000020 l    d  .exceptions	00000000 .exceptions
00000238 l    d  .text	00000000 .text
00008be8 l    d  .rodata	00000000 .rodata
000096bc l    d  .rwdata	00000000 .rwdata
00009d1c l    d  .bss	00000000 .bss
0000ae60 l    d  .onchip_memory2_0	00000000 .onchip_memory2_0
00000000 l    d  .comment	00000000 .comment
00000000 l    d  .debug_aranges	00000000 .debug_aranges
00000000 l    d  .debug_info	00000000 .debug_info
00000000 l    d  .debug_abbrev	00000000 .debug_abbrev
00000000 l    d  .debug_line	00000000 .debug_line
00000000 l    d  .debug_frame	00000000 .debug_frame
00000000 l    d  .debug_str	00000000 .debug_str
00000000 l    d  .debug_loc	00000000 .debug_loc
00000000 l    d  .debug_alt_sim_info	00000000 .debug_alt_sim_info
00000000 l    d  .debug_ranges	00000000 .debug_ranges
00000000 l    df *ABS*	00000000 c:/Workspace/quartus/video_processing/nios_software/nios_ddr3_test_bsp//obj/HAL/src/crt0.o
00000280 l       .text	00000000 alt_after_alt_main
00000000 l    df *ABS*	00000000 alt_irq_handler.c
00000000 l    df *ABS*	00000000 alt_instruction_exception_entry.c
00000000 l    df *ABS*	00000000 burst_master_test.c
00009d60 l     O .bss	00001000 ocm_src_buffer
00000000 l    df *ABS*	00000000 common.c
00000000 l    df *ABS*	00000000 hdmi_config.c
00009d1c l     O .bss	00000004 i2c_dev
00000000 l    df *ABS*	00000000 hdmi_control.c
00009d20 l     O .bss	00000004 gamma_en.0
00000000 l    df *ABS*	00000000 main.c
00009d24 l     O .bss	00000004 gamma_en.0
00000000 l    df *ABS*	00000000 mem_verify.c
00000000 l    df *ABS*	00000000 wf_pow.c
00000000 l    df *ABS*	00000000 ef_pow.c
00000000 l    df *ABS*	00000000 ef_sqrt.c
00000000 l    df *ABS*	00000000 s_lib_ver.c
00000000 l    df *ABS*	00000000 sf_rint.c
000099b0 l     O .rwdata	00000008 TWO23
00000000 l    df *ABS*	00000000 sf_scalbn.c
00000000 l    df *ABS*	00000000 libgcc2.c
00000000 l    df *ABS*	00000000 libgcc2.c
00000000 l    df *ABS*	00000000 libgcc2.c
00000000 l    df *ABS*	00000000 lib2-divmod.c
00000000 l    df *ABS*	00000000 addsf3.c
00000000 l    df *ABS*	00000000 divsf3.c
00000000 l    df *ABS*	00000000 eqsf2.c
00000000 l    df *ABS*	00000000 gesf2.c
00000000 l    df *ABS*	00000000 lesf2.c
00000000 l    df *ABS*	00000000 mulsf3.c
00000000 l    df *ABS*	00000000 subsf3.c
00000000 l    df *ABS*	00000000 unordsf2.c
00000000 l    df *ABS*	00000000 fixsfsi.c
00000000 l    df *ABS*	00000000 floatsisf.c
00000000 l    df *ABS*	00000000 extendsfdf2.c
00000000 l    df *ABS*	00000000 libgcc2.c
00000000 l    df *ABS*	00000000 libgcc2.c
00000000 l    df *ABS*	00000000 errno.c
00000000 l    df *ABS*	00000000 impure.c
000096bc l     O .rwdata	000000e4 impure_data
00000000 l    df *ABS*	00000000 memcpy.c
00000000 l    df *ABS*	00000000 printf.c
00000000 l    df *ABS*	00000000 putchar.c
00000000 l    df *ABS*	00000000 puts.c
00000000 l    df *ABS*	00000000 strlen.c
00000000 l    df *ABS*	00000000 vfprintf.c
00004bf8 l     F .text	0000006c print_repeat
00000000 l    df *ABS*	00000000 fvwrite_small_dev.c
00000000 l    df *ABS*	00000000 putc.c
00000000 l    df *ABS*	00000000 writer.c
00000000 l    df *ABS*	00000000 int_errno.c
00000000 l    df *ABS*	00000000 alt_dcache_flush_all.c
00000000 l    df *ABS*	00000000 alt_load.c
00005350 l     F .text	00000068 alt_load_section
00000000 l    df *ABS*	00000000 alt_main.c
00000000 l    df *ABS*	00000000 alt_tick.c
00000000 l    df *ABS*	00000000 alt_usleep.c
00000000 l    df *ABS*	00000000 alt_write.c
00005694 l     F .text	00000048 alt_get_errno
00000000 l    df *ABS*	00000000 alt_sys_init.c
000057d4 l     F .text	00000038 alt_dev_reg
000097a0 l     O .rwdata	00000038 i2c_hdmi
000097d8 l     O .rwdata	0000002c jtag_uart
00000000 l    df *ABS*	00000000 altera_avalon_i2c.c
000058a0 l     F .text	00000110 optional_irq_callback
00005a00 l     F .text	000000a0 alt_avalon_i2c_irq
00000000 l    df *ABS*	00000000 altera_avalon_jtag_uart_fd.c
00000000 l    df *ABS*	00000000 altera_avalon_jtag_uart_read.c
00000000 l    df *ABS*	00000000 altera_avalon_jtag_uart_write.c
00000000 l    df *ABS*	00000000 altera_avalon_timer_sc.c
000076f4 l     F .text	0000007c alt_avalon_timer_sc_irq
00000000 l    df *ABS*	00000000 alt_busy_sleep.c
00000000 l    df *ABS*	00000000 alt_close.c
00007954 l     F .text	00000048 alt_get_errno
00000000 l    df *ABS*	00000000 alt_dev.c
00007a6c l     F .text	0000002c alt_dev_null_write
00000000 l    df *ABS*	00000000 alt_dev_llist_insert.c
00007a98 l     F .text	00000048 alt_get_errno
00000000 l    df *ABS*	00000000 alt_do_ctors.c
00000000 l    df *ABS*	00000000 alt_do_dtors.c
00000000 l    df *ABS*	00000000 alt_errno.c
00000000 l    df *ABS*	00000000 alt_find_dev.c
00000000 l    df *ABS*	00000000 alt_icache_flush_all.c
00000000 l    df *ABS*	00000000 alt_iic.c
00000000 l    df *ABS*	00000000 alt_iic_isr_register.c
00000000 l    df *ABS*	00000000 alt_io_redirect.c
00007fc4 l     F .text	000000b0 alt_open_fd
00000000 l    df *ABS*	00000000 alt_irq_vars.c
00000000 l    df *ABS*	00000000 alt_open.c
000080f0 l     F .text	00000048 alt_get_errno
00008138 l     F .text	000000bc alt_file_locked
00000000 l    df *ABS*	00000000 alt_printf.c
00000000 l    df *ABS*	00000000 alt_putchar.c
00000000 l    df *ABS*	00000000 alt_release_fd.c
00000000 l    df *ABS*	00000000 altera_nios2_gen2_irq.c
00000000 l    df *ABS*	00000000 alt_find_file.c
00000000 l    df *ABS*	00000000 alt_get_fd.c
00000000 l    df *ABS*	00000000 alt_icache_flush.c
00000000 l    df *ABS*	00000000 atexit.c
00000000 l    df *ABS*	00000000 exit.c
00000000 l    df *ABS*	00000000 memcmp.c
00000000 l    df *ABS*	00000000 __atexit.c
00000000 l    df *ABS*	00000000 __call_atexit.c
00000000 l    df *ABS*	00000000 alt_exit.c
00009d44 g     O .bss	00000004 alt_instruction_exception_handler
00004b34 g     F .text	00000018 putchar
0000543c g     F .text	0000007c alt_main
00004b4c g     F .text	00000080 _puts_r
0000ad60 g     O .bss	00000100 alt_irq
000099ec g       *ABS*	00000000 __flash_rwdata_start
00004ae4 g     F .text	00000048 printf
00000284 g     F .text	00000418 run_ocm_to_ddr_test
00006100 g     F .text	000000a8 alt_avalon_i2c_rx_read
0000392c g     F .text	000003f4 .hidden __divsf3
00007310 g     F .text	00000044 alt_avalon_i2c_enabled_ints_get
00005e80 g     F .text	00000094 alt_avalon_i2c_master_config_speed_get
00001b60 g     F .text	00000298 powf
00006b64 g     F .text	00000208 alt_avalon_i2c_master_transmit_using_interrupts
00004790 g     F .text	00000070 .hidden __fixsfsi
000015f0 g     F .text	000000e0 load_inverse_gamma_table
00008600 g     F .text	00000024 altera_nios2_gen2_irq_init
00004a74 g     F .text	0000000c __errno
00000000 g     F .entry	0000001c __reset
00000020 g       *ABS*	00000000 __flash_exceptions_start
00009d28 g     O .bss	00000004 errno
00009d30 g     O .bss	00000004 alt_argv
000119ac g       *ABS*	00000000 _gp
00005664 g     F .text	00000030 usleep
00007354 g     F .text	0000004c alt_avalon_i2c_rx_fifo_threshold_get
000042b0 g     F .text	00000494 .hidden __subsf3
00006010 g     F .text	00000044 alt_avalon_i2c_is_busy
0000982c g     O .rwdata	00000180 alt_fd_list
00004b2c g     F .text	00000008 _putchar_r
00005db4 g     F .text	000000cc alt_avalon_i2c_master_config_set
00007c50 g     F .text	00000090 alt_find_dev
00004a80 g     F .text	00000028 memcpy
00000f28 g     F .text	00000160 generate_color_bar_pattern
00008074 g     F .text	0000007c alt_io_redirect
00008be8 g       *ABS*	00000000 __DTOR_END__
000069a8 g     F .text	000001bc alt_avalon_i2c_master_transmit
00004bcc g     F .text	00000010 puts
0000886c g     F .text	00000098 alt_exception_cause_generated_bad_addr
00007574 g     F .text	000000ec altera_avalon_jtag_uart_read
00004aa8 g     F .text	0000003c _printf_r
00000000 g       *ABS*	00000000 __alt_mem_onchip_memory2_0
00003400 g     F .text	00000064 .hidden __udivsi3
00003e48 g     F .text	000000b4 .hidden __lesf2
000087dc g     F .text	00000090 alt_icache_flush
00005c20 g     F .text	00000098 alt_avalon_i2c_enable
0000723c g     F .text	0000006c alt_avalon_i2c_int_disable
000099e0 g     O .rwdata	00000004 alt_max_fd
0000069c g     F .text	000004f0 run_ddr_to_ddr_test
00006d6c g     F .text	0000020c alt_avalon_i2c_master_receive
00004924 g     F .text	000000fc .hidden __extendsfdf2
00003d20 g     F .text	00000070 .hidden __nesf2
000099ac g     O .rwdata	00000004 __fdlib_version
000072a8 g     F .text	00000068 alt_avalon_i2c_int_enable
000099b8 g     O .rwdata	00000004 _global_impure_ptr
0000ae60 g       *ABS*	00000000 __bss_end
00007edc g     F .text	000000e8 alt_iic_isr_register
00001830 g     F .text	0000020c run_interactive_menu
0000555c g     F .text	00000108 alt_tick
00002d7c g     F .text	00000590 .hidden __udivdi3
00007164 g     F .text	00000058 alt_avalon_i2c_int_status_get
00007e90 g     F .text	0000004c alt_ic_irq_enabled
000054b8 g     F .text	000000a4 alt_alarm_stop
00005aa0 g     F .text	00000054 alt_avalon_i2c_register_callback
00009d40 g     O .bss	00000004 alt_irq_active
00005af4 g     F .text	000000ec alt_avalon_i2c_init
000000fc g     F .exceptions	000000c8 alt_irq_handler
00009804 g     O .rwdata	00000028 alt_dev_null
00001484 g     F .text	0000016c load_srgb_gamma_table
00000c04 g     F .text	00000110 get_total_cycles
000012e0 g     F .text	00000138 load_gamma_table
00005304 g     F .text	0000004c alt_dcache_flush_all
000099ec g       *ABS*	00000000 __ram_rwdata_end
000099d8 g     O .rwdata	00000008 alt_dev_list
000056dc g     F .text	000000f8 write
00005260 g     F .text	00000054 _putc_r
0000643c g     F .text	0000004c alt_avalon_i2c_check_arblost
00003d90 g     F .text	000000b8 .hidden __gtsf2
00007200 g     F .text	0000003c alt_avalon_i2c_int_clear
000096bc g       *ABS*	00000000 __ram_rodata_end
000099c8 g     O .rwdata	00000008 alt_avalon_i2c_list
00003464 g     F .text	0000005c .hidden __umodsi3
0000ae60 g       *ABS*	00000000 end
00000bc4 g     F .text	00000040 get_char_async
000001c4 g     F .exceptions	00000074 alt_instruction_exception_entry
00005be0 g     F .text	00000040 alt_avalon_i2c_open
00008be8 g       *ABS*	00000000 __CTOR_LIST__
000186a0 g       *ABS*	00000000 __alt_stack_pointer
000065bc g     F .text	000000e8 alt_avalon_i2c_master_tx
00007770 g     F .text	0000008c alt_avalon_timer_sc_init
00004a20 g     F .text	00000054 .hidden __clzsi2
00007660 g     F .text	00000094 altera_avalon_jtag_uart_write
00004c64 g     F .text	000004ec ___vfprintf_internal_r
0000834c g     F .text	0000022c alt_printf
00001778 g     F .text	000000b8 print_menu
00008a84 g     F .text	0000012c __call_exitprocs
000011c0 g     F .text	00000120 change_rtl_pattern
000059b0 g     F .text	00000050 alt_avalon_i2c_register_optional_irq_handler
00000238 g     F .text	0000004c _start
00009d38 g     O .bss	00000004 _alt_tick_rate
00006f78 g     F .text	000001ec alt_avalon_i2c_master_receive_using_interrupts
000073a0 g     F .text	00000064 alt_avalon_i2c_rx_fifo_threshold_set
00009d3c g     O .bss	00000004 _alt_nticks
00005848 g     F .text	00000058 alt_sys_init
00004800 g     F .text	00000124 .hidden __floatsisf
00008968 g     F .text	0000011c __register_exitproc
000067e0 g     F .text	000001c8 alt_avalon_i2c_master_tx_rx
000096bc g       *ABS*	00000000 __ram_rwdata_start
00008be8 g       *ABS*	00000000 __ram_rodata_start
00003d20 g     F .text	00000070 .hidden __eqsf2
000074b4 g     F .text	00000060 altera_avalon_jtag_uart_read_fd
00008734 g     F .text	000000a8 alt_get_fd
000077fc g     F .text	00000158 alt_busy_sleep
00008938 g     F .text	00000030 memcmp
00006054 g     F .text	000000ac alt_avalon_i2c_rx_read_available
0000ae60 g       *ABS*	00000000 __alt_stack_base
00001df8 g     F .text	00000b00 __ieee754_powf
00008624 g     F .text	00000110 alt_find_file
00007ae0 g     F .text	000000a8 alt_dev_llist_insert
00006488 g     F .text	00000134 alt_avalon_i2c_interrupt_transaction_status
000063f0 g     F .text	0000004c alt_avalon_i2c_check_nack
00002b70 g     F .text	0000014c scalbnf
00005168 g     F .text	000000a8 __sfvwrite_small_dev
00009d1c g       *ABS*	00000000 __bss_start
000028f8 g     F .text	00000150 __ieee754_sqrtf
00001a3c g     F .text	00000124 main
000063bc g     F .text	00000034 alt_avalon_i2c_master_target_set
00009d34 g     O .bss	00000004 alt_envp
00007514 g     F .text	00000060 altera_avalon_jtag_uart_write_fd
000071bc g     F .text	00000044 alt_avalon_i2c_int_raw_status_get
00003e48 g     F .text	000000b4 .hidden __ltsf2
000099e4 g     O .rwdata	00000004 alt_errno
00005210 g     F .text	00000050 putc
0000330c g     F .text	00000080 .hidden __divsi3
00008be8 g       *ABS*	00000000 __CTOR_END__
00003efc g     F .text	000003b4 .hidden __mulsf3
00000b8c g     F .text	00000038 get_char_polled
00008be8 g       *ABS*	00000000 __flash_rodata_start
00008be8 g       *ABS*	00000000 __DTOR_LIST__
0000580c g     F .text	0000003c alt_irq_init
000085a8 g     F .text	00000058 alt_release_fd
0000955c g     O .rodata	00000100 .hidden __clz_tab
00008904 g     F .text	00000014 atexit
00003d90 g     F .text	000000b8 .hidden __gesf2
000052b4 g     F .text	00000050 _write_r
000099bc g     O .rwdata	00000004 _impure_ptr
00009d2c g     O .bss	00000004 alt_argc
00007bec g     F .text	00000064 _do_dtors
00006384 g     F .text	00000038 alt_avalon_i2c_master_target_get
00006294 g     F .text	000000f0 alt_avalon_i2c_send_address
000016d0 g     F .text	000000a8 load_char_bitmap
00000020 g       .exceptions	00000000 alt_irq_entry
000099d0 g     O .rwdata	00000008 alt_fs_list
00000d14 g     F .text	00000078 hdmi_i2c_write
00000020 g       *ABS*	00000000 __ram_exceptions_start
00000d8c g     F .text	0000019c hdmi_init
00007450 g     F .text	00000064 alt_avalon_i2c_tfr_cmd_fifo_threshold_set
00007d14 g     F .text	00000050 alt_ic_isr_register
00005cb8 g     F .text	0000004c alt_avalon_i2c_disable
000099ec g       *ABS*	00000000 _edata
0000ae60 g       *ABS*	00000000 _end
00004744 g     F .text	0000004c .hidden __unordsf2
00000238 g       *ABS*	00000000 __ram_exceptions_end
00005d04 g     F .text	000000b0 alt_avalon_i2c_master_config_get
00007df8 g     F .text	00000098 alt_ic_irq_disable
00008918 g     F .text	00000020 exit
0000338c g     F .text	00000074 .hidden __modsi3
000186a0 g       *ABS*	00000000 __alt_data_end
00000020 g     F .exceptions	00000000 alt_exception
00005f14 g     F .text	000000fc alt_avalon_i2c_master_config_speed_set
000061a8 g     F .text	000000ec alt_avalon_i2c_cmd_write
00002d1c g     F .text	00000060 .hidden __fixunssfsi
00001418 g     F .text	0000006c set_gamma_enable
00008bb0 g     F .text	00000038 _exit
00002cbc g     F .text	00000060 .hidden __muldi3
00004bdc g     F .text	0000001c strlen
00002a48 g     F .text	00000128 rintf
000081f4 g     F .text	00000158 open
00008578 g     F .text	00000030 alt_putchar
00007ce0 g     F .text	00000034 alt_icache_flush_all
000099e8 g     O .rwdata	00000004 alt_priority_mask
00007d64 g     F .text	00000094 alt_ic_irq_enable
00005150 g     F .text	00000018 __vfprintf_internal
000099c0 g     O .rwdata	00000008 alt_alarm_list
00007b88 g     F .text	00000064 _do_ctors
0000799c g     F .text	000000d0 close
000034c0 g     F .text	0000046c .hidden __addsf3
00007404 g     F .text	0000004c alt_avalon_i2c_tfr_cmd_fifo_threshold_get
000053b8 g     F .text	00000084 alt_load
000066a4 g     F .text	0000013c alt_avalon_i2c_master_rx
00001088 g     F .text	00000138 run_gamma_submenu



Disassembly of section .entry:

00000000 <__reset>:
   0:	00840014 	movui	r2,4096
   4:	1001483a 	initi	r2
   8:	10bff804 	addi	r2,r2,-32
   c:	00bffd16 	blt	zero,r2,4 <__reset+0x4>
  10:	00400034 	movhi	at,0
  14:	08408e14 	ori	at,at,568
  18:	0800683a 	jmp	at
  1c:	00000000 	call	0 <__reset>

Disassembly of section .exceptions:

00000020 <alt_exception>:
  20:	deffed04 	addi	sp,sp,-76
  24:	dfc00015 	stw	ra,0(sp)
  28:	d8400215 	stw	at,8(sp)
  2c:	d8800315 	stw	r2,12(sp)
  30:	d8c00415 	stw	r3,16(sp)
  34:	d9000515 	stw	r4,20(sp)
  38:	d9400615 	stw	r5,24(sp)
  3c:	d9800715 	stw	r6,28(sp)
  40:	d9c00815 	stw	r7,32(sp)
  44:	000b307a 	rdctl	r5,estatus
  48:	da000915 	stw	r8,36(sp)
  4c:	da400a15 	stw	r9,40(sp)
  50:	da800b15 	stw	r10,44(sp)
  54:	dac00c15 	stw	r11,48(sp)
  58:	db000d15 	stw	r12,52(sp)
  5c:	db400e15 	stw	r13,56(sp)
  60:	db800f15 	stw	r14,60(sp)
  64:	dbc01015 	stw	r15,64(sp)
  68:	d9401115 	stw	r5,68(sp)
  6c:	ebffff04 	addi	r15,ea,-4
  70:	dbc01215 	stw	r15,72(sp)
  74:	0009313a 	rdctl	r4,ipending
  78:	2880004c 	andi	r2,r5,1
  7c:	10000326 	beq	r2,zero,8c <alt_exception+0x6c>
  80:	20000226 	beq	r4,zero,8c <alt_exception+0x6c>
  84:	00000fc0 	call	fc <alt_irq_handler>
  88:	00000706 	br	a8 <alt_exception+0x88>
  8c:	df401215 	stw	ea,72(sp)
  90:	e8bfff17 	ldw	r2,-4(ea)
  94:	e93fff04 	addi	r4,ea,-4
  98:	00001c40 	call	1c4 <alt_instruction_exception_entry>
  9c:	1000021e 	bne	r2,zero,a8 <alt_exception+0x88>
  a0:	ebffff04 	addi	r15,ea,-4
  a4:	dbc01215 	stw	r15,72(sp)
  a8:	d9401117 	ldw	r5,68(sp)
  ac:	df401217 	ldw	ea,72(sp)
  b0:	dfc00017 	ldw	ra,0(sp)
  b4:	2801707a 	wrctl	estatus,r5
  b8:	d8400217 	ldw	at,8(sp)
  bc:	d8800317 	ldw	r2,12(sp)
  c0:	d8c00417 	ldw	r3,16(sp)
  c4:	d9000517 	ldw	r4,20(sp)
  c8:	d9400617 	ldw	r5,24(sp)
  cc:	d9800717 	ldw	r6,28(sp)
  d0:	d9c00817 	ldw	r7,32(sp)
  d4:	da000917 	ldw	r8,36(sp)
  d8:	da400a17 	ldw	r9,40(sp)
  dc:	da800b17 	ldw	r10,44(sp)
  e0:	dac00c17 	ldw	r11,48(sp)
  e4:	db000d17 	ldw	r12,52(sp)
  e8:	db400e17 	ldw	r13,56(sp)
  ec:	db800f17 	ldw	r14,60(sp)
  f0:	dbc01017 	ldw	r15,64(sp)
  f4:	dec01304 	addi	sp,sp,76
  f8:	ef80083a 	eret

000000fc <alt_irq_handler>:
  fc:	defff904 	addi	sp,sp,-28
 100:	dfc00615 	stw	ra,24(sp)
 104:	df000515 	stw	fp,20(sp)
 108:	df000504 	addi	fp,sp,20
 10c:	0001883a 	nop
 110:	0005313a 	rdctl	r2,ipending
 114:	e0bffc15 	stw	r2,-16(fp)
 118:	e0bffc17 	ldw	r2,-16(fp)
 11c:	e0bfff15 	stw	r2,-4(fp)
 120:	e03ffd15 	stw	zero,-12(fp)
 124:	00800044 	movi	r2,1
 128:	e0bffe15 	stw	r2,-8(fp)
 12c:	e0ffff17 	ldw	r3,-4(fp)
 130:	e0bffe17 	ldw	r2,-8(fp)
 134:	1884703a 	and	r2,r3,r2
 138:	10001126 	beq	r2,zero,180 <alt_irq_handler+0x84>
 13c:	e0bffd17 	ldw	r2,-12(fp)
 140:	100690fa 	slli	r3,r2,3
 144:	00800074 	movhi	r2,1
 148:	1885883a 	add	r2,r3,r2
 14c:	10eb5817 	ldw	r3,-21152(r2)
 150:	e0bffd17 	ldw	r2,-12(fp)
 154:	100890fa 	slli	r4,r2,3
 158:	00800074 	movhi	r2,1
 15c:	2085883a 	add	r2,r4,r2
 160:	10ab5917 	ldw	r2,-21148(r2)
 164:	1009883a 	mov	r4,r2
 168:	183ee83a 	callr	r3
 16c:	0001883a 	nop
 170:	0005313a 	rdctl	r2,ipending
 174:	e0bffb15 	stw	r2,-20(fp)
 178:	e0bffb17 	ldw	r2,-20(fp)
 17c:	00000706 	br	19c <alt_irq_handler+0xa0>
 180:	e0bffe17 	ldw	r2,-8(fp)
 184:	1085883a 	add	r2,r2,r2
 188:	e0bffe15 	stw	r2,-8(fp)
 18c:	e0bffd17 	ldw	r2,-12(fp)
 190:	10800044 	addi	r2,r2,1
 194:	e0bffd15 	stw	r2,-12(fp)
 198:	003fe406 	br	12c <alt_irq_handler+0x30>
 19c:	e0bfff15 	stw	r2,-4(fp)
 1a0:	e0bfff17 	ldw	r2,-4(fp)
 1a4:	103fde1e 	bne	r2,zero,120 <alt_irq_handler+0x24>
 1a8:	0001883a 	nop
 1ac:	0001883a 	nop
 1b0:	e037883a 	mov	sp,fp
 1b4:	dfc00117 	ldw	ra,4(sp)
 1b8:	df000017 	ldw	fp,0(sp)
 1bc:	dec00204 	addi	sp,sp,8
 1c0:	f800283a 	ret

000001c4 <alt_instruction_exception_entry>:
 1c4:	defffb04 	addi	sp,sp,-20
 1c8:	dfc00415 	stw	ra,16(sp)
 1cc:	df000315 	stw	fp,12(sp)
 1d0:	df000304 	addi	fp,sp,12
 1d4:	e13ffd15 	stw	r4,-12(fp)
 1d8:	000531fa 	rdctl	r2,exception
 1dc:	e0bfff15 	stw	r2,-4(fp)
 1e0:	e0bfff17 	ldw	r2,-4(fp)
 1e4:	1004d0ba 	srli	r2,r2,2
 1e8:	108007cc 	andi	r2,r2,31
 1ec:	e0bfff15 	stw	r2,-4(fp)
 1f0:	0005333a 	rdctl	r2,badaddr
 1f4:	e0bffe15 	stw	r2,-8(fp)
 1f8:	d0a0e617 	ldw	r2,-31848(gp)
 1fc:	10000726 	beq	r2,zero,21c <alt_instruction_exception_entry+0x58>
 200:	d0a0e617 	ldw	r2,-31848(gp)
 204:	e0ffff17 	ldw	r3,-4(fp)
 208:	e1bffe17 	ldw	r6,-8(fp)
 20c:	e17ffd17 	ldw	r5,-12(fp)
 210:	1809883a 	mov	r4,r3
 214:	103ee83a 	callr	r2
 218:	00000206 	br	224 <alt_instruction_exception_entry+0x60>
 21c:	003da03a 	break	0
 220:	0005883a 	mov	r2,zero
 224:	e037883a 	mov	sp,fp
 228:	dfc00117 	ldw	ra,4(sp)
 22c:	df000017 	ldw	fp,0(sp)
 230:	dec00204 	addi	sp,sp,8
 234:	f800283a 	ret

Disassembly of section .text:

00000238 <_start>:
     238:	00820014 	movui	r2,2048
     23c:	10000033 	initd	0(r2)
     240:	10bff804 	addi	r2,r2,-32
     244:	00bffd16 	blt	zero,r2,23c <_start+0x4>
     248:	06c00074 	movhi	sp,1
     24c:	dee1a814 	ori	sp,sp,34464
     250:	06800074 	movhi	gp,1
     254:	d6866b14 	ori	gp,gp,6572
     258:	00800034 	movhi	r2,0
     25c:	10a74714 	ori	r2,r2,40220
     260:	00c00034 	movhi	r3,0
     264:	18eb9814 	ori	r3,r3,44640
     268:	10c00326 	beq	r2,r3,278 <_start+0x40>
     26c:	10000015 	stw	zero,0(r2)
     270:	10800104 	addi	r2,r2,4
     274:	10fffd36 	bltu	r2,r3,26c <_start+0x34>
     278:	00053b80 	call	53b8 <alt_load>
     27c:	000543c0 	call	543c <alt_main>

00000280 <alt_after_alt_main>:
     280:	003fff06 	br	280 <alt_after_alt_main>

00000284 <run_ocm_to_ddr_test>:
     284:	deffe304 	addi	sp,sp,-116
     288:	dfc01c15 	stw	ra,112(sp)
     28c:	df001b15 	stw	fp,108(sp)
     290:	dcc01a15 	stw	r19,104(sp)
     294:	dc801915 	stw	r18,100(sp)
     298:	dc401815 	stw	r17,96(sp)
     29c:	dc001715 	stw	r16,92(sp)
     2a0:	df001b04 	addi	fp,sp,108
     2a4:	e13fe515 	stw	r4,-108(fp)
     2a8:	01000074 	movhi	r4,1
     2ac:	2122fa04 	addi	r4,r4,-29720
     2b0:	0004bcc0 	call	4bcc <puts>
     2b4:	00800074 	movhi	r2,1
     2b8:	10a75804 	addi	r2,r2,-25248
     2bc:	e0bff315 	stw	r2,-52(fp)
     2c0:	00a20034 	movhi	r2,34816
     2c4:	e0bff215 	stw	r2,-56(fp)
     2c8:	e0fff317 	ldw	r3,-52(fp)
     2cc:	00a00034 	movhi	r2,32768
     2d0:	10bfffc4 	addi	r2,r2,-1
     2d4:	1884703a 	and	r2,r3,r2
     2d8:	e0bff115 	stw	r2,-60(fp)
     2dc:	e03ffb15 	stw	zero,-20(fp)
     2e0:	00001106 	br	328 <run_ocm_to_ddr_test+0xa4>
     2e4:	e0fffb17 	ldw	r3,-20(fp)
     2e8:	00844474 	movhi	r2,4369
     2ec:	1889883a 	add	r4,r3,r2
     2f0:	e0bffb17 	ldw	r2,-20(fp)
     2f4:	100490ba 	slli	r2,r2,2
     2f8:	e0fff317 	ldw	r3,-52(fp)
     2fc:	1885883a 	add	r2,r3,r2
     300:	2007883a 	mov	r3,r4
     304:	10c00015 	stw	r3,0(r2)
     308:	e0bffb17 	ldw	r2,-20(fp)
     30c:	100490ba 	slli	r2,r2,2
     310:	e0fff217 	ldw	r3,-56(fp)
     314:	1885883a 	add	r2,r3,r2
     318:	10000015 	stw	zero,0(r2)
     31c:	e0bffb17 	ldw	r2,-20(fp)
     320:	10800044 	addi	r2,r2,1
     324:	e0bffb15 	stw	r2,-20(fp)
     328:	e0bffb17 	ldw	r2,-20(fp)
     32c:	10810010 	cmplti	r2,r2,1024
     330:	103fec1e 	bne	r2,zero,2e4 <run_ocm_to_ddr_test+0x60>
     334:	00053040 	call	5304 <alt_dcache_flush_all>
     338:	01000074 	movhi	r4,1
     33c:	21230704 	addi	r4,r4,-29668
     340:	0004ae40 	call	4ae4 <printf>
     344:	0000c040 	call	c04 <get_total_cycles>
     348:	e0bfef15 	stw	r2,-68(fp)
     34c:	e0fff015 	stw	r3,-64(fp)
     350:	e03ffa15 	stw	zero,-24(fp)
     354:	00001506 	br	3ac <run_ocm_to_ddr_test+0x128>
     358:	e03ff915 	stw	zero,-28(fp)
     35c:	00000d06 	br	394 <run_ocm_to_ddr_test+0x110>
     360:	e0bff917 	ldw	r2,-28(fp)
     364:	100490ba 	slli	r2,r2,2
     368:	e0fff317 	ldw	r3,-52(fp)
     36c:	1887883a 	add	r3,r3,r2
     370:	e0bff917 	ldw	r2,-28(fp)
     374:	100490ba 	slli	r2,r2,2
     378:	e13ff217 	ldw	r4,-56(fp)
     37c:	2085883a 	add	r2,r4,r2
     380:	18c00017 	ldw	r3,0(r3)
     384:	10c00015 	stw	r3,0(r2)
     388:	e0bff917 	ldw	r2,-28(fp)
     38c:	10800044 	addi	r2,r2,1
     390:	e0bff915 	stw	r2,-28(fp)
     394:	e0bff917 	ldw	r2,-28(fp)
     398:	10810010 	cmplti	r2,r2,1024
     39c:	103ff01e 	bne	r2,zero,360 <run_ocm_to_ddr_test+0xdc>
     3a0:	e0bffa17 	ldw	r2,-24(fp)
     3a4:	10800044 	addi	r2,r2,1
     3a8:	e0bffa15 	stw	r2,-24(fp)
     3ac:	e0bffa17 	ldw	r2,-24(fp)
     3b0:	10801910 	cmplti	r2,r2,100
     3b4:	103fe81e 	bne	r2,zero,358 <run_ocm_to_ddr_test+0xd4>
     3b8:	0000c040 	call	c04 <get_total_cycles>
     3bc:	e0bfed15 	stw	r2,-76(fp)
     3c0:	e0ffee15 	stw	r3,-72(fp)
     3c4:	e0ffed17 	ldw	r3,-76(fp)
     3c8:	e0bfef17 	ldw	r2,-68(fp)
     3cc:	1885c83a 	sub	r2,r3,r2
     3d0:	e0bff815 	stw	r2,-32(fp)
     3d4:	e0bff817 	ldw	r2,-32(fp)
     3d8:	1000021e 	bne	r2,zero,3e4 <run_ocm_to_ddr_test+0x160>
     3dc:	00800044 	movi	r2,1
     3e0:	e0bff815 	stw	r2,-32(fp)
     3e4:	e0bff817 	ldw	r2,-32(fp)
     3e8:	1025883a 	mov	r18,r2
     3ec:	0027883a 	mov	r19,zero
     3f0:	900d883a 	mov	r6,r18
     3f4:	980f883a 	mov	r7,r19
     3f8:	0102e934 	movhi	r4,2980
     3fc:	210edd04 	addi	r4,r4,15220
     400:	000b883a 	mov	r5,zero
     404:	0002d7c0 	call	2d7c <__udivdi3>
     408:	1009883a 	mov	r4,r2
     40c:	180b883a 	mov	r5,r3
     410:	2005883a 	mov	r2,r4
     414:	2807883a 	mov	r3,r5
     418:	e0bfec15 	stw	r2,-80(fp)
     41c:	e0bfec17 	ldw	r2,-80(fp)
     420:	01400284 	movi	r5,10
     424:	1009883a 	mov	r4,r2
     428:	00034000 	call	3400 <__udivsi3>
     42c:	1025883a 	mov	r18,r2
     430:	e0bfec17 	ldw	r2,-80(fp)
     434:	01400284 	movi	r5,10
     438:	1009883a 	mov	r4,r2
     43c:	00034640 	call	3464 <__umodsi3>
     440:	100f883a 	mov	r7,r2
     444:	900d883a 	mov	r6,r18
     448:	e17ff817 	ldw	r5,-32(fp)
     44c:	01000074 	movhi	r4,1
     450:	21231004 	addi	r4,r4,-29632
     454:	0004ae40 	call	4ae4 <printf>
     458:	00053040 	call	5304 <alt_dcache_flush_all>
     45c:	01000074 	movhi	r4,1
     460:	21231804 	addi	r4,r4,-29600
     464:	0004ae40 	call	4ae4 <printf>
     468:	0000c040 	call	c04 <get_total_cycles>
     46c:	e0bfea15 	stw	r2,-88(fp)
     470:	e0ffeb15 	stw	r3,-84(fp)
     474:	00880034 	movhi	r2,8192
     478:	e0bfe915 	stw	r2,-92(fp)
     47c:	e03ff715 	stw	zero,-36(fp)
     480:	00002a06 	br	52c <run_ocm_to_ddr_test+0x2a8>
     484:	e0bfe517 	ldw	r2,-108(fp)
     488:	10800204 	addi	r2,r2,8
     48c:	1007883a 	mov	r3,r2
     490:	e0bff117 	ldw	r2,-60(fp)
     494:	18800035 	stwio	r2,0(r3)
     498:	e0bfe517 	ldw	r2,-108(fp)
     49c:	10800304 	addi	r2,r2,12
     4a0:	1007883a 	mov	r3,r2
     4a4:	e0bfe917 	ldw	r2,-92(fp)
     4a8:	18800035 	stwio	r2,0(r3)
     4ac:	e0bfe517 	ldw	r2,-108(fp)
     4b0:	10800404 	addi	r2,r2,16
     4b4:	1007883a 	mov	r3,r2
     4b8:	00840004 	movi	r2,4096
     4bc:	18800035 	stwio	r2,0(r3)
     4c0:	e0bfe517 	ldw	r2,-108(fp)
     4c4:	10800504 	addi	r2,r2,20
     4c8:	1007883a 	mov	r3,r2
     4cc:	00800804 	movi	r2,32
     4d0:	18800035 	stwio	r2,0(r3)
     4d4:	e0bfe517 	ldw	r2,-108(fp)
     4d8:	10800604 	addi	r2,r2,24
     4dc:	1007883a 	mov	r3,r2
     4e0:	00800804 	movi	r2,32
     4e4:	18800035 	stwio	r2,0(r3)
     4e8:	e0bfe517 	ldw	r2,-108(fp)
     4ec:	00c00044 	movi	r3,1
     4f0:	10c00035 	stwio	r3,0(r2)
     4f4:	0001883a 	nop
     4f8:	e0bfe517 	ldw	r2,-108(fp)
     4fc:	10800104 	addi	r2,r2,4
     500:	10800037 	ldwio	r2,0(r2)
     504:	1080004c 	andi	r2,r2,1
     508:	103ffb26 	beq	r2,zero,4f8 <run_ocm_to_ddr_test+0x274>
     50c:	e0bfe517 	ldw	r2,-108(fp)
     510:	10800104 	addi	r2,r2,4
     514:	1007883a 	mov	r3,r2
     518:	00800044 	movi	r2,1
     51c:	18800035 	stwio	r2,0(r3)
     520:	e0bff717 	ldw	r2,-36(fp)
     524:	10800044 	addi	r2,r2,1
     528:	e0bff715 	stw	r2,-36(fp)
     52c:	e0bff717 	ldw	r2,-36(fp)
     530:	10801910 	cmplti	r2,r2,100
     534:	103fd31e 	bne	r2,zero,484 <run_ocm_to_ddr_test+0x200>
     538:	0000c040 	call	c04 <get_total_cycles>
     53c:	e0bfe715 	stw	r2,-100(fp)
     540:	e0ffe815 	stw	r3,-96(fp)
     544:	e0ffe717 	ldw	r3,-100(fp)
     548:	e0bfea17 	ldw	r2,-88(fp)
     54c:	1885c83a 	sub	r2,r3,r2
     550:	e0bff615 	stw	r2,-40(fp)
     554:	e0bff617 	ldw	r2,-40(fp)
     558:	1000021e 	bne	r2,zero,564 <run_ocm_to_ddr_test+0x2e0>
     55c:	00800044 	movi	r2,1
     560:	e0bff615 	stw	r2,-40(fp)
     564:	e0bff617 	ldw	r2,-40(fp)
     568:	1021883a 	mov	r16,r2
     56c:	0023883a 	mov	r17,zero
     570:	800d883a 	mov	r6,r16
     574:	880f883a 	mov	r7,r17
     578:	0102e934 	movhi	r4,2980
     57c:	210edd04 	addi	r4,r4,15220
     580:	000b883a 	mov	r5,zero
     584:	0002d7c0 	call	2d7c <__udivdi3>
     588:	1009883a 	mov	r4,r2
     58c:	180b883a 	mov	r5,r3
     590:	2005883a 	mov	r2,r4
     594:	2807883a 	mov	r3,r5
     598:	e0bfe615 	stw	r2,-104(fp)
     59c:	e0bfe617 	ldw	r2,-104(fp)
     5a0:	01400284 	movi	r5,10
     5a4:	1009883a 	mov	r4,r2
     5a8:	00034000 	call	3400 <__udivsi3>
     5ac:	1021883a 	mov	r16,r2
     5b0:	e0bfe617 	ldw	r2,-104(fp)
     5b4:	01400284 	movi	r5,10
     5b8:	1009883a 	mov	r4,r2
     5bc:	00034640 	call	3464 <__umodsi3>
     5c0:	100f883a 	mov	r7,r2
     5c4:	800d883a 	mov	r6,r16
     5c8:	e17ff617 	ldw	r5,-40(fp)
     5cc:	01000074 	movhi	r4,1
     5d0:	21231004 	addi	r4,r4,-29632
     5d4:	0004ae40 	call	4ae4 <printf>
     5d8:	e17ff617 	ldw	r5,-40(fp)
     5dc:	e13ff817 	ldw	r4,-32(fp)
     5e0:	00034000 	call	3400 <__udivsi3>
     5e4:	100b883a 	mov	r5,r2
     5e8:	01000074 	movhi	r4,1
     5ec:	21232004 	addi	r4,r4,-29568
     5f0:	0004ae40 	call	4ae4 <printf>
     5f4:	00053040 	call	5304 <alt_dcache_flush_all>
     5f8:	e03ff515 	stw	zero,-44(fp)
     5fc:	e03ff415 	stw	zero,-48(fp)
     600:	00000f06 	br	640 <run_ocm_to_ddr_test+0x3bc>
     604:	e0bff417 	ldw	r2,-48(fp)
     608:	100490ba 	slli	r2,r2,2
     60c:	e0fff217 	ldw	r3,-56(fp)
     610:	1885883a 	add	r2,r3,r2
     614:	10800017 	ldw	r2,0(r2)
     618:	e13ff417 	ldw	r4,-48(fp)
     61c:	00c44474 	movhi	r3,4369
     620:	20c7883a 	add	r3,r4,r3
     624:	10c00326 	beq	r2,r3,634 <run_ocm_to_ddr_test+0x3b0>
     628:	e0bff517 	ldw	r2,-44(fp)
     62c:	10800044 	addi	r2,r2,1
     630:	e0bff515 	stw	r2,-44(fp)
     634:	e0bff417 	ldw	r2,-48(fp)
     638:	10800044 	addi	r2,r2,1
     63c:	e0bff415 	stw	r2,-48(fp)
     640:	e0bff417 	ldw	r2,-48(fp)
     644:	10810010 	cmplti	r2,r2,1024
     648:	103fee1e 	bne	r2,zero,604 <run_ocm_to_ddr_test+0x380>
     64c:	e0bff517 	ldw	r2,-44(fp)
     650:	1000041e 	bne	r2,zero,664 <run_ocm_to_ddr_test+0x3e0>
     654:	01000074 	movhi	r4,1
     658:	21232404 	addi	r4,r4,-29552
     65c:	0004bcc0 	call	4bcc <puts>
     660:	00000406 	br	674 <run_ocm_to_ddr_test+0x3f0>
     664:	e17ff517 	ldw	r5,-44(fp)
     668:	01000074 	movhi	r4,1
     66c:	21232c04 	addi	r4,r4,-29520
     670:	0004ae40 	call	4ae4 <printf>
     674:	0001883a 	nop
     678:	e6fffc04 	addi	sp,fp,-16
     67c:	dfc00517 	ldw	ra,20(sp)
     680:	df000417 	ldw	fp,16(sp)
     684:	dcc00317 	ldw	r19,12(sp)
     688:	dc800217 	ldw	r18,8(sp)
     68c:	dc400117 	ldw	r17,4(sp)
     690:	dc000017 	ldw	r16,0(sp)
     694:	dec00604 	addi	sp,sp,24
     698:	f800283a 	ret

0000069c <run_ddr_to_ddr_test>:
     69c:	deffdc04 	addi	sp,sp,-144
     6a0:	dfc02315 	stw	ra,140(sp)
     6a4:	df002215 	stw	fp,136(sp)
     6a8:	ddc02115 	stw	r23,132(sp)
     6ac:	dd802015 	stw	r22,128(sp)
     6b0:	dd401f15 	stw	r21,124(sp)
     6b4:	dd001e15 	stw	r20,120(sp)
     6b8:	dcc01d15 	stw	r19,116(sp)
     6bc:	dc801c15 	stw	r18,112(sp)
     6c0:	dc401b15 	stw	r17,108(sp)
     6c4:	dc001a15 	stw	r16,104(sp)
     6c8:	df002204 	addi	fp,sp,136
     6cc:	e13fde15 	stw	r4,-136(fp)
     6d0:	01000074 	movhi	r4,1
     6d4:	21233504 	addi	r4,r4,-29484
     6d8:	0004bcc0 	call	4bcc <puts>
     6dc:	01000074 	movhi	r4,1
     6e0:	21234204 	addi	r4,r4,-29432
     6e4:	0004bcc0 	call	4bcc <puts>
     6e8:	00804034 	movhi	r2,256
     6ec:	e0bff115 	stw	r2,-60(fp)
     6f0:	00808034 	movhi	r2,512
     6f4:	e0bff015 	stw	r2,-64(fp)
     6f8:	0080c034 	movhi	r2,768
     6fc:	e0bfef15 	stw	r2,-68(fp)
     700:	e0fff117 	ldw	r3,-60(fp)
     704:	00a20034 	movhi	r2,34816
     708:	1885883a 	add	r2,r3,r2
     70c:	e0bfee15 	stw	r2,-72(fp)
     710:	e0fff017 	ldw	r3,-64(fp)
     714:	00a20034 	movhi	r2,34816
     718:	1885883a 	add	r2,r3,r2
     71c:	e0bfed15 	stw	r2,-76(fp)
     720:	e0ffef17 	ldw	r3,-68(fp)
     724:	00a20034 	movhi	r2,34816
     728:	1885883a 	add	r2,r3,r2
     72c:	e0bfec15 	stw	r2,-80(fp)
     730:	e03ff715 	stw	zero,-36(fp)
     734:	00001506 	br	78c <run_ddr_to_ddr_test+0xf0>
     738:	e0bff717 	ldw	r2,-36(fp)
     73c:	1100ffc4 	addi	r4,r2,1023
     740:	e0bff717 	ldw	r2,-36(fp)
     744:	100490ba 	slli	r2,r2,2
     748:	e0ffee17 	ldw	r3,-72(fp)
     74c:	1885883a 	add	r2,r3,r2
     750:	2007883a 	mov	r3,r4
     754:	10c00015 	stw	r3,0(r2)
     758:	e0bff717 	ldw	r2,-36(fp)
     75c:	100490ba 	slli	r2,r2,2
     760:	e0ffed17 	ldw	r3,-76(fp)
     764:	1885883a 	add	r2,r3,r2
     768:	10000015 	stw	zero,0(r2)
     76c:	e0bff717 	ldw	r2,-36(fp)
     770:	100490ba 	slli	r2,r2,2
     774:	e0ffec17 	ldw	r3,-80(fp)
     778:	1885883a 	add	r2,r3,r2
     77c:	10000015 	stw	zero,0(r2)
     780:	e0bff717 	ldw	r2,-36(fp)
     784:	10800044 	addi	r2,r2,1
     788:	e0bff715 	stw	r2,-36(fp)
     78c:	e0fff717 	ldw	r3,-36(fp)
     790:	00800134 	movhi	r2,4
     794:	18bfe816 	blt	r3,r2,738 <run_ddr_to_ddr_test+0x9c>
     798:	00053040 	call	5304 <alt_dcache_flush_all>
     79c:	0080c804 	movi	r2,800
     7a0:	e0bfeb15 	stw	r2,-84(fp)
     7a4:	01000074 	movhi	r4,1
     7a8:	21234704 	addi	r4,r4,-29412
     7ac:	0004ae40 	call	4ae4 <printf>
     7b0:	0000c040 	call	c04 <get_total_cycles>
     7b4:	e0bfe915 	stw	r2,-92(fp)
     7b8:	e0ffea15 	stw	r3,-88(fp)
     7bc:	e03ff615 	stw	zero,-40(fp)
     7c0:	00002406 	br	854 <run_ddr_to_ddr_test+0x1b8>
     7c4:	e0bff617 	ldw	r2,-40(fp)
     7c8:	100490ba 	slli	r2,r2,2
     7cc:	e0ffee17 	ldw	r3,-72(fp)
     7d0:	1885883a 	add	r2,r3,r2
     7d4:	10800017 	ldw	r2,0(r2)
     7d8:	1029883a 	mov	r20,r2
     7dc:	002b883a 	mov	r21,zero
     7e0:	e0bfeb17 	ldw	r2,-84(fp)
     7e4:	102d883a 	mov	r22,r2
     7e8:	002f883a 	mov	r23,zero
     7ec:	b00d883a 	mov	r6,r22
     7f0:	b80f883a 	mov	r7,r23
     7f4:	a009883a 	mov	r4,r20
     7f8:	a80b883a 	mov	r5,r21
     7fc:	0002cbc0 	call	2cbc <__muldi3>
     800:	1009883a 	mov	r4,r2
     804:	180b883a 	mov	r5,r3
     808:	2005883a 	mov	r2,r4
     80c:	2807883a 	mov	r3,r5
     810:	01806404 	movi	r6,400
     814:	000f883a 	mov	r7,zero
     818:	1009883a 	mov	r4,r2
     81c:	180b883a 	mov	r5,r3
     820:	0002d7c0 	call	2d7c <__udivdi3>
     824:	1009883a 	mov	r4,r2
     828:	180b883a 	mov	r5,r3
     82c:	2005883a 	mov	r2,r4
     830:	2807883a 	mov	r3,r5
     834:	e13ff617 	ldw	r4,-40(fp)
     838:	200890ba 	slli	r4,r4,2
     83c:	e17fed17 	ldw	r5,-76(fp)
     840:	2909883a 	add	r4,r5,r4
     844:	20800015 	stw	r2,0(r4)
     848:	e0bff617 	ldw	r2,-40(fp)
     84c:	10800044 	addi	r2,r2,1
     850:	e0bff615 	stw	r2,-40(fp)
     854:	e0fff617 	ldw	r3,-40(fp)
     858:	00800134 	movhi	r2,4
     85c:	18bfd916 	blt	r3,r2,7c4 <run_ddr_to_ddr_test+0x128>
     860:	0000c040 	call	c04 <get_total_cycles>
     864:	e0bfe715 	stw	r2,-100(fp)
     868:	e0ffe815 	stw	r3,-96(fp)
     86c:	e0ffe717 	ldw	r3,-100(fp)
     870:	e0bfe917 	ldw	r2,-92(fp)
     874:	1885c83a 	sub	r2,r3,r2
     878:	e0bff515 	stw	r2,-44(fp)
     87c:	e0bff517 	ldw	r2,-44(fp)
     880:	1000021e 	bne	r2,zero,88c <run_ddr_to_ddr_test+0x1f0>
     884:	00800044 	movi	r2,1
     888:	e0bff515 	stw	r2,-44(fp)
     88c:	e0bff517 	ldw	r2,-44(fp)
     890:	1025883a 	mov	r18,r2
     894:	0027883a 	mov	r19,zero
     898:	900d883a 	mov	r6,r18
     89c:	980f883a 	mov	r7,r19
     8a0:	01077374 	movhi	r4,7629
     8a4:	21194004 	addi	r4,r4,25856
     8a8:	000b883a 	mov	r5,zero
     8ac:	0002d7c0 	call	2d7c <__udivdi3>
     8b0:	1009883a 	mov	r4,r2
     8b4:	180b883a 	mov	r5,r3
     8b8:	2005883a 	mov	r2,r4
     8bc:	2807883a 	mov	r3,r5
     8c0:	e0bfe615 	stw	r2,-104(fp)
     8c4:	e0bfe617 	ldw	r2,-104(fp)
     8c8:	01400284 	movi	r5,10
     8cc:	1009883a 	mov	r4,r2
     8d0:	00034000 	call	3400 <__udivsi3>
     8d4:	1025883a 	mov	r18,r2
     8d8:	e0bfe617 	ldw	r2,-104(fp)
     8dc:	01400284 	movi	r5,10
     8e0:	1009883a 	mov	r4,r2
     8e4:	00034640 	call	3464 <__umodsi3>
     8e8:	100f883a 	mov	r7,r2
     8ec:	900d883a 	mov	r6,r18
     8f0:	e17ff517 	ldw	r5,-44(fp)
     8f4:	01000074 	movhi	r4,1
     8f8:	21231004 	addi	r4,r4,-29632
     8fc:	0004ae40 	call	4ae4 <printf>
     900:	00053040 	call	5304 <alt_dcache_flush_all>
     904:	e0bfde17 	ldw	r2,-136(fp)
     908:	10800504 	addi	r2,r2,20
     90c:	1007883a 	mov	r3,r2
     910:	00804004 	movi	r2,256
     914:	18800035 	stwio	r2,0(r3)
     918:	e0bfde17 	ldw	r2,-136(fp)
     91c:	10800604 	addi	r2,r2,24
     920:	1007883a 	mov	r3,r2
     924:	00804004 	movi	r2,256
     928:	18800035 	stwio	r2,0(r3)
     92c:	e0bfde17 	ldw	r2,-136(fp)
     930:	10800704 	addi	r2,r2,28
     934:	1007883a 	mov	r3,r2
     938:	e0bfeb17 	ldw	r2,-84(fp)
     93c:	18800035 	stwio	r2,0(r3)
     940:	01000074 	movhi	r4,1
     944:	21234e04 	addi	r4,r4,-29384
     948:	0004ae40 	call	4ae4 <printf>
     94c:	0000c040 	call	c04 <get_total_cycles>
     950:	e0bfe415 	stw	r2,-112(fp)
     954:	e0ffe515 	stw	r3,-108(fp)
     958:	00880034 	movhi	r2,8192
     95c:	e0bfe315 	stw	r2,-116(fp)
     960:	e0bfde17 	ldw	r2,-136(fp)
     964:	10800204 	addi	r2,r2,8
     968:	1009883a 	mov	r4,r2
     96c:	e0ffe317 	ldw	r3,-116(fp)
     970:	e0bff117 	ldw	r2,-60(fp)
     974:	1885883a 	add	r2,r3,r2
     978:	20800035 	stwio	r2,0(r4)
     97c:	e0bfde17 	ldw	r2,-136(fp)
     980:	10800304 	addi	r2,r2,12
     984:	1009883a 	mov	r4,r2
     988:	e0ffe317 	ldw	r3,-116(fp)
     98c:	e0bfef17 	ldw	r2,-68(fp)
     990:	1885883a 	add	r2,r3,r2
     994:	20800035 	stwio	r2,0(r4)
     998:	e0bfde17 	ldw	r2,-136(fp)
     99c:	10800404 	addi	r2,r2,16
     9a0:	1007883a 	mov	r3,r2
     9a4:	00800434 	movhi	r2,16
     9a8:	18800035 	stwio	r2,0(r3)
     9ac:	e0bfde17 	ldw	r2,-136(fp)
     9b0:	00c00044 	movi	r3,1
     9b4:	10c00035 	stwio	r3,0(r2)
     9b8:	0001883a 	nop
     9bc:	e0bfde17 	ldw	r2,-136(fp)
     9c0:	10800104 	addi	r2,r2,4
     9c4:	10800037 	ldwio	r2,0(r2)
     9c8:	1080004c 	andi	r2,r2,1
     9cc:	103ffb26 	beq	r2,zero,9bc <run_ddr_to_ddr_test+0x320>
     9d0:	e0bfde17 	ldw	r2,-136(fp)
     9d4:	10800104 	addi	r2,r2,4
     9d8:	1007883a 	mov	r3,r2
     9dc:	00800044 	movi	r2,1
     9e0:	18800035 	stwio	r2,0(r3)
     9e4:	0000c040 	call	c04 <get_total_cycles>
     9e8:	e0bfe115 	stw	r2,-124(fp)
     9ec:	e0ffe215 	stw	r3,-120(fp)
     9f0:	e0ffe117 	ldw	r3,-124(fp)
     9f4:	e0bfe417 	ldw	r2,-112(fp)
     9f8:	1885c83a 	sub	r2,r3,r2
     9fc:	e0bff415 	stw	r2,-48(fp)
     a00:	e0bff417 	ldw	r2,-48(fp)
     a04:	1000021e 	bne	r2,zero,a10 <run_ddr_to_ddr_test+0x374>
     a08:	00800044 	movi	r2,1
     a0c:	e0bff415 	stw	r2,-48(fp)
     a10:	e0bff417 	ldw	r2,-48(fp)
     a14:	1021883a 	mov	r16,r2
     a18:	0023883a 	mov	r17,zero
     a1c:	800d883a 	mov	r6,r16
     a20:	880f883a 	mov	r7,r17
     a24:	01077374 	movhi	r4,7629
     a28:	21194004 	addi	r4,r4,25856
     a2c:	000b883a 	mov	r5,zero
     a30:	0002d7c0 	call	2d7c <__udivdi3>
     a34:	1009883a 	mov	r4,r2
     a38:	180b883a 	mov	r5,r3
     a3c:	2005883a 	mov	r2,r4
     a40:	2807883a 	mov	r3,r5
     a44:	e0bfe015 	stw	r2,-128(fp)
     a48:	e0bfe017 	ldw	r2,-128(fp)
     a4c:	01400284 	movi	r5,10
     a50:	1009883a 	mov	r4,r2
     a54:	00034000 	call	3400 <__udivsi3>
     a58:	1021883a 	mov	r16,r2
     a5c:	e0bfe017 	ldw	r2,-128(fp)
     a60:	01400284 	movi	r5,10
     a64:	1009883a 	mov	r4,r2
     a68:	00034640 	call	3464 <__umodsi3>
     a6c:	100f883a 	mov	r7,r2
     a70:	800d883a 	mov	r6,r16
     a74:	e17ff417 	ldw	r5,-48(fp)
     a78:	01000074 	movhi	r4,1
     a7c:	21231004 	addi	r4,r4,-29632
     a80:	0004ae40 	call	4ae4 <printf>
     a84:	e17ff417 	ldw	r5,-48(fp)
     a88:	e13ff517 	ldw	r4,-44(fp)
     a8c:	00034000 	call	3400 <__udivsi3>
     a90:	100b883a 	mov	r5,r2
     a94:	01000074 	movhi	r4,1
     a98:	21232004 	addi	r4,r4,-29568
     a9c:	0004ae40 	call	4ae4 <printf>
     aa0:	01000074 	movhi	r4,1
     aa4:	21235504 	addi	r4,r4,-29356
     aa8:	0004bcc0 	call	4bcc <puts>
     aac:	e03ff315 	stw	zero,-52(fp)
     ab0:	e03ff215 	stw	zero,-56(fp)
     ab4:	00001906 	br	b1c <run_ddr_to_ddr_test+0x480>
     ab8:	e0bff217 	ldw	r2,-56(fp)
     abc:	100490ba 	slli	r2,r2,2
     ac0:	e0ffec17 	ldw	r3,-80(fp)
     ac4:	1885883a 	add	r2,r3,r2
     ac8:	10800017 	ldw	r2,0(r2)
     acc:	1009883a 	mov	r4,r2
     ad0:	e0bff217 	ldw	r2,-56(fp)
     ad4:	100490ba 	slli	r2,r2,2
     ad8:	e0ffed17 	ldw	r3,-76(fp)
     adc:	1885883a 	add	r2,r3,r2
     ae0:	10800017 	ldw	r2,0(r2)
     ae4:	2085c83a 	sub	r2,r4,r2
     ae8:	e0bfdf15 	stw	r2,-132(fp)
     aec:	e0bfdf17 	ldw	r2,-132(fp)
     af0:	10800088 	cmpgei	r2,r2,2
     af4:	1000031e 	bne	r2,zero,b04 <run_ddr_to_ddr_test+0x468>
     af8:	e0bfdf17 	ldw	r2,-132(fp)
     afc:	10bfffc8 	cmpgei	r2,r2,-1
     b00:	1000031e 	bne	r2,zero,b10 <run_ddr_to_ddr_test+0x474>
     b04:	e0bff317 	ldw	r2,-52(fp)
     b08:	10800044 	addi	r2,r2,1
     b0c:	e0bff315 	stw	r2,-52(fp)
     b10:	e0bff217 	ldw	r2,-56(fp)
     b14:	10800044 	addi	r2,r2,1
     b18:	e0bff215 	stw	r2,-56(fp)
     b1c:	e0bff217 	ldw	r2,-56(fp)
     b20:	10810010 	cmplti	r2,r2,1024
     b24:	103fe41e 	bne	r2,zero,ab8 <run_ddr_to_ddr_test+0x41c>
     b28:	e0bff317 	ldw	r2,-52(fp)
     b2c:	1000051e 	bne	r2,zero,b44 <run_ddr_to_ddr_test+0x4a8>
     b30:	e17feb17 	ldw	r5,-84(fp)
     b34:	01000074 	movhi	r4,1
     b38:	21235b04 	addi	r4,r4,-29332
     b3c:	0004ae40 	call	4ae4 <printf>
     b40:	00000406 	br	b54 <run_ddr_to_ddr_test+0x4b8>
     b44:	e17ff317 	ldw	r5,-52(fp)
     b48:	01000074 	movhi	r4,1
     b4c:	21236604 	addi	r4,r4,-29288
     b50:	0004ae40 	call	4ae4 <printf>
     b54:	0001883a 	nop
     b58:	e6fff804 	addi	sp,fp,-32
     b5c:	dfc00917 	ldw	ra,36(sp)
     b60:	df000817 	ldw	fp,32(sp)
     b64:	ddc00717 	ldw	r23,28(sp)
     b68:	dd800617 	ldw	r22,24(sp)
     b6c:	dd400517 	ldw	r21,20(sp)
     b70:	dd000417 	ldw	r20,16(sp)
     b74:	dcc00317 	ldw	r19,12(sp)
     b78:	dc800217 	ldw	r18,8(sp)
     b7c:	dc400117 	ldw	r17,4(sp)
     b80:	dc000017 	ldw	r16,0(sp)
     b84:	dec00a04 	addi	sp,sp,40
     b88:	f800283a 	ret

00000b8c <get_char_polled>:
     b8c:	defffe04 	addi	sp,sp,-8
     b90:	df000115 	stw	fp,4(sp)
     b94:	df000104 	addi	fp,sp,4
     b98:	008000b4 	movhi	r2,2
     b9c:	10800037 	ldwio	r2,0(r2)
     ba0:	e0bfff15 	stw	r2,-4(fp)
     ba4:	e0bfff17 	ldw	r2,-4(fp)
     ba8:	10a0000c 	andi	r2,r2,32768
     bac:	103ffa26 	beq	r2,zero,b98 <get_char_polled+0xc>
     bb0:	e0bfff17 	ldw	r2,-4(fp)
     bb4:	e037883a 	mov	sp,fp
     bb8:	df000017 	ldw	fp,0(sp)
     bbc:	dec00104 	addi	sp,sp,4
     bc0:	f800283a 	ret

00000bc4 <get_char_async>:
     bc4:	defffe04 	addi	sp,sp,-8
     bc8:	df000115 	stw	fp,4(sp)
     bcc:	df000104 	addi	fp,sp,4
     bd0:	008000b4 	movhi	r2,2
     bd4:	10800037 	ldwio	r2,0(r2)
     bd8:	e0bfff15 	stw	r2,-4(fp)
     bdc:	e0bfff17 	ldw	r2,-4(fp)
     be0:	10a0000c 	andi	r2,r2,32768
     be4:	10000226 	beq	r2,zero,bf0 <get_char_async+0x2c>
     be8:	e0bfff17 	ldw	r2,-4(fp)
     bec:	00000106 	br	bf4 <get_char_async+0x30>
     bf0:	0005883a 	mov	r2,zero
     bf4:	e037883a 	mov	sp,fp
     bf8:	df000017 	ldw	fp,0(sp)
     bfc:	dec00104 	addi	sp,sp,4
     c00:	f800283a 	ret

00000c04 <get_total_cycles>:
     c04:	defff504 	addi	sp,sp,-44
     c08:	dfc00a15 	stw	ra,40(sp)
     c0c:	df000915 	stw	fp,36(sp)
     c10:	dc400815 	stw	r17,32(sp)
     c14:	dc000715 	stw	r16,28(sp)
     c18:	df000904 	addi	fp,sp,36
     c1c:	01000074 	movhi	r4,1
     c20:	21274f17 	ldw	r4,-25284(r4)
     c24:	e13ffd15 	stw	r4,-12(fp)
     c28:	000b883a 	mov	r5,zero
     c2c:	010000b4 	movhi	r4,2
     c30:	21402435 	stwio	r5,144(r4)
     c34:	010000b4 	movhi	r4,2
     c38:	21002437 	ldwio	r4,144(r4)
     c3c:	e13ffc15 	stw	r4,-16(fp)
     c40:	010000b4 	movhi	r4,2
     c44:	21002537 	ldwio	r4,148(r4)
     c48:	e13ffb15 	stw	r4,-20(fp)
     c4c:	e13ffb17 	ldw	r4,-20(fp)
     c50:	2008943a 	slli	r4,r4,16
     c54:	e17ffc17 	ldw	r5,-16(fp)
     c58:	2908b03a 	or	r4,r5,r4
     c5c:	e13ffa15 	stw	r4,-24(fp)
     c60:	01000074 	movhi	r4,1
     c64:	21274f17 	ldw	r4,-25284(r4)
     c68:	e13ff915 	stw	r4,-28(fp)
     c6c:	e17ffd17 	ldw	r5,-12(fp)
     c70:	e13ff917 	ldw	r4,-28(fp)
     c74:	293fe91e 	bne	r5,r4,c1c <get_total_cycles+0x18>
     c78:	e13ffd17 	ldw	r4,-12(fp)
     c7c:	2005883a 	mov	r2,r4
     c80:	0007883a 	mov	r3,zero
     c84:	01b0d414 	movui	r6,50000
     c88:	000f883a 	mov	r7,zero
     c8c:	1009883a 	mov	r4,r2
     c90:	180b883a 	mov	r5,r3
     c94:	0002cbc0 	call	2cbc <__muldi3>
     c98:	1009883a 	mov	r4,r2
     c9c:	180b883a 	mov	r5,r3
     ca0:	e13ff715 	stw	r4,-36(fp)
     ca4:	e17ff815 	stw	r5,-32(fp)
     ca8:	00f0d3d4 	movui	r3,49999
     cac:	e0bffa17 	ldw	r2,-24(fp)
     cb0:	1885c83a 	sub	r2,r3,r2
     cb4:	1021883a 	mov	r16,r2
     cb8:	0023883a 	mov	r17,zero
     cbc:	e13ff717 	ldw	r4,-36(fp)
     cc0:	e17ff817 	ldw	r5,-32(fp)
     cc4:	2405883a 	add	r2,r4,r16
     cc8:	110d803a 	cmpltu	r6,r2,r4
     ccc:	2c47883a 	add	r3,r5,r17
     cd0:	30c9883a 	add	r4,r6,r3
     cd4:	2007883a 	mov	r3,r4
     cd8:	e0bff715 	stw	r2,-36(fp)
     cdc:	e0fff815 	stw	r3,-32(fp)
     ce0:	e0bff717 	ldw	r2,-36(fp)
     ce4:	e0fff817 	ldw	r3,-32(fp)
     ce8:	1009883a 	mov	r4,r2
     cec:	180b883a 	mov	r5,r3
     cf0:	2005883a 	mov	r2,r4
     cf4:	2807883a 	mov	r3,r5
     cf8:	e6fffe04 	addi	sp,fp,-8
     cfc:	dfc00317 	ldw	ra,12(sp)
     d00:	df000217 	ldw	fp,8(sp)
     d04:	dc400117 	ldw	r17,4(sp)
     d08:	dc000017 	ldw	r16,0(sp)
     d0c:	dec00404 	addi	sp,sp,16
     d10:	f800283a 	ret

00000d14 <hdmi_i2c_write>:
     d14:	defffb04 	addi	sp,sp,-20
     d18:	dfc00415 	stw	ra,16(sp)
     d1c:	df000315 	stw	fp,12(sp)
     d20:	df000304 	addi	fp,sp,12
     d24:	2005883a 	mov	r2,r4
     d28:	2807883a 	mov	r3,r5
     d2c:	e0bffe05 	stb	r2,-8(fp)
     d30:	1805883a 	mov	r2,r3
     d34:	e0bffd05 	stb	r2,-12(fp)
     d38:	e0bffe03 	ldbu	r2,-8(fp)
     d3c:	e0bfff85 	stb	r2,-2(fp)
     d40:	e0bffd03 	ldbu	r2,-12(fp)
     d44:	e0bfffc5 	stb	r2,-1(fp)
     d48:	d0a0dc17 	ldw	r2,-31888(gp)
     d4c:	01400e44 	movi	r5,57
     d50:	1009883a 	mov	r4,r2
     d54:	00063bc0 	call	63bc <alt_avalon_i2c_master_target_set>
     d58:	d0a0dc17 	ldw	r2,-31888(gp)
     d5c:	e0ffff84 	addi	r3,fp,-2
     d60:	000f883a 	mov	r7,zero
     d64:	01800084 	movi	r6,2
     d68:	180b883a 	mov	r5,r3
     d6c:	1009883a 	mov	r4,r2
     d70:	00065bc0 	call	65bc <alt_avalon_i2c_master_tx>
     d74:	0001883a 	nop
     d78:	e037883a 	mov	sp,fp
     d7c:	dfc00117 	ldw	ra,4(sp)
     d80:	df000017 	ldw	fp,0(sp)
     d84:	dec00204 	addi	sp,sp,8
     d88:	f800283a 	ret

00000d8c <hdmi_init>:
     d8c:	defff904 	addi	sp,sp,-28
     d90:	dfc00615 	stw	ra,24(sp)
     d94:	df000515 	stw	fp,20(sp)
     d98:	df000504 	addi	fp,sp,20
     d9c:	0080fa04 	movi	r2,1000
     da0:	e0bfff15 	stw	r2,-4(fp)
     da4:	01000074 	movhi	r4,1
     da8:	21236f04 	addi	r4,r4,-29252
     dac:	0004bcc0 	call	4bcc <puts>
     db0:	00000c06 	br	de4 <hdmi_init+0x58>
     db4:	0100fa04 	movi	r4,1000
     db8:	00056640 	call	5664 <usleep>
     dbc:	e0bfff17 	ldw	r2,-4(fp)
     dc0:	10bfffc4 	addi	r2,r2,-1
     dc4:	e0bfff15 	stw	r2,-4(fp)
     dc8:	e0bfff17 	ldw	r2,-4(fp)
     dcc:	1000051e 	bne	r2,zero,de4 <hdmi_init+0x58>
     dd0:	01000074 	movhi	r4,1
     dd4:	21237804 	addi	r4,r4,-29216
     dd8:	0004bcc0 	call	4bcc <puts>
     ddc:	00bfffc4 	movi	r2,-1
     de0:	00004c06 	br	f14 <hdmi_init+0x188>
     de4:	008000b4 	movhi	r2,2
     de8:	10800437 	ldwio	r2,16(r2)
     dec:	103ff126 	beq	r2,zero,db4 <hdmi_init+0x28>
     df0:	01000074 	movhi	r4,1
     df4:	21238404 	addi	r4,r4,-29168
     df8:	0004bcc0 	call	4bcc <puts>
     dfc:	01000074 	movhi	r4,1
     e00:	21239204 	addi	r4,r4,-29112
     e04:	0005be00 	call	5be0 <alt_avalon_i2c_open>
     e08:	d0a0dc15 	stw	r2,-31888(gp)
     e0c:	d0a0dc17 	ldw	r2,-31888(gp)
     e10:	1000071e 	bne	r2,zero,e30 <hdmi_init+0xa4>
     e14:	01400074 	movhi	r5,1
     e18:	29639204 	addi	r5,r5,-29112
     e1c:	01000074 	movhi	r4,1
     e20:	21239604 	addi	r4,r4,-29096
     e24:	0004ae40 	call	4ae4 <printf>
     e28:	00bfff84 	movi	r2,-2
     e2c:	00003906 	br	f14 <hdmi_init+0x188>
     e30:	d0a0dc17 	ldw	r2,-31888(gp)
     e34:	e0fffb04 	addi	r3,fp,-20
     e38:	180b883a 	mov	r5,r3
     e3c:	1009883a 	mov	r4,r2
     e40:	0005d040 	call	5d04 <alt_avalon_i2c_master_config_get>
     e44:	d0a0dc17 	ldw	r2,-31888(gp)
     e48:	e0fffb04 	addi	r3,fp,-20
     e4c:	018000b4 	movhi	r6,2
     e50:	31a1a804 	addi	r6,r6,-31072
     e54:	180b883a 	mov	r5,r3
     e58:	1009883a 	mov	r4,r2
     e5c:	0005f140 	call	5f14 <alt_avalon_i2c_master_config_speed_set>
     e60:	d0a0dc17 	ldw	r2,-31888(gp)
     e64:	e0fffb04 	addi	r3,fp,-20
     e68:	180b883a 	mov	r5,r3
     e6c:	1009883a 	mov	r4,r2
     e70:	0005db40 	call	5db4 <alt_avalon_i2c_master_config_set>
     e74:	01400404 	movi	r5,16
     e78:	01001044 	movi	r4,65
     e7c:	0000d140 	call	d14 <hdmi_i2c_write>
     e80:	000b883a 	mov	r5,zero
     e84:	01000584 	movi	r4,22
     e88:	0000d140 	call	d14 <hdmi_i2c_write>
     e8c:	01400184 	movi	r5,6
     e90:	01002bc4 	movi	r4,175
     e94:	0000d140 	call	d14 <hdmi_i2c_write>
     e98:	01400604 	movi	r5,24
     e9c:	01000f04 	movi	r4,60
     ea0:	0000d140 	call	d14 <hdmi_i2c_write>
     ea4:	014000c4 	movi	r5,3
     ea8:	01002604 	movi	r4,152
     eac:	0000d140 	call	d14 <hdmi_i2c_write>
     eb0:	01403804 	movi	r5,224
     eb4:	01002684 	movi	r4,154
     eb8:	0000d140 	call	d14 <hdmi_i2c_write>
     ebc:	01400c04 	movi	r5,48
     ec0:	01002704 	movi	r4,156
     ec4:	0000d140 	call	d14 <hdmi_i2c_write>
     ec8:	01401844 	movi	r5,97
     ecc:	01002744 	movi	r4,157
     ed0:	0000d140 	call	d14 <hdmi_i2c_write>
     ed4:	01402904 	movi	r5,164
     ed8:	01002884 	movi	r4,162
     edc:	0000d140 	call	d14 <hdmi_i2c_write>
     ee0:	01402904 	movi	r5,164
     ee4:	010028c4 	movi	r4,163
     ee8:	0000d140 	call	d14 <hdmi_i2c_write>
     eec:	01403404 	movi	r5,208
     ef0:	01003804 	movi	r4,224
     ef4:	0000d140 	call	d14 <hdmi_i2c_write>
     ef8:	000b883a 	mov	r5,zero
     efc:	01003e44 	movi	r4,249
     f00:	0000d140 	call	d14 <hdmi_i2c_write>
     f04:	01000074 	movhi	r4,1
     f08:	2123a004 	addi	r4,r4,-29056
     f0c:	0004bcc0 	call	4bcc <puts>
     f10:	0005883a 	mov	r2,zero
     f14:	e037883a 	mov	sp,fp
     f18:	dfc00117 	ldw	ra,4(sp)
     f1c:	df000017 	ldw	fp,0(sp)
     f20:	dec00204 	addi	sp,sp,8
     f24:	f800283a 	ret

00000f28 <generate_color_bar_pattern>:
     f28:	deffef04 	addi	sp,sp,-68
     f2c:	dfc01015 	stw	ra,64(sp)
     f30:	df000f15 	stw	fp,60(sp)
     f34:	df000f04 	addi	fp,sp,60
     f38:	01000074 	movhi	r4,1
     f3c:	2123ac04 	addi	r4,r4,-29008
     f40:	0004ae40 	call	4ae4 <printf>
     f44:	00a20034 	movhi	r2,34816
     f48:	e0bffc15 	stw	r2,-16(fp)
     f4c:	00814004 	movi	r2,1280
     f50:	e0bffb15 	stw	r2,-20(fp)
     f54:	0080b404 	movi	r2,720
     f58:	e0bffa15 	stw	r2,-24(fp)
     f5c:	e0bffb17 	ldw	r2,-20(fp)
     f60:	1000010e 	bge	r2,zero,f68 <generate_color_bar_pattern+0x40>
     f64:	108001c4 	addi	r2,r2,7
     f68:	1005d0fa 	srai	r2,r2,3
     f6c:	e0bff915 	stw	r2,-28(fp)
     f70:	00804034 	movhi	r2,256
     f74:	10bfffc4 	addi	r2,r2,-1
     f78:	e0bff115 	stw	r2,-60(fp)
     f7c:	00804034 	movhi	r2,256
     f80:	10bfc004 	addi	r2,r2,-256
     f84:	e0bff215 	stw	r2,-56(fp)
     f88:	00bfffd4 	movui	r2,65535
     f8c:	e0bff315 	stw	r2,-52(fp)
     f90:	00bfc014 	movui	r2,65280
     f94:	e0bff415 	stw	r2,-48(fp)
     f98:	00803ff4 	movhi	r2,255
     f9c:	10803fc4 	addi	r2,r2,255
     fa0:	e0bff515 	stw	r2,-44(fp)
     fa4:	00803ff4 	movhi	r2,255
     fa8:	e0bff615 	stw	r2,-40(fp)
     fac:	00803fc4 	movi	r2,255
     fb0:	e0bff715 	stw	r2,-36(fp)
     fb4:	e03ff815 	stw	zero,-32(fp)
     fb8:	e03fff15 	stw	zero,-4(fp)
     fbc:	00002106 	br	1044 <generate_color_bar_pattern+0x11c>
     fc0:	e03ffe15 	stw	zero,-8(fp)
     fc4:	00001906 	br	102c <generate_color_bar_pattern+0x104>
     fc8:	e17ff917 	ldw	r5,-28(fp)
     fcc:	e13ffe17 	ldw	r4,-8(fp)
     fd0:	000330c0 	call	330c <__divsi3>
     fd4:	e0bffd15 	stw	r2,-12(fp)
     fd8:	e0bffd17 	ldw	r2,-12(fp)
     fdc:	10800210 	cmplti	r2,r2,8
     fe0:	1000021e 	bne	r2,zero,fec <generate_color_bar_pattern+0xc4>
     fe4:	008001c4 	movi	r2,7
     fe8:	e0bffd15 	stw	r2,-12(fp)
     fec:	e0ffff17 	ldw	r3,-4(fp)
     ff0:	e0bffb17 	ldw	r2,-20(fp)
     ff4:	1887383a 	mul	r3,r3,r2
     ff8:	e0bffe17 	ldw	r2,-8(fp)
     ffc:	1885883a 	add	r2,r3,r2
    1000:	100490ba 	slli	r2,r2,2
    1004:	e0fffc17 	ldw	r3,-16(fp)
    1008:	1885883a 	add	r2,r3,r2
    100c:	e0fffd17 	ldw	r3,-12(fp)
    1010:	180690ba 	slli	r3,r3,2
    1014:	e0c7883a 	add	r3,fp,r3
    1018:	18fff117 	ldw	r3,-60(r3)
    101c:	10c00015 	stw	r3,0(r2)
    1020:	e0bffe17 	ldw	r2,-8(fp)
    1024:	10800044 	addi	r2,r2,1
    1028:	e0bffe15 	stw	r2,-8(fp)
    102c:	e0fffe17 	ldw	r3,-8(fp)
    1030:	e0bffb17 	ldw	r2,-20(fp)
    1034:	18bfe416 	blt	r3,r2,fc8 <generate_color_bar_pattern+0xa0>
    1038:	e0bfff17 	ldw	r2,-4(fp)
    103c:	10800044 	addi	r2,r2,1
    1040:	e0bfff15 	stw	r2,-4(fp)
    1044:	e0ffff17 	ldw	r3,-4(fp)
    1048:	e0bffa17 	ldw	r2,-24(fp)
    104c:	18bfdc16 	blt	r3,r2,fc0 <generate_color_bar_pattern+0x98>
    1050:	00053040 	call	5304 <alt_dcache_flush_all>
    1054:	e0fffb17 	ldw	r3,-20(fp)
    1058:	e0bffa17 	ldw	r2,-24(fp)
    105c:	1885383a 	mul	r2,r3,r2
    1060:	100b883a 	mov	r5,r2
    1064:	01000074 	movhi	r4,1
    1068:	2123b804 	addi	r4,r4,-28960
    106c:	0004ae40 	call	4ae4 <printf>
    1070:	0001883a 	nop
    1074:	e037883a 	mov	sp,fp
    1078:	dfc00117 	ldw	ra,4(sp)
    107c:	df000017 	ldw	fp,0(sp)
    1080:	dec00204 	addi	sp,sp,8
    1084:	f800283a 	ret

00001088 <run_gamma_submenu>:
    1088:	defffd04 	addi	sp,sp,-12
    108c:	dfc00215 	stw	ra,8(sp)
    1090:	df000115 	stw	fp,4(sp)
    1094:	df000104 	addi	fp,sp,4
    1098:	01000074 	movhi	r4,1
    109c:	2123c104 	addi	r4,r4,-28924
    10a0:	0004bcc0 	call	4bcc <puts>
    10a4:	d0a0dd17 	ldw	r2,-31884(gp)
    10a8:	10000326 	beq	r2,zero,10b8 <run_gamma_submenu+0x30>
    10ac:	00800074 	movhi	r2,1
    10b0:	10a3ca04 	addi	r2,r2,-28888
    10b4:	00000206 	br	10c0 <run_gamma_submenu+0x38>
    10b8:	00800074 	movhi	r2,1
    10bc:	10a3cb04 	addi	r2,r2,-28884
    10c0:	100b883a 	mov	r5,r2
    10c4:	01000074 	movhi	r4,1
    10c8:	2123cc04 	addi	r4,r4,-28880
    10cc:	0004ae40 	call	4ae4 <printf>
    10d0:	01000074 	movhi	r4,1
    10d4:	2123d504 	addi	r4,r4,-28844
    10d8:	0004bcc0 	call	4bcc <puts>
    10dc:	01000074 	movhi	r4,1
    10e0:	2123dd04 	addi	r4,r4,-28812
    10e4:	0004bcc0 	call	4bcc <puts>
    10e8:	01000074 	movhi	r4,1
    10ec:	2123e504 	addi	r4,r4,-28780
    10f0:	0004bcc0 	call	4bcc <puts>
    10f4:	01000074 	movhi	r4,1
    10f8:	2123f104 	addi	r4,r4,-28732
    10fc:	0004bcc0 	call	4bcc <puts>
    1100:	01000074 	movhi	r4,1
    1104:	2123f704 	addi	r4,r4,-28708
    1108:	0004ae40 	call	4ae4 <printf>
    110c:	0000b8c0 	call	b8c <get_char_polled>
    1110:	e0bfffc5 	stb	r2,-1(fp)
    1114:	e0bfffc7 	ldb	r2,-1(fp)
    1118:	100b883a 	mov	r5,r2
    111c:	01000074 	movhi	r4,1
    1120:	2123fb04 	addi	r4,r4,-28692
    1124:	0004ae40 	call	4ae4 <printf>
    1128:	e0bfffc7 	ldb	r2,-1(fp)
    112c:	10801898 	cmpnei	r2,r2,98
    1130:	10001c26 	beq	r2,zero,11a4 <run_gamma_submenu+0x11c>
    1134:	e0bfffc7 	ldb	r2,-1(fp)
    1138:	10800c58 	cmpnei	r2,r2,49
    113c:	1000081e 	bne	r2,zero,1160 <run_gamma_submenu+0xd8>
    1140:	d0a0dd17 	ldw	r2,-31884(gp)
    1144:	1005003a 	cmpeq	r2,r2,zero
    1148:	10803fcc 	andi	r2,r2,255
    114c:	d0a0dd15 	stw	r2,-31884(gp)
    1150:	d0a0dd17 	ldw	r2,-31884(gp)
    1154:	1009883a 	mov	r4,r2
    1158:	00014180 	call	1418 <set_gamma_enable>
    115c:	003fce06 	br	1098 <run_gamma_submenu+0x10>
    1160:	e0bfffc7 	ldb	r2,-1(fp)
    1164:	10800c98 	cmpnei	r2,r2,50
    1168:	1000041e 	bne	r2,zero,117c <run_gamma_submenu+0xf4>
    116c:	01100374 	movhi	r4,16397
    1170:	21333344 	addi	r4,r4,-13107
    1174:	00012e00 	call	12e0 <load_gamma_table>
    1178:	003fc706 	br	1098 <run_gamma_submenu+0x10>
    117c:	e0bfffc7 	ldb	r2,-1(fp)
    1180:	10800cd8 	cmpnei	r2,r2,51
    1184:	1000021e 	bne	r2,zero,1190 <run_gamma_submenu+0x108>
    1188:	00014840 	call	1484 <load_srgb_gamma_table>
    118c:	003fc206 	br	1098 <run_gamma_submenu+0x10>
    1190:	e0bfffc7 	ldb	r2,-1(fp)
    1194:	10800d18 	cmpnei	r2,r2,52
    1198:	103fbf1e 	bne	r2,zero,1098 <run_gamma_submenu+0x10>
    119c:	00015f00 	call	15f0 <load_inverse_gamma_table>
    11a0:	003fbd06 	br	1098 <run_gamma_submenu+0x10>
    11a4:	0001883a 	nop
    11a8:	0001883a 	nop
    11ac:	e037883a 	mov	sp,fp
    11b0:	dfc00117 	ldw	ra,4(sp)
    11b4:	df000017 	ldw	fp,0(sp)
    11b8:	dec00204 	addi	sp,sp,8
    11bc:	f800283a 	ret

000011c0 <change_rtl_pattern>:
    11c0:	defffc04 	addi	sp,sp,-16
    11c4:	dfc00315 	stw	ra,12(sp)
    11c8:	df000215 	stw	fp,8(sp)
    11cc:	df000204 	addi	fp,sp,8
    11d0:	01000074 	movhi	r4,1
    11d4:	2123fc04 	addi	r4,r4,-28688
    11d8:	0004bcc0 	call	4bcc <puts>
    11dc:	01000074 	movhi	r4,1
    11e0:	21240304 	addi	r4,r4,-28660
    11e4:	0004bcc0 	call	4bcc <puts>
    11e8:	01000074 	movhi	r4,1
    11ec:	21240704 	addi	r4,r4,-28644
    11f0:	0004bcc0 	call	4bcc <puts>
    11f4:	01000074 	movhi	r4,1
    11f8:	21240c04 	addi	r4,r4,-28624
    11fc:	0004bcc0 	call	4bcc <puts>
    1200:	01000074 	movhi	r4,1
    1204:	21241004 	addi	r4,r4,-28608
    1208:	0004bcc0 	call	4bcc <puts>
    120c:	01000074 	movhi	r4,1
    1210:	21241504 	addi	r4,r4,-28588
    1214:	0004bcc0 	call	4bcc <puts>
    1218:	01000074 	movhi	r4,1
    121c:	21241a04 	addi	r4,r4,-28568
    1220:	0004bcc0 	call	4bcc <puts>
    1224:	01000074 	movhi	r4,1
    1228:	21241f04 	addi	r4,r4,-28548
    122c:	0004bcc0 	call	4bcc <puts>
    1230:	01000074 	movhi	r4,1
    1234:	21242504 	addi	r4,r4,-28524
    1238:	0004bcc0 	call	4bcc <puts>
    123c:	01000074 	movhi	r4,1
    1240:	2123f104 	addi	r4,r4,-28732
    1244:	0004bcc0 	call	4bcc <puts>
    1248:	01000074 	movhi	r4,1
    124c:	2123f704 	addi	r4,r4,-28708
    1250:	0004ae40 	call	4ae4 <printf>
    1254:	0000b8c0 	call	b8c <get_char_polled>
    1258:	e0bfffc5 	stb	r2,-1(fp)
    125c:	e0bfffc7 	ldb	r2,-1(fp)
    1260:	100b883a 	mov	r5,r2
    1264:	01000074 	movhi	r4,1
    1268:	2123fb04 	addi	r4,r4,-28692
    126c:	0004ae40 	call	4ae4 <printf>
    1270:	e0bfffc7 	ldb	r2,-1(fp)
    1274:	10801898 	cmpnei	r2,r2,98
    1278:	10001226 	beq	r2,zero,12c4 <change_rtl_pattern+0x104>
    127c:	e0bfffc7 	ldb	r2,-1(fp)
    1280:	10bff404 	addi	r2,r2,-48
    1284:	e0bffe15 	stw	r2,-8(fp)
    1288:	e0bffe17 	ldw	r2,-8(fp)
    128c:	10800228 	cmpgeui	r2,r2,8
    1290:	1000081e 	bne	r2,zero,12b4 <change_rtl_pattern+0xf4>
    1294:	e0fffe17 	ldw	r3,-8(fp)
    1298:	00a000b4 	movhi	r2,32770
    129c:	10c00835 	stwio	r3,32(r2)
    12a0:	e17ffe17 	ldw	r5,-8(fp)
    12a4:	01000074 	movhi	r4,1
    12a8:	21242e04 	addi	r4,r4,-28488
    12ac:	0004ae40 	call	4ae4 <printf>
    12b0:	003fc706 	br	11d0 <change_rtl_pattern+0x10>
    12b4:	01000074 	movhi	r4,1
    12b8:	21243404 	addi	r4,r4,-28464
    12bc:	0004bcc0 	call	4bcc <puts>
    12c0:	003fc306 	br	11d0 <change_rtl_pattern+0x10>
    12c4:	0001883a 	nop
    12c8:	0001883a 	nop
    12cc:	e037883a 	mov	sp,fp
    12d0:	dfc00117 	ldw	ra,4(sp)
    12d4:	df000017 	ldw	fp,0(sp)
    12d8:	dec00204 	addi	sp,sp,8
    12dc:	f800283a 	ret

000012e0 <load_gamma_table>:
    12e0:	defff804 	addi	sp,sp,-32
    12e4:	dfc00715 	stw	ra,28(sp)
    12e8:	df000615 	stw	fp,24(sp)
    12ec:	df000604 	addi	fp,sp,24
    12f0:	e13ffa15 	stw	r4,-24(fp)
    12f4:	e13ffa17 	ldw	r4,-24(fp)
    12f8:	00049240 	call	4924 <__extendsfdf2>
    12fc:	100d883a 	mov	r6,r2
    1300:	180f883a 	mov	r7,r3
    1304:	300b883a 	mov	r5,r6
    1308:	380d883a 	mov	r6,r7
    130c:	01000074 	movhi	r4,1
    1310:	21244104 	addi	r4,r4,-28412
    1314:	0004ae40 	call	4ae4 <printf>
    1318:	e17ffa17 	ldw	r5,-24(fp)
    131c:	010fe034 	movhi	r4,16256
    1320:	000392c0 	call	392c <__divsf3>
    1324:	1007883a 	mov	r3,r2
    1328:	e0fffe15 	stw	r3,-8(fp)
    132c:	e03fff15 	stw	zero,-4(fp)
    1330:	00002d06 	br	13e8 <load_gamma_table+0x108>
    1334:	e13fff17 	ldw	r4,-4(fp)
    1338:	00048000 	call	4800 <__floatsisf>
    133c:	1007883a 	mov	r3,r2
    1340:	0150dff4 	movhi	r5,17279
    1344:	1809883a 	mov	r4,r3
    1348:	000392c0 	call	392c <__divsf3>
    134c:	1007883a 	mov	r3,r2
    1350:	e0fffd15 	stw	r3,-12(fp)
    1354:	e17ffe17 	ldw	r5,-8(fp)
    1358:	e13ffd17 	ldw	r4,-12(fp)
    135c:	0001b600 	call	1b60 <powf>
    1360:	e0bffc15 	stw	r2,-16(fp)
    1364:	0150dff4 	movhi	r5,17279
    1368:	e13ffc17 	ldw	r4,-16(fp)
    136c:	0003efc0 	call	3efc <__mulsf3>
    1370:	1007883a 	mov	r3,r2
    1374:	1805883a 	mov	r2,r3
    1378:	014fc034 	movhi	r5,16128
    137c:	1009883a 	mov	r4,r2
    1380:	00034c00 	call	34c0 <__addsf3>
    1384:	1007883a 	mov	r3,r2
    1388:	1805883a 	mov	r2,r3
    138c:	1009883a 	mov	r4,r2
    1390:	0002d1c0 	call	2d1c <__fixunssfsi>
    1394:	e0bffbc5 	stb	r2,-17(fp)
    1398:	e0ffff17 	ldw	r3,-4(fp)
    139c:	00a000b4 	movhi	r2,32770
    13a0:	10c00a35 	stwio	r3,40(r2)
    13a4:	e0fffbc3 	ldbu	r3,-17(fp)
    13a8:	00a000b4 	movhi	r2,32770
    13ac:	10c00b35 	stwio	r3,44(r2)
    13b0:	e0bffbc3 	ldbu	r2,-17(fp)
    13b4:	100b883a 	mov	r5,r2
    13b8:	01000074 	movhi	r4,1
    13bc:	21244f04 	addi	r4,r4,-28356
    13c0:	0004ae40 	call	4ae4 <printf>
    13c4:	e0bfff17 	ldw	r2,-4(fp)
    13c8:	10800044 	addi	r2,r2,1
    13cc:	108003cc 	andi	r2,r2,15
    13d0:	1000021e 	bne	r2,zero,13dc <load_gamma_table+0xfc>
    13d4:	01000284 	movi	r4,10
    13d8:	0004b340 	call	4b34 <putchar>
    13dc:	e0bfff17 	ldw	r2,-4(fp)
    13e0:	10800044 	addi	r2,r2,1
    13e4:	e0bfff15 	stw	r2,-4(fp)
    13e8:	e0bfff17 	ldw	r2,-4(fp)
    13ec:	10804010 	cmplti	r2,r2,256
    13f0:	103fd01e 	bne	r2,zero,1334 <load_gamma_table+0x54>
    13f4:	01000074 	movhi	r4,1
    13f8:	21245104 	addi	r4,r4,-28348
    13fc:	0004bcc0 	call	4bcc <puts>
    1400:	0001883a 	nop
    1404:	e037883a 	mov	sp,fp
    1408:	dfc00117 	ldw	ra,4(sp)
    140c:	df000017 	ldw	fp,0(sp)
    1410:	dec00204 	addi	sp,sp,8
    1414:	f800283a 	ret

00001418 <set_gamma_enable>:
    1418:	defffd04 	addi	sp,sp,-12
    141c:	dfc00215 	stw	ra,8(sp)
    1420:	df000115 	stw	fp,4(sp)
    1424:	df000104 	addi	fp,sp,4
    1428:	e13fff15 	stw	r4,-4(fp)
    142c:	e0bfff17 	ldw	r2,-4(fp)
    1430:	1004c03a 	cmpne	r2,r2,zero
    1434:	10c03fcc 	andi	r3,r2,255
    1438:	00a000b4 	movhi	r2,32770
    143c:	10c00935 	stwio	r3,36(r2)
    1440:	e0bfff17 	ldw	r2,-4(fp)
    1444:	10000326 	beq	r2,zero,1454 <set_gamma_enable+0x3c>
    1448:	00800074 	movhi	r2,1
    144c:	10a45304 	addi	r2,r2,-28340
    1450:	00000206 	br	145c <set_gamma_enable+0x44>
    1454:	00800074 	movhi	r2,1
    1458:	10a45504 	addi	r2,r2,-28332
    145c:	100b883a 	mov	r5,r2
    1460:	01000074 	movhi	r4,1
    1464:	21245804 	addi	r4,r4,-28320
    1468:	0004ae40 	call	4ae4 <printf>
    146c:	0001883a 	nop
    1470:	e037883a 	mov	sp,fp
    1474:	dfc00117 	ldw	ra,4(sp)
    1478:	df000017 	ldw	fp,0(sp)
    147c:	dec00204 	addi	sp,sp,8
    1480:	f800283a 	ret

00001484 <load_srgb_gamma_table>:
    1484:	defffa04 	addi	sp,sp,-24
    1488:	dfc00515 	stw	ra,20(sp)
    148c:	df000415 	stw	fp,16(sp)
    1490:	df000404 	addi	fp,sp,16
    1494:	01000074 	movhi	r4,1
    1498:	21245e04 	addi	r4,r4,-28296
    149c:	0004bcc0 	call	4bcc <puts>
    14a0:	e03fff15 	stw	zero,-4(fp)
    14a4:	00004606 	br	15c0 <load_srgb_gamma_table+0x13c>
    14a8:	e13fff17 	ldw	r4,-4(fp)
    14ac:	00048000 	call	4800 <__floatsisf>
    14b0:	1007883a 	mov	r3,r2
    14b4:	0150dff4 	movhi	r5,17279
    14b8:	1809883a 	mov	r4,r3
    14bc:	000392c0 	call	392c <__divsf3>
    14c0:	1007883a 	mov	r3,r2
    14c4:	e0fffd15 	stw	r3,-12(fp)
    14c8:	014ed374 	movhi	r5,15181
    14cc:	294b8704 	addi	r5,r5,11804
    14d0:	e13ffd17 	ldw	r4,-12(fp)
    14d4:	0003e480 	call	3e48 <__lesf2>
    14d8:	00800716 	blt	zero,r2,14f8 <load_srgb_gamma_table+0x74>
    14dc:	015053f4 	movhi	r5,16719
    14e0:	296e1484 	addi	r5,r5,-18350
    14e4:	e13ffd17 	ldw	r4,-12(fp)
    14e8:	0003efc0 	call	3efc <__mulsf3>
    14ec:	1007883a 	mov	r3,r2
    14f0:	e0fffe15 	stw	r3,-8(fp)
    14f4:	00001106 	br	153c <load_srgb_gamma_table+0xb8>
    14f8:	014fb574 	movhi	r5,16085
    14fc:	29555544 	addi	r5,r5,21845
    1500:	e13ffd17 	ldw	r4,-12(fp)
    1504:	0001b600 	call	1b60 <powf>
    1508:	1007883a 	mov	r3,r2
    150c:	014fe1f4 	movhi	r5,16263
    1510:	29428f44 	addi	r5,r5,2621
    1514:	1809883a 	mov	r4,r3
    1518:	0003efc0 	call	3efc <__mulsf3>
    151c:	1007883a 	mov	r3,r2
    1520:	1805883a 	mov	r2,r3
    1524:	014f5874 	movhi	r5,15713
    1528:	2951eb84 	addi	r5,r5,18350
    152c:	1009883a 	mov	r4,r2
    1530:	00042b00 	call	42b0 <__subsf3>
    1534:	1007883a 	mov	r3,r2
    1538:	e0fffe15 	stw	r3,-8(fp)
    153c:	0150dff4 	movhi	r5,17279
    1540:	e13ffe17 	ldw	r4,-8(fp)
    1544:	0003efc0 	call	3efc <__mulsf3>
    1548:	1007883a 	mov	r3,r2
    154c:	1805883a 	mov	r2,r3
    1550:	014fc034 	movhi	r5,16128
    1554:	1009883a 	mov	r4,r2
    1558:	00034c00 	call	34c0 <__addsf3>
    155c:	1007883a 	mov	r3,r2
    1560:	1805883a 	mov	r2,r3
    1564:	1009883a 	mov	r4,r2
    1568:	0002d1c0 	call	2d1c <__fixunssfsi>
    156c:	e0bffcc5 	stb	r2,-13(fp)
    1570:	e0ffff17 	ldw	r3,-4(fp)
    1574:	00a000b4 	movhi	r2,32770
    1578:	10c00a35 	stwio	r3,40(r2)
    157c:	e0fffcc3 	ldbu	r3,-13(fp)
    1580:	00a000b4 	movhi	r2,32770
    1584:	10c00b35 	stwio	r3,44(r2)
    1588:	e0bffcc3 	ldbu	r2,-13(fp)
    158c:	100b883a 	mov	r5,r2
    1590:	01000074 	movhi	r4,1
    1594:	21244f04 	addi	r4,r4,-28356
    1598:	0004ae40 	call	4ae4 <printf>
    159c:	e0bfff17 	ldw	r2,-4(fp)
    15a0:	10800044 	addi	r2,r2,1
    15a4:	108003cc 	andi	r2,r2,15
    15a8:	1000021e 	bne	r2,zero,15b4 <load_srgb_gamma_table+0x130>
    15ac:	01000284 	movi	r4,10
    15b0:	0004b340 	call	4b34 <putchar>
    15b4:	e0bfff17 	ldw	r2,-4(fp)
    15b8:	10800044 	addi	r2,r2,1
    15bc:	e0bfff15 	stw	r2,-4(fp)
    15c0:	e0bfff17 	ldw	r2,-4(fp)
    15c4:	10804010 	cmplti	r2,r2,256
    15c8:	103fb71e 	bne	r2,zero,14a8 <load_srgb_gamma_table+0x24>
    15cc:	01000074 	movhi	r4,1
    15d0:	21246904 	addi	r4,r4,-28252
    15d4:	0004bcc0 	call	4bcc <puts>
    15d8:	0001883a 	nop
    15dc:	e037883a 	mov	sp,fp
    15e0:	dfc00117 	ldw	ra,4(sp)
    15e4:	df000017 	ldw	fp,0(sp)
    15e8:	dec00204 	addi	sp,sp,8
    15ec:	f800283a 	ret

000015f0 <load_inverse_gamma_table>:
    15f0:	defffa04 	addi	sp,sp,-24
    15f4:	dfc00515 	stw	ra,20(sp)
    15f8:	df000415 	stw	fp,16(sp)
    15fc:	df000404 	addi	fp,sp,16
    1600:	01000074 	movhi	r4,1
    1604:	21246e04 	addi	r4,r4,-28232
    1608:	0004bcc0 	call	4bcc <puts>
    160c:	e03fff15 	stw	zero,-4(fp)
    1610:	00002306 	br	16a0 <load_inverse_gamma_table+0xb0>
    1614:	e13fff17 	ldw	r4,-4(fp)
    1618:	00048000 	call	4800 <__floatsisf>
    161c:	1007883a 	mov	r3,r2
    1620:	0150dff4 	movhi	r5,17279
    1624:	1809883a 	mov	r4,r3
    1628:	000392c0 	call	392c <__divsf3>
    162c:	1007883a 	mov	r3,r2
    1630:	e0fffe15 	stw	r3,-8(fp)
    1634:	01500374 	movhi	r5,16397
    1638:	29733344 	addi	r5,r5,-13107
    163c:	e13ffe17 	ldw	r4,-8(fp)
    1640:	0001b600 	call	1b60 <powf>
    1644:	e0bffd15 	stw	r2,-12(fp)
    1648:	0150dff4 	movhi	r5,17279
    164c:	e13ffd17 	ldw	r4,-12(fp)
    1650:	0003efc0 	call	3efc <__mulsf3>
    1654:	1007883a 	mov	r3,r2
    1658:	1805883a 	mov	r2,r3
    165c:	014fc034 	movhi	r5,16128
    1660:	1009883a 	mov	r4,r2
    1664:	00034c00 	call	34c0 <__addsf3>
    1668:	1007883a 	mov	r3,r2
    166c:	1805883a 	mov	r2,r3
    1670:	1009883a 	mov	r4,r2
    1674:	0002d1c0 	call	2d1c <__fixunssfsi>
    1678:	e0bffcc5 	stb	r2,-13(fp)
    167c:	e0ffff17 	ldw	r3,-4(fp)
    1680:	00a000b4 	movhi	r2,32770
    1684:	10c00a35 	stwio	r3,40(r2)
    1688:	e0fffcc3 	ldbu	r3,-13(fp)
    168c:	00a000b4 	movhi	r2,32770
    1690:	10c00b35 	stwio	r3,44(r2)
    1694:	e0bfff17 	ldw	r2,-4(fp)
    1698:	10800044 	addi	r2,r2,1
    169c:	e0bfff15 	stw	r2,-4(fp)
    16a0:	e0bfff17 	ldw	r2,-4(fp)
    16a4:	10804010 	cmplti	r2,r2,256
    16a8:	103fda1e 	bne	r2,zero,1614 <load_inverse_gamma_table+0x24>
    16ac:	01000074 	movhi	r4,1
    16b0:	21248104 	addi	r4,r4,-28156
    16b4:	0004bcc0 	call	4bcc <puts>
    16b8:	0001883a 	nop
    16bc:	e037883a 	mov	sp,fp
    16c0:	dfc00117 	ldw	ra,4(sp)
    16c4:	df000017 	ldw	fp,0(sp)
    16c8:	dec00204 	addi	sp,sp,8
    16cc:	f800283a 	ret

000016d0 <load_char_bitmap>:
    16d0:	defff504 	addi	sp,sp,-44
    16d4:	dfc00a15 	stw	ra,40(sp)
    16d8:	df000915 	stw	fp,36(sp)
    16dc:	df000904 	addi	fp,sp,36
    16e0:	01000074 	movhi	r4,1
    16e4:	21248704 	addi	r4,r4,-28132
    16e8:	0004ae40 	call	4ae4 <printf>
    16ec:	e0fff704 	addi	r3,fp,-36
    16f0:	00800074 	movhi	r2,1
    16f4:	10a49004 	addi	r2,r2,-28096
    16f8:	01000804 	movi	r4,32
    16fc:	200d883a 	mov	r6,r4
    1700:	100b883a 	mov	r5,r2
    1704:	1809883a 	mov	r4,r3
    1708:	0004a800 	call	4a80 <memcpy>
    170c:	e03fff15 	stw	zero,-4(fp)
    1710:	00000d06 	br	1748 <load_char_bitmap+0x78>
    1714:	e0ffff17 	ldw	r3,-4(fp)
    1718:	00a000b4 	movhi	r2,32770
    171c:	10c00c35 	stwio	r3,48(r2)
    1720:	e0bfff17 	ldw	r2,-4(fp)
    1724:	1085883a 	add	r2,r2,r2
    1728:	e085883a 	add	r2,fp,r2
    172c:	10bff70b 	ldhu	r2,-36(r2)
    1730:	10ffffcc 	andi	r3,r2,65535
    1734:	00a000b4 	movhi	r2,32770
    1738:	10c00d35 	stwio	r3,52(r2)
    173c:	e0bfff17 	ldw	r2,-4(fp)
    1740:	10800044 	addi	r2,r2,1
    1744:	e0bfff15 	stw	r2,-4(fp)
    1748:	e0bfff17 	ldw	r2,-4(fp)
    174c:	10800410 	cmplti	r2,r2,16
    1750:	103ff01e 	bne	r2,zero,1714 <load_char_bitmap+0x44>
    1754:	01000074 	movhi	r4,1
    1758:	21245104 	addi	r4,r4,-28348
    175c:	0004bcc0 	call	4bcc <puts>
    1760:	0001883a 	nop
    1764:	e037883a 	mov	sp,fp
    1768:	dfc00117 	ldw	ra,4(sp)
    176c:	df000017 	ldw	fp,0(sp)
    1770:	dec00204 	addi	sp,sp,8
    1774:	f800283a 	ret

00001778 <print_menu>:
    1778:	defffe04 	addi	sp,sp,-8
    177c:	dfc00115 	stw	ra,4(sp)
    1780:	df000015 	stw	fp,0(sp)
    1784:	d839883a 	mov	fp,sp
    1788:	01000074 	movhi	r4,1
    178c:	21249804 	addi	r4,r4,-28064
    1790:	0004bcc0 	call	4bcc <puts>
    1794:	01000074 	movhi	r4,1
    1798:	2124a504 	addi	r4,r4,-28012
    179c:	0004bcc0 	call	4bcc <puts>
    17a0:	01000074 	movhi	r4,1
    17a4:	2124af04 	addi	r4,r4,-27972
    17a8:	0004bcc0 	call	4bcc <puts>
    17ac:	01000074 	movhi	r4,1
    17b0:	2124bb04 	addi	r4,r4,-27924
    17b4:	0004bcc0 	call	4bcc <puts>
    17b8:	01000074 	movhi	r4,1
    17bc:	2124c504 	addi	r4,r4,-27884
    17c0:	0004bcc0 	call	4bcc <puts>
    17c4:	01000074 	movhi	r4,1
    17c8:	2124d104 	addi	r4,r4,-27836
    17cc:	0004bcc0 	call	4bcc <puts>
    17d0:	01000074 	movhi	r4,1
    17d4:	2124df04 	addi	r4,r4,-27780
    17d8:	0004bcc0 	call	4bcc <puts>
    17dc:	01000074 	movhi	r4,1
    17e0:	2124ee04 	addi	r4,r4,-27720
    17e4:	0004bcc0 	call	4bcc <puts>
    17e8:	01000074 	movhi	r4,1
    17ec:	2124f704 	addi	r4,r4,-27684
    17f0:	0004bcc0 	call	4bcc <puts>
    17f4:	01000074 	movhi	r4,1
    17f8:	21250004 	addi	r4,r4,-27648
    17fc:	0004bcc0 	call	4bcc <puts>
    1800:	01000074 	movhi	r4,1
    1804:	21250304 	addi	r4,r4,-27636
    1808:	0004bcc0 	call	4bcc <puts>
    180c:	01000074 	movhi	r4,1
    1810:	21251004 	addi	r4,r4,-27584
    1814:	0004ae40 	call	4ae4 <printf>
    1818:	0001883a 	nop
    181c:	e037883a 	mov	sp,fp
    1820:	dfc00117 	ldw	ra,4(sp)
    1824:	df000017 	ldw	fp,0(sp)
    1828:	dec00204 	addi	sp,sp,8
    182c:	f800283a 	ret

00001830 <run_interactive_menu>:
    1830:	defffd04 	addi	sp,sp,-12
    1834:	dfc00215 	stw	ra,8(sp)
    1838:	df000115 	stw	fp,4(sp)
    183c:	df000104 	addi	fp,sp,4
    1840:	00017780 	call	1778 <print_menu>
    1844:	e03fffc5 	stb	zero,-1(fp)
    1848:	00000206 	br	1854 <run_interactive_menu+0x24>
    184c:	0000b8c0 	call	b8c <get_char_polled>
    1850:	e0bfffc5 	stb	r2,-1(fp)
    1854:	e0bfffc7 	ldb	r2,-1(fp)
    1858:	10800810 	cmplti	r2,r2,32
    185c:	103ffb1e 	bne	r2,zero,184c <run_interactive_menu+0x1c>
    1860:	e0bfffc7 	ldb	r2,-1(fp)
    1864:	100b883a 	mov	r5,r2
    1868:	01000074 	movhi	r4,1
    186c:	21251504 	addi	r4,r4,-27564
    1870:	0004ae40 	call	4ae4 <printf>
    1874:	e0bfffc7 	ldb	r2,-1(fp)
    1878:	10bff3c4 	addi	r2,r2,-49
    187c:	10c010a8 	cmpgeui	r3,r2,66
    1880:	1800641e 	bne	r3,zero,1a14 <run_interactive_menu+0x1e4>
    1884:	100690ba 	slli	r3,r2,2
    1888:	00800034 	movhi	r2,0
    188c:	1885883a 	add	r2,r3,r2
    1890:	10862617 	ldw	r2,6296(r2)
    1894:	1000683a 	jmp	r2
    1898:	000019a0 	cmpeqi	zero,zero,102
    189c:	000019b0 	cmpltui	zero,zero,102
    18a0:	000019c0 	call	19c <alt_irq_handler+0xa0>
    18a4:	000019c8 	cmpgei	zero,zero,103
    18a8:	000019d0 	cmplti	zero,zero,103
    18ac:	000019d8 	cmpnei	zero,zero,103
    18b0:	00001a14 	movui	zero,104
    18b4:	00001a14 	movui	zero,104
    18b8:	00001a14 	movui	zero,104
    18bc:	00001a14 	movui	zero,104
    18c0:	00001a14 	movui	zero,104
    18c4:	00001a14 	movui	zero,104
    18c8:	00001a14 	movui	zero,104
    18cc:	00001a14 	movui	zero,104
    18d0:	00001a14 	movui	zero,104
    18d4:	00001a14 	movui	zero,104
    18d8:	00001a14 	movui	zero,104
    18dc:	00001a14 	movui	zero,104
    18e0:	000019e0 	cmpeqi	zero,zero,103
    18e4:	00001a14 	movui	zero,104
    18e8:	00001a14 	movui	zero,104
    18ec:	00001a14 	movui	zero,104
    18f0:	00001a14 	movui	zero,104
    18f4:	00001a14 	movui	zero,104
    18f8:	00001a14 	movui	zero,104
    18fc:	00001a14 	movui	zero,104
    1900:	00001a14 	movui	zero,104
    1904:	00001a14 	movui	zero,104
    1908:	00001a14 	movui	zero,104
    190c:	00001a14 	movui	zero,104
    1910:	00001a14 	movui	zero,104
    1914:	00001a14 	movui	zero,104
    1918:	00001a14 	movui	zero,104
    191c:	00001a14 	movui	zero,104
    1920:	00001a14 	movui	zero,104
    1924:	00001a14 	movui	zero,104
    1928:	00001a14 	movui	zero,104
    192c:	00001a14 	movui	zero,104
    1930:	00001a14 	movui	zero,104
    1934:	00001a14 	movui	zero,104
    1938:	00001a14 	movui	zero,104
    193c:	00001a14 	movui	zero,104
    1940:	00001a14 	movui	zero,104
    1944:	00001a14 	movui	zero,104
    1948:	00001a14 	movui	zero,104
    194c:	00001a14 	movui	zero,104
    1950:	00001a14 	movui	zero,104
    1954:	00001a14 	movui	zero,104
    1958:	00001a14 	movui	zero,104
    195c:	00001a14 	movui	zero,104
    1960:	000019e0 	cmpeqi	zero,zero,103
    1964:	00001a14 	movui	zero,104
    1968:	00001a14 	movui	zero,104
    196c:	00001a14 	movui	zero,104
    1970:	00001a14 	movui	zero,104
    1974:	00001a14 	movui	zero,104
    1978:	00001a14 	movui	zero,104
    197c:	00001a14 	movui	zero,104
    1980:	00001a14 	movui	zero,104
    1984:	00001a14 	movui	zero,104
    1988:	00001a14 	movui	zero,104
    198c:	00001a14 	movui	zero,104
    1990:	00001a14 	movui	zero,104
    1994:	00001a14 	movui	zero,104
    1998:	00001a04 	movi	zero,104
    199c:	000019e8 	cmpgeui	zero,zero,103
    19a0:	012000b4 	movhi	r4,32770
    19a4:	21002804 	addi	r4,r4,160
    19a8:	00002840 	call	284 <run_ocm_to_ddr_test>
    19ac:	00001d06 	br	1a24 <run_interactive_menu+0x1f4>
    19b0:	012000b4 	movhi	r4,32770
    19b4:	21003004 	addi	r4,r4,192
    19b8:	000069c0 	call	69c <run_ddr_to_ddr_test>
    19bc:	00001906 	br	1a24 <run_interactive_menu+0x1f4>
    19c0:	0000d8c0 	call	d8c <hdmi_init>
    19c4:	00001706 	br	1a24 <run_interactive_menu+0x1f4>
    19c8:	0000f280 	call	f28 <generate_color_bar_pattern>
    19cc:	00001506 	br	1a24 <run_interactive_menu+0x1f4>
    19d0:	00011c00 	call	11c0 <change_rtl_pattern>
    19d4:	00001306 	br	1a24 <run_interactive_menu+0x1f4>
    19d8:	00010880 	call	1088 <run_gamma_submenu>
    19dc:	00001106 	br	1a24 <run_interactive_menu+0x1f4>
    19e0:	00016d00 	call	16d0 <load_char_bitmap>
    19e4:	00000f06 	br	1a24 <run_interactive_menu+0x1f4>
    19e8:	0007883a 	mov	r3,zero
    19ec:	00a000b4 	movhi	r2,32770
    19f0:	10c00835 	stwio	r3,32(r2)
    19f4:	01000074 	movhi	r4,1
    19f8:	21251604 	addi	r4,r4,-27560
    19fc:	0004bcc0 	call	4bcc <puts>
    1a00:	00000806 	br	1a24 <run_interactive_menu+0x1f4>
    1a04:	01000074 	movhi	r4,1
    1a08:	21251e04 	addi	r4,r4,-27528
    1a0c:	0004bcc0 	call	4bcc <puts>
    1a10:	00000506 	br	1a28 <run_interactive_menu+0x1f8>
    1a14:	01000074 	movhi	r4,1
    1a18:	21252304 	addi	r4,r4,-27508
    1a1c:	0004bcc0 	call	4bcc <puts>
    1a20:	0001883a 	nop
    1a24:	003f8606 	br	1840 <run_interactive_menu+0x10>
    1a28:	e037883a 	mov	sp,fp
    1a2c:	dfc00117 	ldw	ra,4(sp)
    1a30:	df000017 	ldw	fp,0(sp)
    1a34:	dec00204 	addi	sp,sp,8
    1a38:	f800283a 	ret

00001a3c <main>:
    1a3c:	defff804 	addi	sp,sp,-32
    1a40:	dfc00715 	stw	ra,28(sp)
    1a44:	df000615 	stw	fp,24(sp)
    1a48:	df000604 	addi	fp,sp,24
    1a4c:	01000074 	movhi	r4,1
    1a50:	21252c04 	addi	r4,r4,-27472
    1a54:	0004bcc0 	call	4bcc <puts>
    1a58:	00800044 	movi	r2,1
    1a5c:	1001703a 	wrctl	status,r2
    1a60:	00c001c4 	movi	r3,7
    1a64:	008000b4 	movhi	r2,2
    1a68:	10c02135 	stwio	r3,132(r2)
    1a6c:	01000074 	movhi	r4,1
    1a70:	21253904 	addi	r4,r4,-27420
    1a74:	0004ae40 	call	4ae4 <printf>
    1a78:	0000c040 	call	c04 <get_total_cycles>
    1a7c:	e0bffe15 	stw	r2,-8(fp)
    1a80:	e0ffff15 	stw	r3,-4(fp)
    1a84:	e03ffa15 	stw	zero,-24(fp)
    1a88:	00000306 	br	1a98 <main+0x5c>
    1a8c:	e0bffa17 	ldw	r2,-24(fp)
    1a90:	10800044 	addi	r2,r2,1
    1a94:	e0bffa15 	stw	r2,-24(fp)
    1a98:	e0bffa17 	ldw	r2,-24(fp)
    1a9c:	1089c410 	cmplti	r2,r2,10000
    1aa0:	103ffa1e 	bne	r2,zero,1a8c <main+0x50>
    1aa4:	0000c040 	call	c04 <get_total_cycles>
    1aa8:	e0bffc15 	stw	r2,-16(fp)
    1aac:	e0fffd15 	stw	r3,-12(fp)
    1ab0:	e0bffd17 	ldw	r2,-12(fp)
    1ab4:	e0ffff17 	ldw	r3,-4(fp)
    1ab8:	18800636 	bltu	r3,r2,1ad4 <main+0x98>
    1abc:	e0fffd17 	ldw	r3,-12(fp)
    1ac0:	e0bfff17 	ldw	r2,-4(fp)
    1ac4:	18800b1e 	bne	r3,r2,1af4 <main+0xb8>
    1ac8:	e0bffc17 	ldw	r2,-16(fp)
    1acc:	e0fffe17 	ldw	r3,-8(fp)
    1ad0:	1880082e 	bgeu	r3,r2,1af4 <main+0xb8>
    1ad4:	e0fffc17 	ldw	r3,-16(fp)
    1ad8:	e0bffe17 	ldw	r2,-8(fp)
    1adc:	1885c83a 	sub	r2,r3,r2
    1ae0:	100b883a 	mov	r5,r2
    1ae4:	01000074 	movhi	r4,1
    1ae8:	21253e04 	addi	r4,r4,-27400
    1aec:	0004ae40 	call	4ae4 <printf>
    1af0:	00000506 	br	1b08 <main+0xcc>
    1af4:	e0bffe17 	ldw	r2,-8(fp)
    1af8:	100b883a 	mov	r5,r2
    1afc:	01000074 	movhi	r4,1
    1b00:	21254404 	addi	r4,r4,-27376
    1b04:	0004ae40 	call	4ae4 <printf>
    1b08:	00880034 	movhi	r2,8192
    1b0c:	e0bffb15 	stw	r2,-20(fp)
    1b10:	e17ffb17 	ldw	r5,-20(fp)
    1b14:	01000074 	movhi	r4,1
    1b18:	21254a04 	addi	r4,r4,-27352
    1b1c:	0004ae40 	call	4ae4 <printf>
    1b20:	e0fffb17 	ldw	r3,-20(fp)
    1b24:	008000b4 	movhi	r2,2
    1b28:	10c00235 	stwio	r3,8(r2)
    1b2c:	0007883a 	mov	r3,zero
    1b30:	008000b4 	movhi	r2,2
    1b34:	10c00335 	stwio	r3,12(r2)
    1b38:	01000074 	movhi	r4,1
    1b3c:	21255504 	addi	r4,r4,-27308
    1b40:	0004bcc0 	call	4bcc <puts>
    1b44:	00018300 	call	1830 <run_interactive_menu>
    1b48:	0005883a 	mov	r2,zero
    1b4c:	e037883a 	mov	sp,fp
    1b50:	dfc00117 	ldw	ra,4(sp)
    1b54:	df000017 	ldw	fp,0(sp)
    1b58:	dec00204 	addi	sp,sp,8
    1b5c:	f800283a 	ret

00001b60 <powf>:
    1b60:	defffa04 	addi	sp,sp,-24
    1b64:	dc800215 	stw	r18,8(sp)
    1b68:	dc400115 	stw	r17,4(sp)
    1b6c:	dc000015 	stw	r16,0(sp)
    1b70:	dfc00515 	stw	ra,20(sp)
    1b74:	dd000415 	stw	r20,16(sp)
    1b78:	dcc00315 	stw	r19,12(sp)
    1b7c:	2021883a 	mov	r16,r4
    1b80:	2823883a 	mov	r17,r5
    1b84:	0001df80 	call	1df8 <__ieee754_powf>
    1b88:	1025883a 	mov	r18,r2
    1b8c:	00800074 	movhi	r2,1
    1b90:	10a66b17 	ldw	r2,-26196(r2)
    1b94:	10bfffe0 	cmpeqi	r2,r2,-1
    1b98:	1000211e 	bne	r2,zero,1c20 <powf+0xc0>
    1b9c:	880b883a 	mov	r5,r17
    1ba0:	8809883a 	mov	r4,r17
    1ba4:	00047440 	call	4744 <__unordsf2>
    1ba8:	10001d1e 	bne	r2,zero,1c20 <powf+0xc0>
    1bac:	800b883a 	mov	r5,r16
    1bb0:	8009883a 	mov	r4,r16
    1bb4:	00047440 	call	4744 <__unordsf2>
    1bb8:	000b883a 	mov	r5,zero
    1bbc:	10007a1e 	bne	r2,zero,1da8 <powf+0x248>
    1bc0:	8009883a 	mov	r4,r16
    1bc4:	0003d200 	call	3d20 <__eqsf2>
    1bc8:	10001e1e 	bne	r2,zero,1c44 <powf+0xe4>
    1bcc:	000b883a 	mov	r5,zero
    1bd0:	8809883a 	mov	r4,r17
    1bd4:	0003d200 	call	3d20 <__eqsf2>
    1bd8:	10007626 	beq	r2,zero,1db4 <powf+0x254>
    1bdc:	01200034 	movhi	r4,32768
    1be0:	213fffc4 	addi	r4,r4,-1
    1be4:	8920703a 	and	r16,r17,r4
    1be8:	015fe034 	movhi	r5,32640
    1bec:	297fffc4 	addi	r5,r5,-1
    1bf0:	8009883a 	mov	r4,r16
    1bf4:	00047440 	call	4744 <__unordsf2>
    1bf8:	1000091e 	bne	r2,zero,1c20 <powf+0xc0>
    1bfc:	015fe034 	movhi	r5,32640
    1c00:	297fffc4 	addi	r5,r5,-1
    1c04:	8009883a 	mov	r4,r16
    1c08:	0003d900 	call	3d90 <__gesf2>
    1c0c:	00800416 	blt	zero,r2,1c20 <powf+0xc0>
    1c10:	000b883a 	mov	r5,zero
    1c14:	8809883a 	mov	r4,r17
    1c18:	0003e480 	call	3e48 <__lesf2>
    1c1c:	10006716 	blt	r2,zero,1dbc <powf+0x25c>
    1c20:	9005883a 	mov	r2,r18
    1c24:	dfc00517 	ldw	ra,20(sp)
    1c28:	dd000417 	ldw	r20,16(sp)
    1c2c:	dcc00317 	ldw	r19,12(sp)
    1c30:	dc800217 	ldw	r18,8(sp)
    1c34:	dc400117 	ldw	r17,4(sp)
    1c38:	dc000017 	ldw	r16,0(sp)
    1c3c:	dec00604 	addi	sp,sp,24
    1c40:	f800283a 	ret
    1c44:	01200034 	movhi	r4,32768
    1c48:	213fffc4 	addi	r4,r4,-1
    1c4c:	9126703a 	and	r19,r18,r4
    1c50:	015fe034 	movhi	r5,32640
    1c54:	297fffc4 	addi	r5,r5,-1
    1c58:	9809883a 	mov	r4,r19
    1c5c:	00047440 	call	4744 <__unordsf2>
    1c60:	1000261e 	bne	r2,zero,1cfc <powf+0x19c>
    1c64:	015fe034 	movhi	r5,32640
    1c68:	297fffc4 	addi	r5,r5,-1
    1c6c:	9809883a 	mov	r4,r19
    1c70:	0003d900 	call	3d90 <__gesf2>
    1c74:	00802116 	blt	zero,r2,1cfc <powf+0x19c>
    1c78:	000b883a 	mov	r5,zero
    1c7c:	9009883a 	mov	r4,r18
    1c80:	0003d200 	call	3d20 <__eqsf2>
    1c84:	103fe61e 	bne	r2,zero,1c20 <powf+0xc0>
    1c88:	04e00034 	movhi	r19,32768
    1c8c:	9cffffc4 	addi	r19,r19,-1
    1c90:	84e0703a 	and	r16,r16,r19
    1c94:	015fe034 	movhi	r5,32640
    1c98:	297fffc4 	addi	r5,r5,-1
    1c9c:	8009883a 	mov	r4,r16
    1ca0:	00047440 	call	4744 <__unordsf2>
    1ca4:	103fde1e 	bne	r2,zero,1c20 <powf+0xc0>
    1ca8:	015fe034 	movhi	r5,32640
    1cac:	297fffc4 	addi	r5,r5,-1
    1cb0:	8009883a 	mov	r4,r16
    1cb4:	0003d900 	call	3d90 <__gesf2>
    1cb8:	00bfd916 	blt	zero,r2,1c20 <powf+0xc0>
    1cbc:	8ce2703a 	and	r17,r17,r19
    1cc0:	015fe034 	movhi	r5,32640
    1cc4:	297fffc4 	addi	r5,r5,-1
    1cc8:	8809883a 	mov	r4,r17
    1ccc:	00047440 	call	4744 <__unordsf2>
    1cd0:	103fd31e 	bne	r2,zero,1c20 <powf+0xc0>
    1cd4:	015fe034 	movhi	r5,32640
    1cd8:	297fffc4 	addi	r5,r5,-1
    1cdc:	8809883a 	mov	r4,r17
    1ce0:	0003d900 	call	3d90 <__gesf2>
    1ce4:	00bfce16 	blt	zero,r2,1c20 <powf+0xc0>
    1ce8:	0004a740 	call	4a74 <__errno>
    1cec:	00c00884 	movi	r3,34
    1cf0:	10c00015 	stw	r3,0(r2)
    1cf4:	0025883a 	mov	r18,zero
    1cf8:	003fc906 	br	1c20 <powf+0xc0>
    1cfc:	04e00034 	movhi	r19,32768
    1d00:	9cffffc4 	addi	r19,r19,-1
    1d04:	84e8703a 	and	r20,r16,r19
    1d08:	015fe034 	movhi	r5,32640
    1d0c:	297fffc4 	addi	r5,r5,-1
    1d10:	a009883a 	mov	r4,r20
    1d14:	00047440 	call	4744 <__unordsf2>
    1d18:	103fc11e 	bne	r2,zero,1c20 <powf+0xc0>
    1d1c:	015fe034 	movhi	r5,32640
    1d20:	297fffc4 	addi	r5,r5,-1
    1d24:	a009883a 	mov	r4,r20
    1d28:	0003d900 	call	3d90 <__gesf2>
    1d2c:	00bfbc16 	blt	zero,r2,1c20 <powf+0xc0>
    1d30:	8ce6703a 	and	r19,r17,r19
    1d34:	015fe034 	movhi	r5,32640
    1d38:	297fffc4 	addi	r5,r5,-1
    1d3c:	9809883a 	mov	r4,r19
    1d40:	00047440 	call	4744 <__unordsf2>
    1d44:	103fcc1e 	bne	r2,zero,1c78 <powf+0x118>
    1d48:	015fe034 	movhi	r5,32640
    1d4c:	297fffc4 	addi	r5,r5,-1
    1d50:	9809883a 	mov	r4,r19
    1d54:	0003d900 	call	3d90 <__gesf2>
    1d58:	00bfc716 	blt	zero,r2,1c78 <powf+0x118>
    1d5c:	900b883a 	mov	r5,r18
    1d60:	9009883a 	mov	r4,r18
    1d64:	00047440 	call	4744 <__unordsf2>
    1d68:	10001b1e 	bne	r2,zero,1dd8 <powf+0x278>
    1d6c:	0004a740 	call	4a74 <__errno>
    1d70:	00c00884 	movi	r3,34
    1d74:	10c00015 	stw	r3,0(r2)
    1d78:	000b883a 	mov	r5,zero
    1d7c:	8009883a 	mov	r4,r16
    1d80:	0003e480 	call	3e48 <__lesf2>
    1d84:	1000120e 	bge	r2,zero,1dd0 <powf+0x270>
    1d88:	8809883a 	mov	r4,r17
    1d8c:	0002a480 	call	2a48 <rintf>
    1d90:	880b883a 	mov	r5,r17
    1d94:	1009883a 	mov	r4,r2
    1d98:	0003d200 	call	3d20 <__eqsf2>
    1d9c:	10000c26 	beq	r2,zero,1dd0 <powf+0x270>
    1da0:	04bfe034 	movhi	r18,65408
    1da4:	003f9e06 	br	1c20 <powf+0xc0>
    1da8:	8809883a 	mov	r4,r17
    1dac:	0003d200 	call	3d20 <__eqsf2>
    1db0:	103f9b1e 	bne	r2,zero,1c20 <powf+0xc0>
    1db4:	048fe034 	movhi	r18,16256
    1db8:	003f9906 	br	1c20 <powf+0xc0>
    1dbc:	0004a740 	call	4a74 <__errno>
    1dc0:	00c00844 	movi	r3,33
    1dc4:	10c00015 	stw	r3,0(r2)
    1dc8:	04bfe034 	movhi	r18,65408
    1dcc:	003f9406 	br	1c20 <powf+0xc0>
    1dd0:	049fe034 	movhi	r18,32640
    1dd4:	003f9206 	br	1c20 <powf+0xc0>
    1dd8:	0004a740 	call	4a74 <__errno>
    1ddc:	00c00844 	movi	r3,33
    1de0:	10c00015 	stw	r3,0(r2)
    1de4:	000b883a 	mov	r5,zero
    1de8:	0009883a 	mov	r4,zero
    1dec:	000392c0 	call	392c <__divsf3>
    1df0:	1025883a 	mov	r18,r2
    1df4:	003f8a06 	br	1c20 <powf+0xc0>

00001df8 <__ieee754_powf>:
    1df8:	00a00034 	movhi	r2,32768
    1dfc:	10bfffc4 	addi	r2,r2,-1
    1e00:	1146703a 	and	r3,r2,r5
    1e04:	18010926 	beq	r3,zero,222c <__ieee754_powf+0x434>
    1e08:	defff004 	addi	sp,sp,-64
    1e0c:	dc800815 	stw	r18,32(sp)
    1e10:	dc000615 	stw	r16,24(sp)
    1e14:	dfc00f15 	stw	ra,60(sp)
    1e18:	1120703a 	and	r16,r2,r4
    1e1c:	df000e15 	stw	fp,56(sp)
    1e20:	ddc00d15 	stw	r23,52(sp)
    1e24:	dd800c15 	stw	r22,48(sp)
    1e28:	dd400b15 	stw	r21,44(sp)
    1e2c:	dd000a15 	stw	r20,40(sp)
    1e30:	dcc00915 	stw	r19,36(sp)
    1e34:	dc400715 	stw	r17,28(sp)
    1e38:	009fe034 	movhi	r2,32640
    1e3c:	2025883a 	mov	r18,r4
    1e40:	14000d0e 	bge	r2,r16,1e78 <__ieee754_powf+0x80>
    1e44:	009ff034 	movhi	r2,32704
    1e48:	dfc00f17 	ldw	ra,60(sp)
    1e4c:	df000e17 	ldw	fp,56(sp)
    1e50:	ddc00d17 	ldw	r23,52(sp)
    1e54:	dd800c17 	ldw	r22,48(sp)
    1e58:	dd400b17 	ldw	r21,44(sp)
    1e5c:	dd000a17 	ldw	r20,40(sp)
    1e60:	dcc00917 	ldw	r19,36(sp)
    1e64:	dc800817 	ldw	r18,32(sp)
    1e68:	dc400717 	ldw	r17,28(sp)
    1e6c:	dc000617 	ldw	r16,24(sp)
    1e70:	dec01004 	addi	sp,sp,64
    1e74:	f800283a 	ret
    1e78:	10c0ee16 	blt	r2,r3,2234 <__ieee754_powf+0x43c>
    1e7c:	2823883a 	mov	r17,r5
    1e80:	2000ef16 	blt	r4,zero,2240 <__ieee754_powf+0x448>
    1e84:	0027883a 	mov	r19,zero
    1e88:	009fe034 	movhi	r2,32640
    1e8c:	1880f826 	beq	r3,r2,2270 <__ieee754_powf+0x478>
    1e90:	008fe034 	movhi	r2,16256
    1e94:	18811326 	beq	r3,r2,22e4 <__ieee754_powf+0x4ec>
    1e98:	00900034 	movhi	r2,16384
    1e9c:	28812126 	beq	r5,r2,2324 <__ieee754_powf+0x52c>
    1ea0:	008fc034 	movhi	r2,16128
    1ea4:	2880fa26 	beq	r5,r2,2290 <__ieee754_powf+0x498>
    1ea8:	00a00034 	movhi	r2,32768
    1eac:	10bfffc4 	addi	r2,r2,-1
    1eb0:	019fe034 	movhi	r6,32640
    1eb4:	2084703a 	and	r2,r4,r2
    1eb8:	81810d26 	beq	r16,r6,22f0 <__ieee754_powf+0x4f8>
    1ebc:	80010c26 	beq	r16,zero,22f0 <__ieee754_powf+0x4f8>
    1ec0:	018fe034 	movhi	r6,16256
    1ec4:	81810a26 	beq	r16,r6,22f0 <__ieee754_powf+0x4f8>
    1ec8:	2024d7fa 	srli	r18,r4,31
    1ecc:	94bfffc4 	addi	r18,r18,-1
    1ed0:	9c8cb03a 	or	r6,r19,r18
    1ed4:	30011926 	beq	r6,zero,233c <__ieee754_powf+0x544>
    1ed8:	01934034 	movhi	r6,19712
    1edc:	30c11d0e 	bge	r6,r3,2354 <__ieee754_powf+0x55c>
    1ee0:	00cfe034 	movhi	r3,16256
    1ee4:	18fffdc4 	addi	r3,r3,-9
    1ee8:	1c02670e 	bge	r3,r16,2888 <__ieee754_powf+0xa90>
    1eec:	00cfe034 	movhi	r3,16256
    1ef0:	18c001c4 	addi	r3,r3,7
    1ef4:	1c010e16 	blt	r3,r16,2330 <__ieee754_powf+0x538>
    1ef8:	014fe034 	movhi	r5,16256
    1efc:	1009883a 	mov	r4,r2
    1f00:	00042b00 	call	42b0 <__subsf3>
    1f04:	014fee74 	movhi	r5,16313
    1f08:	296a8004 	addi	r5,r5,-22016
    1f0c:	1009883a 	mov	r4,r2
    1f10:	1021883a 	mov	r16,r2
    1f14:	0003efc0 	call	3efc <__mulsf3>
    1f18:	014dbb74 	movhi	r5,14061
    1f1c:	8009883a 	mov	r4,r16
    1f20:	29695c04 	addi	r5,r5,-23184
    1f24:	102b883a 	mov	r21,r2
    1f28:	0003efc0 	call	3efc <__mulsf3>
    1f2c:	8009883a 	mov	r4,r16
    1f30:	014fa034 	movhi	r5,16000
    1f34:	1029883a 	mov	r20,r2
    1f38:	0003efc0 	call	3efc <__mulsf3>
    1f3c:	010faaf4 	movhi	r4,16043
    1f40:	100b883a 	mov	r5,r2
    1f44:	212aaac4 	addi	r4,r4,-21845
    1f48:	00042b00 	call	42b0 <__subsf3>
    1f4c:	800b883a 	mov	r5,r16
    1f50:	1009883a 	mov	r4,r2
    1f54:	0003efc0 	call	3efc <__mulsf3>
    1f58:	100b883a 	mov	r5,r2
    1f5c:	010fc034 	movhi	r4,16128
    1f60:	00042b00 	call	42b0 <__subsf3>
    1f64:	800b883a 	mov	r5,r16
    1f68:	8009883a 	mov	r4,r16
    1f6c:	102d883a 	mov	r22,r2
    1f70:	0003efc0 	call	3efc <__mulsf3>
    1f74:	100b883a 	mov	r5,r2
    1f78:	b009883a 	mov	r4,r22
    1f7c:	0003efc0 	call	3efc <__mulsf3>
    1f80:	014fee74 	movhi	r5,16313
    1f84:	296a8ec4 	addi	r5,r5,-21957
    1f88:	1009883a 	mov	r4,r2
    1f8c:	0003efc0 	call	3efc <__mulsf3>
    1f90:	a009883a 	mov	r4,r20
    1f94:	100b883a 	mov	r5,r2
    1f98:	00042b00 	call	42b0 <__subsf3>
    1f9c:	100b883a 	mov	r5,r2
    1fa0:	a809883a 	mov	r4,r21
    1fa4:	1029883a 	mov	r20,r2
    1fa8:	00034c00 	call	34c0 <__addsf3>
    1fac:	013c0004 	movi	r4,-4096
    1fb0:	1108703a 	and	r4,r2,r4
    1fb4:	a80b883a 	mov	r5,r21
    1fb8:	2021883a 	mov	r16,r4
    1fbc:	00042b00 	call	42b0 <__subsf3>
    1fc0:	a009883a 	mov	r4,r20
    1fc4:	100b883a 	mov	r5,r2
    1fc8:	00042b00 	call	42b0 <__subsf3>
    1fcc:	1029883a 	mov	r20,r2
    1fd0:	9cffffc4 	addi	r19,r19,-1
    1fd4:	9ca4b03a 	or	r18,r19,r18
    1fd8:	9001e61e 	bne	r18,zero,2774 <__ieee754_powf+0x97c>
    1fdc:	04afe034 	movhi	r18,49024
    1fe0:	04fc0004 	movi	r19,-4096
    1fe4:	9c66703a 	and	r19,r19,r17
    1fe8:	980b883a 	mov	r5,r19
    1fec:	8809883a 	mov	r4,r17
    1ff0:	00042b00 	call	42b0 <__subsf3>
    1ff4:	800b883a 	mov	r5,r16
    1ff8:	1009883a 	mov	r4,r2
    1ffc:	0003efc0 	call	3efc <__mulsf3>
    2000:	880b883a 	mov	r5,r17
    2004:	a009883a 	mov	r4,r20
    2008:	102b883a 	mov	r21,r2
    200c:	0003efc0 	call	3efc <__mulsf3>
    2010:	a809883a 	mov	r4,r21
    2014:	100b883a 	mov	r5,r2
    2018:	00034c00 	call	34c0 <__addsf3>
    201c:	980b883a 	mov	r5,r19
    2020:	8009883a 	mov	r4,r16
    2024:	1023883a 	mov	r17,r2
    2028:	0003efc0 	call	3efc <__mulsf3>
    202c:	100b883a 	mov	r5,r2
    2030:	8809883a 	mov	r4,r17
    2034:	1029883a 	mov	r20,r2
    2038:	00034c00 	call	34c0 <__addsf3>
    203c:	1027883a 	mov	r19,r2
    2040:	00a00034 	movhi	r2,32768
    2044:	10bfffc4 	addi	r2,r2,-1
    2048:	9807883a 	mov	r3,r19
    204c:	a02b883a 	mov	r21,r20
    2050:	982d883a 	mov	r22,r19
    2054:	14e0703a 	and	r16,r2,r19
    2058:	04c1c80e 	bge	zero,r19,277c <__ieee754_powf+0x984>
    205c:	0090c034 	movhi	r2,17152
    2060:	14020016 	blt	r2,r16,2864 <__ieee754_powf+0xa6c>
    2064:	8081f326 	beq	r16,r2,2834 <__ieee754_powf+0xa3c>
    2068:	008fc034 	movhi	r2,16128
    206c:	1401cd16 	blt	r2,r16,27a4 <__ieee754_powf+0x9ac>
    2070:	0029883a 	mov	r20,zero
    2074:	0027883a 	mov	r19,zero
    2078:	043c0004 	movi	r16,-4096
    207c:	1c20703a 	and	r16,r3,r16
    2080:	014fcc74 	movhi	r5,16177
    2084:	8009883a 	mov	r4,r16
    2088:	295c8004 	addi	r5,r5,29184
    208c:	0003efc0 	call	3efc <__mulsf3>
    2090:	a80b883a 	mov	r5,r21
    2094:	8009883a 	mov	r4,r16
    2098:	102d883a 	mov	r22,r2
    209c:	00042b00 	call	42b0 <__subsf3>
    20a0:	8809883a 	mov	r4,r17
    20a4:	100b883a 	mov	r5,r2
    20a8:	00042b00 	call	42b0 <__subsf3>
    20ac:	014fcc74 	movhi	r5,16177
    20b0:	295c8604 	addi	r5,r5,29208
    20b4:	1009883a 	mov	r4,r2
    20b8:	0003efc0 	call	3efc <__mulsf3>
    20bc:	014d7034 	movhi	r5,13760
    20c0:	8009883a 	mov	r4,r16
    20c4:	296fa304 	addi	r5,r5,-16756
    20c8:	1023883a 	mov	r17,r2
    20cc:	0003efc0 	call	3efc <__mulsf3>
    20d0:	8809883a 	mov	r4,r17
    20d4:	100b883a 	mov	r5,r2
    20d8:	00034c00 	call	34c0 <__addsf3>
    20dc:	b009883a 	mov	r4,r22
    20e0:	100b883a 	mov	r5,r2
    20e4:	1023883a 	mov	r17,r2
    20e8:	00034c00 	call	34c0 <__addsf3>
    20ec:	b00b883a 	mov	r5,r22
    20f0:	1009883a 	mov	r4,r2
    20f4:	1021883a 	mov	r16,r2
    20f8:	00042b00 	call	42b0 <__subsf3>
    20fc:	8809883a 	mov	r4,r17
    2100:	100b883a 	mov	r5,r2
    2104:	00042b00 	call	42b0 <__subsf3>
    2108:	800b883a 	mov	r5,r16
    210c:	8009883a 	mov	r4,r16
    2110:	102b883a 	mov	r21,r2
    2114:	0003efc0 	call	3efc <__mulsf3>
    2118:	014cccb4 	movhi	r5,13106
    211c:	296ed304 	addi	r5,r5,-17588
    2120:	1009883a 	mov	r4,r2
    2124:	1023883a 	mov	r17,r2
    2128:	0003efc0 	call	3efc <__mulsf3>
    212c:	014d77b4 	movhi	r5,13790
    2130:	297a8384 	addi	r5,r5,-5618
    2134:	1009883a 	mov	r4,r2
    2138:	00042b00 	call	42b0 <__subsf3>
    213c:	880b883a 	mov	r5,r17
    2140:	1009883a 	mov	r4,r2
    2144:	0003efc0 	call	3efc <__mulsf3>
    2148:	014e22f4 	movhi	r5,14475
    214c:	296cd544 	addi	r5,r5,-19627
    2150:	1009883a 	mov	r4,r2
    2154:	00034c00 	call	34c0 <__addsf3>
    2158:	880b883a 	mov	r5,r17
    215c:	1009883a 	mov	r4,r2
    2160:	0003efc0 	call	3efc <__mulsf3>
    2164:	014ecdb4 	movhi	r5,15158
    2168:	2942d844 	addi	r5,r5,2913
    216c:	1009883a 	mov	r4,r2
    2170:	00042b00 	call	42b0 <__subsf3>
    2174:	880b883a 	mov	r5,r17
    2178:	1009883a 	mov	r4,r2
    217c:	0003efc0 	call	3efc <__mulsf3>
    2180:	014f8af4 	movhi	r5,15915
    2184:	296aaac4 	addi	r5,r5,-21845
    2188:	1009883a 	mov	r4,r2
    218c:	00034c00 	call	34c0 <__addsf3>
    2190:	880b883a 	mov	r5,r17
    2194:	1009883a 	mov	r4,r2
    2198:	0003efc0 	call	3efc <__mulsf3>
    219c:	100b883a 	mov	r5,r2
    21a0:	8009883a 	mov	r4,r16
    21a4:	00042b00 	call	42b0 <__subsf3>
    21a8:	100b883a 	mov	r5,r2
    21ac:	8009883a 	mov	r4,r16
    21b0:	1023883a 	mov	r17,r2
    21b4:	0003efc0 	call	3efc <__mulsf3>
    21b8:	8809883a 	mov	r4,r17
    21bc:	01500034 	movhi	r5,16384
    21c0:	102d883a 	mov	r22,r2
    21c4:	00042b00 	call	42b0 <__subsf3>
    21c8:	100b883a 	mov	r5,r2
    21cc:	b009883a 	mov	r4,r22
    21d0:	000392c0 	call	392c <__divsf3>
    21d4:	a80b883a 	mov	r5,r21
    21d8:	8009883a 	mov	r4,r16
    21dc:	1023883a 	mov	r17,r2
    21e0:	0003efc0 	call	3efc <__mulsf3>
    21e4:	a80b883a 	mov	r5,r21
    21e8:	1009883a 	mov	r4,r2
    21ec:	00034c00 	call	34c0 <__addsf3>
    21f0:	100b883a 	mov	r5,r2
    21f4:	8809883a 	mov	r4,r17
    21f8:	00042b00 	call	42b0 <__subsf3>
    21fc:	800b883a 	mov	r5,r16
    2200:	1009883a 	mov	r4,r2
    2204:	00042b00 	call	42b0 <__subsf3>
    2208:	010fe034 	movhi	r4,16256
    220c:	100b883a 	mov	r5,r2
    2210:	00042b00 	call	42b0 <__subsf3>
    2214:	a089883a 	add	r4,r20,r2
    2218:	2007d5fa 	srai	r3,r4,23
    221c:	00c1b10e 	bge	zero,r3,28e4 <__ieee754_powf+0xaec>
    2220:	900b883a 	mov	r5,r18
    2224:	0003efc0 	call	3efc <__mulsf3>
    2228:	003f0706 	br	1e48 <__ieee754_powf+0x50>
    222c:	008fe034 	movhi	r2,16256
    2230:	f800283a 	ret
    2234:	008fe034 	movhi	r2,16256
    2238:	80bf0326 	beq	r16,r2,1e48 <__ieee754_powf+0x50>
    223c:	003f0106 	br	1e44 <__ieee754_powf+0x4c>
    2240:	0092e034 	movhi	r2,19328
    2244:	1880100e 	bge	r3,r2,2288 <__ieee754_powf+0x490>
    2248:	008fe034 	movhi	r2,16256
    224c:	18800616 	blt	r3,r2,2268 <__ieee754_powf+0x470>
    2250:	1805d5fa 	srai	r2,r3,23
    2254:	01802584 	movi	r6,150
    2258:	3085c83a 	sub	r2,r6,r2
    225c:	188dd83a 	sra	r6,r3,r2
    2260:	3084983a 	sll	r2,r6,r2
    2264:	10c13326 	beq	r2,r3,2734 <__ieee754_powf+0x93c>
    2268:	0027883a 	mov	r19,zero
    226c:	003f0806 	br	1e90 <__ieee754_powf+0x98>
    2270:	008fe034 	movhi	r2,16256
    2274:	80801926 	beq	r16,r2,22dc <__ieee754_powf+0x4e4>
    2278:	1400220e 	bge	r2,r16,2304 <__ieee754_powf+0x50c>
    227c:	28002d16 	blt	r5,zero,2334 <__ieee754_powf+0x53c>
    2280:	8805883a 	mov	r2,r17
    2284:	003ef006 	br	1e48 <__ieee754_powf+0x50>
    2288:	04c00084 	movi	r19,2
    228c:	003efe06 	br	1e88 <__ieee754_powf+0x90>
    2290:	90012c0e 	bge	r18,zero,2744 <__ieee754_powf+0x94c>
    2294:	00a00034 	movhi	r2,32768
    2298:	10bfffc4 	addi	r2,r2,-1
    229c:	019fe034 	movhi	r6,32640
    22a0:	2084703a 	and	r2,r4,r2
    22a4:	81800226 	beq	r16,r6,22b0 <__ieee754_powf+0x4b8>
    22a8:	803f051e 	bne	r16,zero,1ec0 <__ieee754_powf+0xc8>
    22ac:	903ee60e 	bge	r18,zero,1e48 <__ieee754_powf+0x50>
    22b0:	00f02034 	movhi	r3,49280
    22b4:	80c7883a 	add	r3,r16,r3
    22b8:	1cc6b03a 	or	r3,r3,r19
    22bc:	1801191e 	bne	r3,zero,2724 <__ieee754_powf+0x92c>
    22c0:	100b883a 	mov	r5,r2
    22c4:	1009883a 	mov	r4,r2
    22c8:	00042b00 	call	42b0 <__subsf3>
    22cc:	100b883a 	mov	r5,r2
    22d0:	1009883a 	mov	r4,r2
    22d4:	000392c0 	call	392c <__divsf3>
    22d8:	003edb06 	br	1e48 <__ieee754_powf+0x50>
    22dc:	008fe034 	movhi	r2,16256
    22e0:	003ed906 	br	1e48 <__ieee754_powf+0x50>
    22e4:	28000b16 	blt	r5,zero,2314 <__ieee754_powf+0x51c>
    22e8:	2005883a 	mov	r2,r4
    22ec:	003ed606 	br	1e48 <__ieee754_powf+0x50>
    22f0:	283fee0e 	bge	r5,zero,22ac <__ieee754_powf+0x4b4>
    22f4:	100b883a 	mov	r5,r2
    22f8:	010fe034 	movhi	r4,16256
    22fc:	000392c0 	call	392c <__divsf3>
    2300:	003fea06 	br	22ac <__ieee754_powf+0x4b4>
    2304:	280bd7fa 	srai	r5,r5,31
    2308:	88a0003c 	xorhi	r2,r17,32768
    230c:	1144703a 	and	r2,r2,r5
    2310:	003ecd06 	br	1e48 <__ieee754_powf+0x50>
    2314:	200b883a 	mov	r5,r4
    2318:	010fe034 	movhi	r4,16256
    231c:	000392c0 	call	392c <__divsf3>
    2320:	003ec906 	br	1e48 <__ieee754_powf+0x50>
    2324:	200b883a 	mov	r5,r4
    2328:	0003efc0 	call	3efc <__mulsf3>
    232c:	003ec606 	br	1e48 <__ieee754_powf+0x50>
    2330:	01415616 	blt	zero,r5,288c <__ieee754_powf+0xa94>
    2334:	0005883a 	mov	r2,zero
    2338:	003ec306 	br	1e48 <__ieee754_powf+0x50>
    233c:	200b883a 	mov	r5,r4
    2340:	00042b00 	call	42b0 <__subsf3>
    2344:	100b883a 	mov	r5,r2
    2348:	1009883a 	mov	r4,r2
    234c:	000392c0 	call	392c <__divsf3>
    2350:	003ebd06 	br	1e48 <__ieee754_powf+0x50>
    2354:	211fe02c 	andhi	r4,r4,32640
    2358:	2001341e 	bne	r4,zero,282c <__ieee754_powf+0xa34>
    235c:	0152e034 	movhi	r5,19328
    2360:	1009883a 	mov	r4,r2
    2364:	0003efc0 	call	3efc <__mulsf3>
    2368:	1021883a 	mov	r16,r2
    236c:	00fffa04 	movi	r3,-24
    2370:	802fd5fa 	srai	r23,r16,23
    2374:	00802034 	movhi	r2,128
    2378:	10bfffc4 	addi	r2,r2,-1
    237c:	01000774 	movhi	r4,29
    2380:	bdffe044 	addi	r23,r23,-127
    2384:	8084703a 	and	r2,r16,r2
    2388:	21311c44 	addi	r4,r4,-15247
    238c:	b8cd883a 	add	r6,r23,r3
    2390:	15cfe034 	orhi	r23,r2,16256
    2394:	2081200e 	bge	r4,r2,2818 <__ieee754_powf+0xa20>
    2398:	010017b4 	movhi	r4,94
    239c:	212cf584 	addi	r4,r4,-19498
    23a0:	20813f0e 	bge	r4,r2,28a0 <__ieee754_powf+0xaa8>
    23a4:	00bfe034 	movhi	r2,65408
    23a8:	31800044 	addi	r6,r6,1
    23ac:	b8af883a 	add	r23,r23,r2
    23b0:	0015883a 	mov	r10,zero
    23b4:	000f883a 	mov	r7,zero
    23b8:	d8000215 	stw	zero,8(sp)
    23bc:	020fe034 	movhi	r8,16256
    23c0:	400b883a 	mov	r5,r8
    23c4:	b809883a 	mov	r4,r23
    23c8:	da800515 	stw	r10,20(sp)
    23cc:	d9c00415 	stw	r7,16(sp)
    23d0:	d9800315 	stw	r6,12(sp)
    23d4:	da000015 	stw	r8,0(sp)
    23d8:	00042b00 	call	42b0 <__subsf3>
    23dc:	da000017 	ldw	r8,0(sp)
    23e0:	b809883a 	mov	r4,r23
    23e4:	102d883a 	mov	r22,r2
    23e8:	400b883a 	mov	r5,r8
    23ec:	da000115 	stw	r8,4(sp)
    23f0:	00034c00 	call	34c0 <__addsf3>
    23f4:	100b883a 	mov	r5,r2
    23f8:	010fe034 	movhi	r4,16256
    23fc:	000392c0 	call	392c <__divsf3>
    2400:	b821d07a 	srai	r16,r23,1
    2404:	b009883a 	mov	r4,r22
    2408:	100b883a 	mov	r5,r2
    240c:	d8800015 	stw	r2,0(sp)
    2410:	0003efc0 	call	3efc <__mulsf3>
    2414:	1039883a 	mov	fp,r2
    2418:	84080034 	orhi	r16,r16,8192
    241c:	00800134 	movhi	r2,4
    2420:	80a1883a 	add	r16,r16,r2
    2424:	d8800217 	ldw	r2,8(sp)
    2428:	053c0004 	movi	r20,-4096
    242c:	a72a703a 	and	r21,r20,fp
    2430:	80a1883a 	add	r16,r16,r2
    2434:	800b883a 	mov	r5,r16
    2438:	a809883a 	mov	r4,r21
    243c:	0003efc0 	call	3efc <__mulsf3>
    2440:	b009883a 	mov	r4,r22
    2444:	100b883a 	mov	r5,r2
    2448:	00042b00 	call	42b0 <__subsf3>
    244c:	da000117 	ldw	r8,4(sp)
    2450:	8009883a 	mov	r4,r16
    2454:	102d883a 	mov	r22,r2
    2458:	400b883a 	mov	r5,r8
    245c:	00042b00 	call	42b0 <__subsf3>
    2460:	100b883a 	mov	r5,r2
    2464:	b809883a 	mov	r4,r23
    2468:	00042b00 	call	42b0 <__subsf3>
    246c:	a80b883a 	mov	r5,r21
    2470:	1009883a 	mov	r4,r2
    2474:	0003efc0 	call	3efc <__mulsf3>
    2478:	b009883a 	mov	r4,r22
    247c:	100b883a 	mov	r5,r2
    2480:	00042b00 	call	42b0 <__subsf3>
    2484:	da400017 	ldw	r9,0(sp)
    2488:	1009883a 	mov	r4,r2
    248c:	480b883a 	mov	r5,r9
    2490:	0003efc0 	call	3efc <__mulsf3>
    2494:	e00b883a 	mov	r5,fp
    2498:	e009883a 	mov	r4,fp
    249c:	102d883a 	mov	r22,r2
    24a0:	0003efc0 	call	3efc <__mulsf3>
    24a4:	014f9534 	movhi	r5,15956
    24a8:	297c5084 	addi	r5,r5,-3774
    24ac:	1009883a 	mov	r4,r2
    24b0:	1021883a 	mov	r16,r2
    24b4:	0003efc0 	call	3efc <__mulsf3>
    24b8:	014f9b34 	movhi	r5,15980
    24bc:	294c9544 	addi	r5,r5,12885
    24c0:	1009883a 	mov	r4,r2
    24c4:	00034c00 	call	34c0 <__addsf3>
    24c8:	800b883a 	mov	r5,r16
    24cc:	1009883a 	mov	r4,r2
    24d0:	0003efc0 	call	3efc <__mulsf3>
    24d4:	014fa334 	movhi	r5,16012
    24d8:	2968c144 	addi	r5,r5,-23803
    24dc:	1009883a 	mov	r4,r2
    24e0:	00034c00 	call	34c0 <__addsf3>
    24e4:	800b883a 	mov	r5,r16
    24e8:	1009883a 	mov	r4,r2
    24ec:	0003efc0 	call	3efc <__mulsf3>
    24f0:	014faaf4 	movhi	r5,16043
    24f4:	296aaac4 	addi	r5,r5,-21845
    24f8:	1009883a 	mov	r4,r2
    24fc:	00034c00 	call	34c0 <__addsf3>
    2500:	800b883a 	mov	r5,r16
    2504:	1009883a 	mov	r4,r2
    2508:	0003efc0 	call	3efc <__mulsf3>
    250c:	014fb6f4 	movhi	r5,16091
    2510:	295b6dc4 	addi	r5,r5,28087
    2514:	1009883a 	mov	r4,r2
    2518:	00034c00 	call	34c0 <__addsf3>
    251c:	800b883a 	mov	r5,r16
    2520:	1009883a 	mov	r4,r2
    2524:	0003efc0 	call	3efc <__mulsf3>
    2528:	014fc6b4 	movhi	r5,16154
    252c:	29666684 	addi	r5,r5,-26214
    2530:	1009883a 	mov	r4,r2
    2534:	00034c00 	call	34c0 <__addsf3>
    2538:	800b883a 	mov	r5,r16
    253c:	8009883a 	mov	r4,r16
    2540:	d8800015 	stw	r2,0(sp)
    2544:	0003efc0 	call	3efc <__mulsf3>
    2548:	d8c00017 	ldw	r3,0(sp)
    254c:	100b883a 	mov	r5,r2
    2550:	1809883a 	mov	r4,r3
    2554:	0003efc0 	call	3efc <__mulsf3>
    2558:	a80b883a 	mov	r5,r21
    255c:	e009883a 	mov	r4,fp
    2560:	1021883a 	mov	r16,r2
    2564:	00034c00 	call	34c0 <__addsf3>
    2568:	b00b883a 	mov	r5,r22
    256c:	1009883a 	mov	r4,r2
    2570:	0003efc0 	call	3efc <__mulsf3>
    2574:	800b883a 	mov	r5,r16
    2578:	1009883a 	mov	r4,r2
    257c:	00034c00 	call	34c0 <__addsf3>
    2580:	a80b883a 	mov	r5,r21
    2584:	a809883a 	mov	r4,r21
    2588:	d8800015 	stw	r2,0(sp)
    258c:	0003efc0 	call	3efc <__mulsf3>
    2590:	01501034 	movhi	r5,16448
    2594:	1009883a 	mov	r4,r2
    2598:	d8800215 	stw	r2,8(sp)
    259c:	00034c00 	call	34c0 <__addsf3>
    25a0:	da000017 	ldw	r8,0(sp)
    25a4:	1009883a 	mov	r4,r2
    25a8:	400b883a 	mov	r5,r8
    25ac:	da000115 	stw	r8,4(sp)
    25b0:	00034c00 	call	34c0 <__addsf3>
    25b4:	1520703a 	and	r16,r2,r20
    25b8:	800b883a 	mov	r5,r16
    25bc:	a809883a 	mov	r4,r21
    25c0:	0003efc0 	call	3efc <__mulsf3>
    25c4:	8009883a 	mov	r4,r16
    25c8:	01501034 	movhi	r5,16448
    25cc:	d8800015 	stw	r2,0(sp)
    25d0:	00042b00 	call	42b0 <__subsf3>
    25d4:	da400217 	ldw	r9,8(sp)
    25d8:	1009883a 	mov	r4,r2
    25dc:	480b883a 	mov	r5,r9
    25e0:	00042b00 	call	42b0 <__subsf3>
    25e4:	da000117 	ldw	r8,4(sp)
    25e8:	100b883a 	mov	r5,r2
    25ec:	4009883a 	mov	r4,r8
    25f0:	00042b00 	call	42b0 <__subsf3>
    25f4:	e00b883a 	mov	r5,fp
    25f8:	1009883a 	mov	r4,r2
    25fc:	0003efc0 	call	3efc <__mulsf3>
    2600:	800b883a 	mov	r5,r16
    2604:	b009883a 	mov	r4,r22
    2608:	102b883a 	mov	r21,r2
    260c:	0003efc0 	call	3efc <__mulsf3>
    2610:	a809883a 	mov	r4,r21
    2614:	100b883a 	mov	r5,r2
    2618:	00034c00 	call	34c0 <__addsf3>
    261c:	d8c00017 	ldw	r3,0(sp)
    2620:	100b883a 	mov	r5,r2
    2624:	102b883a 	mov	r21,r2
    2628:	1809883a 	mov	r4,r3
    262c:	00034c00 	call	34c0 <__addsf3>
    2630:	1520703a 	and	r16,r2,r20
    2634:	014fddb4 	movhi	r5,16246
    2638:	8009883a 	mov	r4,r16
    263c:	294e0004 	addi	r5,r5,14336
    2640:	0003efc0 	call	3efc <__mulsf3>
    2644:	d8c00017 	ldw	r3,0(sp)
    2648:	8009883a 	mov	r4,r16
    264c:	102d883a 	mov	r22,r2
    2650:	180b883a 	mov	r5,r3
    2654:	00042b00 	call	42b0 <__subsf3>
    2658:	a809883a 	mov	r4,r21
    265c:	100b883a 	mov	r5,r2
    2660:	00042b00 	call	42b0 <__subsf3>
    2664:	014fddb4 	movhi	r5,16246
    2668:	294e13c4 	addi	r5,r5,14415
    266c:	1009883a 	mov	r4,r2
    2670:	0003efc0 	call	3efc <__mulsf3>
    2674:	014da7b4 	movhi	r5,13982
    2678:	8009883a 	mov	r4,r16
    267c:	2970e804 	addi	r5,r5,-15456
    2680:	102b883a 	mov	r21,r2
    2684:	0003efc0 	call	3efc <__mulsf3>
    2688:	a809883a 	mov	r4,r21
    268c:	100b883a 	mov	r5,r2
    2690:	00034c00 	call	34c0 <__addsf3>
    2694:	d9c00417 	ldw	r7,16(sp)
    2698:	1009883a 	mov	r4,r2
    269c:	380b883a 	mov	r5,r7
    26a0:	00034c00 	call	34c0 <__addsf3>
    26a4:	d9800317 	ldw	r6,12(sp)
    26a8:	102b883a 	mov	r21,r2
    26ac:	3009883a 	mov	r4,r6
    26b0:	00048000 	call	4800 <__floatsisf>
    26b4:	a80b883a 	mov	r5,r21
    26b8:	b009883a 	mov	r4,r22
    26bc:	1021883a 	mov	r16,r2
    26c0:	00034c00 	call	34c0 <__addsf3>
    26c4:	da800517 	ldw	r10,20(sp)
    26c8:	1009883a 	mov	r4,r2
    26cc:	500b883a 	mov	r5,r10
    26d0:	da800015 	stw	r10,0(sp)
    26d4:	00034c00 	call	34c0 <__addsf3>
    26d8:	800b883a 	mov	r5,r16
    26dc:	1009883a 	mov	r4,r2
    26e0:	00034c00 	call	34c0 <__addsf3>
    26e4:	1508703a 	and	r4,r2,r20
    26e8:	800b883a 	mov	r5,r16
    26ec:	2021883a 	mov	r16,r4
    26f0:	00042b00 	call	42b0 <__subsf3>
    26f4:	da800017 	ldw	r10,0(sp)
    26f8:	1009883a 	mov	r4,r2
    26fc:	500b883a 	mov	r5,r10
    2700:	00042b00 	call	42b0 <__subsf3>
    2704:	b00b883a 	mov	r5,r22
    2708:	1009883a 	mov	r4,r2
    270c:	00042b00 	call	42b0 <__subsf3>
    2710:	100b883a 	mov	r5,r2
    2714:	a809883a 	mov	r4,r21
    2718:	00042b00 	call	42b0 <__subsf3>
    271c:	1029883a 	mov	r20,r2
    2720:	003e2b06 	br	1fd0 <__ieee754_powf+0x1d8>
    2724:	9cc00058 	cmpnei	r19,r19,1
    2728:	983dc71e 	bne	r19,zero,1e48 <__ieee754_powf+0x50>
    272c:	10a0003c 	xorhi	r2,r2,32768
    2730:	003dc506 	br	1e48 <__ieee754_powf+0x50>
    2734:	3180004c 	andi	r6,r6,1
    2738:	04c00084 	movi	r19,2
    273c:	99a7c83a 	sub	r19,r19,r6
    2740:	003dd306 	br	1e90 <__ieee754_powf+0x98>
    2744:	dfc00f17 	ldw	ra,60(sp)
    2748:	df000e17 	ldw	fp,56(sp)
    274c:	ddc00d17 	ldw	r23,52(sp)
    2750:	dd800c17 	ldw	r22,48(sp)
    2754:	dd400b17 	ldw	r21,44(sp)
    2758:	dd000a17 	ldw	r20,40(sp)
    275c:	dcc00917 	ldw	r19,36(sp)
    2760:	dc800817 	ldw	r18,32(sp)
    2764:	dc400717 	ldw	r17,28(sp)
    2768:	dc000617 	ldw	r16,24(sp)
    276c:	dec01004 	addi	sp,sp,64
    2770:	00028f81 	jmpi	28f8 <__ieee754_sqrtf>
    2774:	048fe034 	movhi	r18,16256
    2778:	003e1906 	br	1fe0 <__ieee754_powf+0x1e8>
    277c:	0090c5b4 	movhi	r2,17174
    2780:	14004f16 	blt	r2,r16,28c0 <__ieee754_powf+0xac8>
    2784:	80be381e 	bne	r16,r2,2068 <__ieee754_powf+0x270>
    2788:	a00b883a 	mov	r5,r20
    278c:	9809883a 	mov	r4,r19
    2790:	00042b00 	call	42b0 <__subsf3>
    2794:	880b883a 	mov	r5,r17
    2798:	1009883a 	mov	r4,r2
    279c:	0003d900 	call	3d90 <__gesf2>
    27a0:	1000470e 	bge	r2,zero,28c0 <__ieee754_powf+0xac8>
    27a4:	8005d5fa 	srai	r2,r16,23
    27a8:	00c02034 	movhi	r3,128
    27ac:	10bfe084 	addi	r2,r2,-126
    27b0:	1887d83a 	sra	r3,r3,r2
    27b4:	00802034 	movhi	r2,128
    27b8:	10bfffc4 	addi	r2,r2,-1
    27bc:	1cc7883a 	add	r3,r3,r19
    27c0:	1809d5fa 	srai	r4,r3,23
    27c4:	18a6703a 	and	r19,r3,r2
    27c8:	9cc02034 	orhi	r19,r19,128
    27cc:	21003fcc 	andi	r4,r4,255
    27d0:	213fe044 	addi	r4,r4,-127
    27d4:	110bd83a 	sra	r5,r2,r4
    27d8:	008005c4 	movi	r2,23
    27dc:	1109c83a 	sub	r4,r2,r4
    27e0:	014a303a 	nor	r5,zero,r5
    27e4:	9927d83a 	sra	r19,r19,r4
    27e8:	28ca703a 	and	r5,r5,r3
    27ec:	b000010e 	bge	r22,zero,27f4 <__ieee754_powf+0x9fc>
    27f0:	04e7c83a 	sub	r19,zero,r19
    27f4:	a009883a 	mov	r4,r20
    27f8:	00042b00 	call	42b0 <__subsf3>
    27fc:	100b883a 	mov	r5,r2
    2800:	8809883a 	mov	r4,r17
    2804:	102b883a 	mov	r21,r2
    2808:	00034c00 	call	34c0 <__addsf3>
    280c:	982895fa 	slli	r20,r19,23
    2810:	1007883a 	mov	r3,r2
    2814:	003e1806 	br	2078 <__ieee754_powf+0x280>
    2818:	0015883a 	mov	r10,zero
    281c:	000f883a 	mov	r7,zero
    2820:	d8000215 	stw	zero,8(sp)
    2824:	020fe034 	movhi	r8,16256
    2828:	003ee506 	br	23c0 <__ieee754_powf+0x5c8>
    282c:	0007883a 	mov	r3,zero
    2830:	003ecf06 	br	2370 <__ieee754_powf+0x578>
    2834:	014cce74 	movhi	r5,13113
    2838:	296a8f04 	addi	r5,r5,-21956
    283c:	8809883a 	mov	r4,r17
    2840:	00034c00 	call	34c0 <__addsf3>
    2844:	a00b883a 	mov	r5,r20
    2848:	9809883a 	mov	r4,r19
    284c:	102b883a 	mov	r21,r2
    2850:	00042b00 	call	42b0 <__subsf3>
    2854:	100b883a 	mov	r5,r2
    2858:	a809883a 	mov	r4,r21
    285c:	0003d900 	call	3d90 <__gesf2>
    2860:	00bfd00e 	bge	zero,r2,27a4 <__ieee754_powf+0x9ac>
    2864:	015c52b4 	movhi	r5,29002
    2868:	9009883a 	mov	r4,r18
    286c:	297cb284 	addi	r5,r5,-3382
    2870:	0003efc0 	call	3efc <__mulsf3>
    2874:	015c52b4 	movhi	r5,29002
    2878:	297cb284 	addi	r5,r5,-3382
    287c:	1009883a 	mov	r4,r2
    2880:	0003efc0 	call	3efc <__mulsf3>
    2884:	003d7006 	br	1e48 <__ieee754_powf+0x50>
    2888:	283eaa0e 	bge	r5,zero,2334 <__ieee754_powf+0x53c>
    288c:	015c52b4 	movhi	r5,29002
    2890:	297cb284 	addi	r5,r5,-3382
    2894:	2809883a 	mov	r4,r5
    2898:	0003efc0 	call	3efc <__mulsf3>
    289c:	003d6a06 	br	1e48 <__ieee754_powf+0x50>
    28a0:	028fc5b4 	movhi	r10,16150
    28a4:	01cd74b4 	movhi	r7,13778
    28a8:	00800834 	movhi	r2,32
    28ac:	52b00004 	addi	r10,r10,-16384
    28b0:	39f3f704 	addi	r7,r7,-12324
    28b4:	d8800215 	stw	r2,8(sp)
    28b8:	020ff034 	movhi	r8,16320
    28bc:	003ec006 	br	23c0 <__ieee754_powf+0x5c8>
    28c0:	014368b4 	movhi	r5,3490
    28c4:	9009883a 	mov	r4,r18
    28c8:	29509804 	addi	r5,r5,16992
    28cc:	0003efc0 	call	3efc <__mulsf3>
    28d0:	014368b4 	movhi	r5,3490
    28d4:	29509804 	addi	r5,r5,16992
    28d8:	1009883a 	mov	r4,r2
    28dc:	0003efc0 	call	3efc <__mulsf3>
    28e0:	003d5906 	br	1e48 <__ieee754_powf+0x50>
    28e4:	1009883a 	mov	r4,r2
    28e8:	980b883a 	mov	r5,r19
    28ec:	0002b700 	call	2b70 <scalbnf>
    28f0:	1009883a 	mov	r4,r2
    28f4:	003e4a06 	br	2220 <__ieee754_powf+0x428>

000028f8 <__ieee754_sqrtf>:
    28f8:	00a00034 	movhi	r2,32768
    28fc:	defffe04 	addi	sp,sp,-8
    2900:	10bfffc4 	addi	r2,r2,-1
    2904:	dc000015 	stw	r16,0(sp)
    2908:	dfc00115 	stw	ra,4(sp)
    290c:	1104703a 	and	r2,r2,r4
    2910:	00dfe034 	movhi	r3,32640
    2914:	2021883a 	mov	r16,r4
    2918:	200b883a 	mov	r5,r4
    291c:	10c0362e 	bgeu	r2,r3,29f8 <__ieee754_sqrtf+0x100>
    2920:	10003026 	beq	r2,zero,29e4 <__ieee754_sqrtf+0xec>
    2924:	2005883a 	mov	r2,r4
    2928:	20003d16 	blt	r4,zero,2a20 <__ieee754_sqrtf+0x128>
    292c:	211fe02c 	andhi	r4,r4,32640
    2930:	8007d5fa 	srai	r3,r16,23
    2934:	2000081e 	bne	r4,zero,2958 <__ieee754_sqrtf+0x60>
    2938:	8400202c 	andhi	r16,r16,128
    293c:	8000401e 	bne	r16,zero,2a40 <__ieee754_sqrtf+0x148>
    2940:	1085883a 	add	r2,r2,r2
    2944:	1100202c 	andhi	r4,r2,128
    2948:	800b883a 	mov	r5,r16
    294c:	84000044 	addi	r16,r16,1
    2950:	203ffb26 	beq	r4,zero,2940 <__ieee754_sqrtf+0x48>
    2954:	1947c83a 	sub	r3,r3,r5
    2958:	01002034 	movhi	r4,128
    295c:	213fffc4 	addi	r4,r4,-1
    2960:	1104703a 	and	r2,r2,r4
    2964:	18ffe044 	addi	r3,r3,-127
    2968:	11002034 	orhi	r4,r2,128
    296c:	1940004c 	andi	r5,r3,1
    2970:	2105883a 	add	r2,r4,r4
    2974:	2800281e 	bne	r5,zero,2a18 <__ieee754_sqrtf+0x120>
    2978:	1821d07a 	srai	r16,r3,1
    297c:	01000644 	movi	r4,25
    2980:	000f883a 	mov	r7,zero
    2984:	000d883a 	mov	r6,zero
    2988:	00c04034 	movhi	r3,256
    298c:	30cb883a 	add	r5,r6,r3
    2990:	213fffc4 	addi	r4,r4,-1
    2994:	11400316 	blt	r2,r5,29a4 <__ieee754_sqrtf+0xac>
    2998:	28cd883a 	add	r6,r5,r3
    299c:	1145c83a 	sub	r2,r2,r5
    29a0:	38cf883a 	add	r7,r7,r3
    29a4:	1806d07a 	srli	r3,r3,1
    29a8:	1085883a 	add	r2,r2,r2
    29ac:	203ff71e 	bne	r4,zero,298c <__ieee754_sqrtf+0x94>
    29b0:	10000326 	beq	r2,zero,29c0 <__ieee754_sqrtf+0xc8>
    29b4:	39c00044 	addi	r7,r7,1
    29b8:	00bfff84 	movi	r2,-2
    29bc:	388e703a 	and	r7,r7,r2
    29c0:	380fd07a 	srai	r7,r7,1
    29c4:	800495fa 	slli	r2,r16,23
    29c8:	040fc034 	movhi	r16,16128
    29cc:	3c21883a 	add	r16,r7,r16
    29d0:	1405883a 	add	r2,r2,r16
    29d4:	dfc00117 	ldw	ra,4(sp)
    29d8:	dc000017 	ldw	r16,0(sp)
    29dc:	dec00204 	addi	sp,sp,8
    29e0:	f800283a 	ret
    29e4:	2005883a 	mov	r2,r4
    29e8:	dfc00117 	ldw	ra,4(sp)
    29ec:	dc000017 	ldw	r16,0(sp)
    29f0:	dec00204 	addi	sp,sp,8
    29f4:	f800283a 	ret
    29f8:	0003efc0 	call	3efc <__mulsf3>
    29fc:	800b883a 	mov	r5,r16
    2a00:	1009883a 	mov	r4,r2
    2a04:	00034c00 	call	34c0 <__addsf3>
    2a08:	dfc00117 	ldw	ra,4(sp)
    2a0c:	dc000017 	ldw	r16,0(sp)
    2a10:	dec00204 	addi	sp,sp,8
    2a14:	f800283a 	ret
    2a18:	200490ba 	slli	r2,r4,2
    2a1c:	003fd606 	br	2978 <__ieee754_sqrtf+0x80>
    2a20:	00042b00 	call	42b0 <__subsf3>
    2a24:	100b883a 	mov	r5,r2
    2a28:	1009883a 	mov	r4,r2
    2a2c:	000392c0 	call	392c <__divsf3>
    2a30:	dfc00117 	ldw	ra,4(sp)
    2a34:	dc000017 	ldw	r16,0(sp)
    2a38:	dec00204 	addi	sp,sp,8
    2a3c:	f800283a 	ret
    2a40:	017fffc4 	movi	r5,-1
    2a44:	003fc306 	br	2954 <__ieee754_sqrtf+0x5c>

00002a48 <rintf>:
    2a48:	defffb04 	addi	sp,sp,-20
    2a4c:	dc000115 	stw	r16,4(sp)
    2a50:	04200034 	movhi	r16,32768
    2a54:	843fffc4 	addi	r16,r16,-1
    2a58:	8106703a 	and	r3,r16,r4
    2a5c:	180ad5fa 	srli	r5,r3,23
    2a60:	dfc00415 	stw	ra,16(sp)
    2a64:	dc800315 	stw	r18,12(sp)
    2a68:	297fe044 	addi	r5,r5,-127
    2a6c:	dc400215 	stw	r17,8(sp)
    2a70:	298005c8 	cmpgei	r6,r5,23
    2a74:	2005883a 	mov	r2,r4
    2a78:	3000221e 	bne	r6,zero,2b04 <rintf+0xbc>
    2a7c:	18001b26 	beq	r3,zero,2aec <rintf+0xa4>
    2a80:	2023883a 	mov	r17,r4
    2a84:	2008d7fa 	srli	r4,r4,31
    2a88:	28002316 	blt	r5,zero,2b18 <rintf+0xd0>
    2a8c:	00c02034 	movhi	r3,128
    2a90:	18ffffc4 	addi	r3,r3,-1
    2a94:	1947d83a 	sra	r3,r3,r5
    2a98:	10cc703a 	and	r6,r2,r3
    2a9c:	30001326 	beq	r6,zero,2aec <rintf+0xa4>
    2aa0:	1806d07a 	srli	r3,r3,1
    2aa4:	10cc703a 	and	r6,r2,r3
    2aa8:	30000526 	beq	r6,zero,2ac0 <rintf+0x78>
    2aac:	00800834 	movhi	r2,32
    2ab0:	1145d83a 	sra	r2,r2,r5
    2ab4:	00c6303a 	nor	r3,zero,r3
    2ab8:	1c46703a 	and	r3,r3,r17
    2abc:	1884b03a 	or	r2,r3,r2
    2ac0:	200890ba 	slli	r4,r4,2
    2ac4:	00c00074 	movhi	r3,1
    2ac8:	100b883a 	mov	r5,r2
    2acc:	20c7883a 	add	r3,r4,r3
    2ad0:	1c266c17 	ldw	r16,-26192(r3)
    2ad4:	8009883a 	mov	r4,r16
    2ad8:	00034c00 	call	34c0 <__addsf3>
    2adc:	d8800015 	stw	r2,0(sp)
    2ae0:	d9000017 	ldw	r4,0(sp)
    2ae4:	800b883a 	mov	r5,r16
    2ae8:	00042b00 	call	42b0 <__subsf3>
    2aec:	dfc00417 	ldw	ra,16(sp)
    2af0:	dc800317 	ldw	r18,12(sp)
    2af4:	dc400217 	ldw	r17,8(sp)
    2af8:	dc000117 	ldw	r16,4(sp)
    2afc:	dec00504 	addi	sp,sp,20
    2b00:	f800283a 	ret
    2b04:	015fe034 	movhi	r5,32640
    2b08:	197ff836 	bltu	r3,r5,2aec <rintf+0xa4>
    2b0c:	200b883a 	mov	r5,r4
    2b10:	00034c00 	call	34c0 <__addsf3>
    2b14:	003ff506 	br	2aec <rintf+0xa4>
    2b18:	00802034 	movhi	r2,128
    2b1c:	200890ba 	slli	r4,r4,2
    2b20:	10bfffc4 	addi	r2,r2,-1
    2b24:	8884703a 	and	r2,r17,r2
    2b28:	0085c83a 	sub	r2,zero,r2
    2b2c:	00c00074 	movhi	r3,1
    2b30:	20c7883a 	add	r3,r4,r3
    2b34:	1004d27a 	srli	r2,r2,9
    2b38:	1ca66c17 	ldw	r18,-26192(r3)
    2b3c:	897ffc2c 	andhi	r5,r17,65520
    2b40:	1080102c 	andhi	r2,r2,64
    2b44:	114ab03a 	or	r5,r2,r5
    2b48:	9009883a 	mov	r4,r18
    2b4c:	00034c00 	call	34c0 <__addsf3>
    2b50:	d8800015 	stw	r2,0(sp)
    2b54:	d9000017 	ldw	r4,0(sp)
    2b58:	900b883a 	mov	r5,r18
    2b5c:	00042b00 	call	42b0 <__subsf3>
    2b60:	1404703a 	and	r2,r2,r16
    2b64:	88e0002c 	andhi	r3,r17,32768
    2b68:	10c4b03a 	or	r2,r2,r3
    2b6c:	003fdf06 	br	2aec <rintf+0xa4>

00002b70 <scalbnf>:
    2b70:	00e00034 	movhi	r3,32768
    2b74:	18ffffc4 	addi	r3,r3,-1
    2b78:	1906703a 	and	r3,r3,r4
    2b7c:	2005883a 	mov	r2,r4
    2b80:	18002626 	beq	r3,zero,2c1c <scalbnf+0xac>
    2b84:	defffe04 	addi	sp,sp,-8
    2b88:	dc000015 	stw	r16,0(sp)
    2b8c:	dfc00115 	stw	ra,4(sp)
    2b90:	019fe034 	movhi	r6,32640
    2b94:	2821883a 	mov	r16,r5
    2b98:	200b883a 	mov	r5,r4
    2b9c:	19801a2e 	bgeu	r3,r6,2c08 <scalbnf+0x98>
    2ba0:	215fe02c 	andhi	r5,r4,32640
    2ba4:	28001e1e 	bne	r5,zero,2c20 <scalbnf+0xb0>
    2ba8:	01530034 	movhi	r5,19456
    2bac:	0003efc0 	call	3efc <__mulsf3>
    2bb0:	00fffff4 	movhi	r3,65535
    2bb4:	18cf2c04 	addi	r3,r3,15536
    2bb8:	1009883a 	mov	r4,r2
    2bbc:	80c02616 	blt	r16,r3,2c58 <scalbnf+0xe8>
    2bc0:	1007d5fa 	srai	r3,r2,23
    2bc4:	18c03fcc 	andi	r3,r3,255
    2bc8:	18fff9c4 	addi	r3,r3,-25
    2bcc:	1c07883a 	add	r3,r3,r16
    2bd0:	19403fd0 	cmplti	r5,r3,255
    2bd4:	2800161e 	bne	r5,zero,2c30 <scalbnf+0xc0>
    2bd8:	011c52b4 	movhi	r4,29002
    2bdc:	213cb284 	addi	r4,r4,-3382
    2be0:	1000020e 	bge	r2,zero,2bec <scalbnf+0x7c>
    2be4:	013c52b4 	movhi	r4,61770
    2be8:	213cb284 	addi	r4,r4,-3382
    2bec:	015c52b4 	movhi	r5,29002
    2bf0:	297cb284 	addi	r5,r5,-3382
    2bf4:	0003efc0 	call	3efc <__mulsf3>
    2bf8:	dfc00117 	ldw	ra,4(sp)
    2bfc:	dc000017 	ldw	r16,0(sp)
    2c00:	dec00204 	addi	sp,sp,8
    2c04:	f800283a 	ret
    2c08:	00034c00 	call	34c0 <__addsf3>
    2c0c:	dfc00117 	ldw	ra,4(sp)
    2c10:	dc000017 	ldw	r16,0(sp)
    2c14:	dec00204 	addi	sp,sp,8
    2c18:	f800283a 	ret
    2c1c:	f800283a 	ret
    2c20:	1806d5fa 	srli	r3,r3,23
    2c24:	1c07883a 	add	r3,r3,r16
    2c28:	19403fd0 	cmplti	r5,r3,255
    2c2c:	283fea26 	beq	r5,zero,2bd8 <scalbnf+0x68>
    2c30:	00c01016 	blt	zero,r3,2c74 <scalbnf+0x104>
    2c34:	197ffa88 	cmpgei	r5,r3,-22
    2c38:	2800171e 	bne	r5,zero,2c98 <scalbnf+0x128>
    2c3c:	00f0d414 	movui	r3,50000
    2c40:	1c3fe516 	blt	r3,r16,2bd8 <scalbnf+0x68>
    2c44:	010368b4 	movhi	r4,3490
    2c48:	21109804 	addi	r4,r4,16992
    2c4c:	1000020e 	bge	r2,zero,2c58 <scalbnf+0xe8>
    2c50:	012368b4 	movhi	r4,36258
    2c54:	21109804 	addi	r4,r4,16992
    2c58:	014368b4 	movhi	r5,3490
    2c5c:	29509804 	addi	r5,r5,16992
    2c60:	0003efc0 	call	3efc <__mulsf3>
    2c64:	dfc00117 	ldw	ra,4(sp)
    2c68:	dc000017 	ldw	r16,0(sp)
    2c6c:	dec00204 	addi	sp,sp,8
    2c70:	f800283a 	ret
    2c74:	180695fa 	slli	r3,r3,23
    2c78:	00a02034 	movhi	r2,32896
    2c7c:	10bfffc4 	addi	r2,r2,-1
    2c80:	2084703a 	and	r2,r4,r2
    2c84:	10c4b03a 	or	r2,r2,r3
    2c88:	dfc00117 	ldw	ra,4(sp)
    2c8c:	dc000017 	ldw	r16,0(sp)
    2c90:	dec00204 	addi	sp,sp,8
    2c94:	f800283a 	ret
    2c98:	18c00644 	addi	r3,r3,25
    2c9c:	180695fa 	slli	r3,r3,23
    2ca0:	00a02034 	movhi	r2,32896
    2ca4:	10bfffc4 	addi	r2,r2,-1
    2ca8:	2088703a 	and	r4,r4,r2
    2cac:	014cc034 	movhi	r5,13056
    2cb0:	1908b03a 	or	r4,r3,r4
    2cb4:	0003efc0 	call	3efc <__mulsf3>
    2cb8:	003fd406 	br	2c0c <scalbnf+0x9c>

00002cbc <__muldi3>:
    2cbc:	20bfffcc 	andi	r2,r4,65535
    2cc0:	2010d43a 	srli	r8,r4,16
    2cc4:	3016d43a 	srli	r11,r6,16
    2cc8:	327fffcc 	andi	r9,r6,65535
    2ccc:	1255383a 	mul	r10,r2,r9
    2cd0:	12c7383a 	mul	r3,r2,r11
    2cd4:	4253383a 	mul	r9,r8,r9
    2cd8:	5004d43a 	srli	r2,r10,16
    2cdc:	42d1383a 	mul	r8,r8,r11
    2ce0:	1a47883a 	add	r3,r3,r9
    2ce4:	10c5883a 	add	r2,r2,r3
    2ce8:	1240022e 	bgeu	r2,r9,2cf4 <__muldi3+0x38>
    2cec:	00c00074 	movhi	r3,1
    2cf0:	40d1883a 	add	r8,r8,r3
    2cf4:	1006d43a 	srli	r3,r2,16
    2cf8:	21c9383a 	mul	r4,r4,r7
    2cfc:	314d383a 	mul	r6,r6,r5
    2d00:	1004943a 	slli	r2,r2,16
    2d04:	1a11883a 	add	r8,r3,r8
    2d08:	52bfffcc 	andi	r10,r10,65535
    2d0c:	2209883a 	add	r4,r4,r8
    2d10:	1285883a 	add	r2,r2,r10
    2d14:	2187883a 	add	r3,r4,r6
    2d18:	f800283a 	ret

00002d1c <__fixunssfsi>:
    2d1c:	defffe04 	addi	sp,sp,-8
    2d20:	0153c034 	movhi	r5,20224
    2d24:	dc000015 	stw	r16,0(sp)
    2d28:	dfc00115 	stw	ra,4(sp)
    2d2c:	2021883a 	mov	r16,r4
    2d30:	0003d900 	call	3d90 <__gesf2>
    2d34:	1000060e 	bge	r2,zero,2d50 <__fixunssfsi+0x34>
    2d38:	8009883a 	mov	r4,r16
    2d3c:	00047900 	call	4790 <__fixsfsi>
    2d40:	dfc00117 	ldw	ra,4(sp)
    2d44:	dc000017 	ldw	r16,0(sp)
    2d48:	dec00204 	addi	sp,sp,8
    2d4c:	f800283a 	ret
    2d50:	0153c034 	movhi	r5,20224
    2d54:	8009883a 	mov	r4,r16
    2d58:	00042b00 	call	42b0 <__subsf3>
    2d5c:	1009883a 	mov	r4,r2
    2d60:	00047900 	call	4790 <__fixsfsi>
    2d64:	00e00034 	movhi	r3,32768
    2d68:	10c5883a 	add	r2,r2,r3
    2d6c:	dfc00117 	ldw	ra,4(sp)
    2d70:	dc000017 	ldw	r16,0(sp)
    2d74:	dec00204 	addi	sp,sp,8
    2d78:	f800283a 	ret

00002d7c <__udivdi3>:
    2d7c:	defff504 	addi	sp,sp,-44
    2d80:	dcc00415 	stw	r19,16(sp)
    2d84:	dc000115 	stw	r16,4(sp)
    2d88:	dfc00a15 	stw	ra,40(sp)
    2d8c:	df000915 	stw	fp,36(sp)
    2d90:	ddc00815 	stw	r23,32(sp)
    2d94:	dd800715 	stw	r22,28(sp)
    2d98:	dd400615 	stw	r21,24(sp)
    2d9c:	dd000515 	stw	r20,20(sp)
    2da0:	dc800315 	stw	r18,12(sp)
    2da4:	dc400215 	stw	r17,8(sp)
    2da8:	2027883a 	mov	r19,r4
    2dac:	2821883a 	mov	r16,r5
    2db0:	3800411e 	bne	r7,zero,2eb8 <__udivdi3+0x13c>
    2db4:	3829883a 	mov	r20,r7
    2db8:	3023883a 	mov	r17,r6
    2dbc:	2025883a 	mov	r18,r4
    2dc0:	29805d2e 	bgeu	r5,r6,2f38 <__udivdi3+0x1bc>
    2dc4:	00bfffd4 	movui	r2,65535
    2dc8:	282b883a 	mov	r21,r5
    2dcc:	1180a02e 	bgeu	r2,r6,3050 <__udivdi3+0x2d4>
    2dd0:	00804034 	movhi	r2,256
    2dd4:	30813636 	bltu	r6,r2,32b0 <__udivdi3+0x534>
    2dd8:	3006d63a 	srli	r3,r6,24
    2ddc:	05000604 	movi	r20,24
    2de0:	00800074 	movhi	r2,1
    2de4:	1885883a 	add	r2,r3,r2
    2de8:	10a55703 	ldbu	r2,-27300(r2)
    2dec:	00c00804 	movi	r3,32
    2df0:	1505883a 	add	r2,r2,r20
    2df4:	1889c83a 	sub	r4,r3,r2
    2df8:	18800526 	beq	r3,r2,2e10 <__udivdi3+0x94>
    2dfc:	8120983a 	sll	r16,r16,r4
    2e00:	9884d83a 	srl	r2,r19,r2
    2e04:	3122983a 	sll	r17,r6,r4
    2e08:	9924983a 	sll	r18,r19,r4
    2e0c:	142ab03a 	or	r21,r2,r16
    2e10:	882cd43a 	srli	r22,r17,16
    2e14:	a809883a 	mov	r4,r21
    2e18:	8d3fffcc 	andi	r20,r17,65535
    2e1c:	b00b883a 	mov	r5,r22
    2e20:	00034640 	call	3464 <__umodsi3>
    2e24:	a809883a 	mov	r4,r21
    2e28:	b00b883a 	mov	r5,r22
    2e2c:	1027883a 	mov	r19,r2
    2e30:	00034000 	call	3400 <__udivsi3>
    2e34:	9826943a 	slli	r19,r19,16
    2e38:	9008d43a 	srli	r4,r18,16
    2e3c:	1021883a 	mov	r16,r2
    2e40:	a085383a 	mul	r2,r20,r2
    2e44:	9908b03a 	or	r4,r19,r4
    2e48:	2080052e 	bgeu	r4,r2,2e60 <__udivdi3+0xe4>
    2e4c:	2449883a 	add	r4,r4,r17
    2e50:	80ffffc4 	addi	r3,r16,-1
    2e54:	24400136 	bltu	r4,r17,2e5c <__udivdi3+0xe0>
    2e58:	20812636 	bltu	r4,r2,32f4 <__udivdi3+0x578>
    2e5c:	1821883a 	mov	r16,r3
    2e60:	20a7c83a 	sub	r19,r4,r2
    2e64:	9809883a 	mov	r4,r19
    2e68:	b00b883a 	mov	r5,r22
    2e6c:	00034640 	call	3464 <__umodsi3>
    2e70:	9809883a 	mov	r4,r19
    2e74:	b00b883a 	mov	r5,r22
    2e78:	1027883a 	mov	r19,r2
    2e7c:	9826943a 	slli	r19,r19,16
    2e80:	00034000 	call	3400 <__udivsi3>
    2e84:	a0a9383a 	mul	r20,r20,r2
    2e88:	94bfffcc 	andi	r18,r18,65535
    2e8c:	9ca4b03a 	or	r18,r19,r18
    2e90:	9500052e 	bgeu	r18,r20,2ea8 <__udivdi3+0x12c>
    2e94:	8ca5883a 	add	r18,r17,r18
    2e98:	10ffffc4 	addi	r3,r2,-1
    2e9c:	94400136 	bltu	r18,r17,2ea4 <__udivdi3+0x128>
    2ea0:	95011236 	bltu	r18,r20,32ec <__udivdi3+0x570>
    2ea4:	1805883a 	mov	r2,r3
    2ea8:	8020943a 	slli	r16,r16,16
    2eac:	0007883a 	mov	r3,zero
    2eb0:	8084b03a 	or	r2,r16,r2
    2eb4:	00000306 	br	2ec4 <__udivdi3+0x148>
    2eb8:	29c00e2e 	bgeu	r5,r7,2ef4 <__udivdi3+0x178>
    2ebc:	0007883a 	mov	r3,zero
    2ec0:	0005883a 	mov	r2,zero
    2ec4:	dfc00a17 	ldw	ra,40(sp)
    2ec8:	df000917 	ldw	fp,36(sp)
    2ecc:	ddc00817 	ldw	r23,32(sp)
    2ed0:	dd800717 	ldw	r22,28(sp)
    2ed4:	dd400617 	ldw	r21,24(sp)
    2ed8:	dd000517 	ldw	r20,20(sp)
    2edc:	dcc00417 	ldw	r19,16(sp)
    2ee0:	dc800317 	ldw	r18,12(sp)
    2ee4:	dc400217 	ldw	r17,8(sp)
    2ee8:	dc000117 	ldw	r16,4(sp)
    2eec:	dec00b04 	addi	sp,sp,44
    2ef0:	f800283a 	ret
    2ef4:	00bfffd4 	movui	r2,65535
    2ef8:	11c05a2e 	bgeu	r2,r7,3064 <__udivdi3+0x2e8>
    2efc:	00804034 	movhi	r2,256
    2f00:	3880dd36 	bltu	r7,r2,3278 <__udivdi3+0x4fc>
    2f04:	3804d63a 	srli	r2,r7,24
    2f08:	01000604 	movi	r4,24
    2f0c:	00c00074 	movhi	r3,1
    2f10:	10c7883a 	add	r3,r2,r3
    2f14:	18a55703 	ldbu	r2,-27300(r3)
    2f18:	00c00804 	movi	r3,32
    2f1c:	1105883a 	add	r2,r2,r4
    2f20:	18abc83a 	sub	r21,r3,r2
    2f24:	1880861e 	bne	r3,r2,3140 <__udivdi3+0x3c4>
    2f28:	3c00d836 	bltu	r7,r16,328c <__udivdi3+0x510>
    2f2c:	9985403a 	cmpgeu	r2,r19,r6
    2f30:	0007883a 	mov	r3,zero
    2f34:	003fe306 	br	2ec4 <__udivdi3+0x148>
    2f38:	3000041e 	bne	r6,zero,2f4c <__udivdi3+0x1d0>
    2f3c:	000b883a 	mov	r5,zero
    2f40:	01000044 	movi	r4,1
    2f44:	00034000 	call	3400 <__udivsi3>
    2f48:	1023883a 	mov	r17,r2
    2f4c:	00bfffd4 	movui	r2,65535
    2f50:	14403a2e 	bgeu	r2,r17,303c <__udivdi3+0x2c0>
    2f54:	00804034 	movhi	r2,256
    2f58:	8880d236 	bltu	r17,r2,32a4 <__udivdi3+0x528>
    2f5c:	8806d63a 	srli	r3,r17,24
    2f60:	05000604 	movi	r20,24
    2f64:	00800074 	movhi	r2,1
    2f68:	1885883a 	add	r2,r3,r2
    2f6c:	10a55703 	ldbu	r2,-27300(r2)
    2f70:	00c00804 	movi	r3,32
    2f74:	1505883a 	add	r2,r2,r20
    2f78:	188dc83a 	sub	r6,r3,r2
    2f7c:	18803e1e 	bne	r3,r2,3078 <__udivdi3+0x2fc>
    2f80:	882ad43a 	srli	r21,r17,16
    2f84:	8461c83a 	sub	r16,r16,r17
    2f88:	8cffffcc 	andi	r19,r17,65535
    2f8c:	00c00044 	movi	r3,1
    2f90:	8009883a 	mov	r4,r16
    2f94:	a80b883a 	mov	r5,r21
    2f98:	d8c00015 	stw	r3,0(sp)
    2f9c:	00034640 	call	3464 <__umodsi3>
    2fa0:	8009883a 	mov	r4,r16
    2fa4:	a80b883a 	mov	r5,r21
    2fa8:	1021883a 	mov	r16,r2
    2fac:	00034000 	call	3400 <__udivsi3>
    2fb0:	8020943a 	slli	r16,r16,16
    2fb4:	9008d43a 	srli	r4,r18,16
    2fb8:	1029883a 	mov	r20,r2
    2fbc:	14c5383a 	mul	r2,r2,r19
    2fc0:	8108b03a 	or	r4,r16,r4
    2fc4:	d8c00017 	ldw	r3,0(sp)
    2fc8:	2080052e 	bgeu	r4,r2,2fe0 <__udivdi3+0x264>
    2fcc:	2449883a 	add	r4,r4,r17
    2fd0:	a17fffc4 	addi	r5,r20,-1
    2fd4:	24400136 	bltu	r4,r17,2fdc <__udivdi3+0x260>
    2fd8:	2080c936 	bltu	r4,r2,3300 <__udivdi3+0x584>
    2fdc:	2829883a 	mov	r20,r5
    2fe0:	20a1c83a 	sub	r16,r4,r2
    2fe4:	8009883a 	mov	r4,r16
    2fe8:	a80b883a 	mov	r5,r21
    2fec:	d8c00015 	stw	r3,0(sp)
    2ff0:	00034640 	call	3464 <__umodsi3>
    2ff4:	8009883a 	mov	r4,r16
    2ff8:	a80b883a 	mov	r5,r21
    2ffc:	1021883a 	mov	r16,r2
    3000:	8020943a 	slli	r16,r16,16
    3004:	00034000 	call	3400 <__udivsi3>
    3008:	14e7383a 	mul	r19,r2,r19
    300c:	94bfffcc 	andi	r18,r18,65535
    3010:	84a4b03a 	or	r18,r16,r18
    3014:	d8c00017 	ldw	r3,0(sp)
    3018:	94c0052e 	bgeu	r18,r19,3030 <__udivdi3+0x2b4>
    301c:	8ca5883a 	add	r18,r17,r18
    3020:	113fffc4 	addi	r4,r2,-1
    3024:	94400136 	bltu	r18,r17,302c <__udivdi3+0x2b0>
    3028:	94c0ae36 	bltu	r18,r19,32e4 <__udivdi3+0x568>
    302c:	2005883a 	mov	r2,r4
    3030:	a00c943a 	slli	r6,r20,16
    3034:	3084b03a 	or	r2,r6,r2
    3038:	003fa206 	br	2ec4 <__udivdi3+0x148>
    303c:	88804030 	cmpltui	r2,r17,256
    3040:	10009e1e 	bne	r2,zero,32bc <__udivdi3+0x540>
    3044:	8806d23a 	srli	r3,r17,8
    3048:	05000204 	movi	r20,8
    304c:	003fc506 	br	2f64 <__udivdi3+0x1e8>
    3050:	30804030 	cmpltui	r2,r6,256
    3054:	10008b1e 	bne	r2,zero,3284 <__udivdi3+0x508>
    3058:	3006d23a 	srli	r3,r6,8
    305c:	05000204 	movi	r20,8
    3060:	003f5f06 	br	2de0 <__udivdi3+0x64>
    3064:	38804030 	cmpltui	r2,r7,256
    3068:	10008b1e 	bne	r2,zero,3298 <__udivdi3+0x51c>
    306c:	3804d23a 	srli	r2,r7,8
    3070:	01000204 	movi	r4,8
    3074:	003fa506 	br	2f0c <__udivdi3+0x190>
    3078:	89a2983a 	sll	r17,r17,r6
    307c:	80acd83a 	srl	r22,r16,r2
    3080:	81a0983a 	sll	r16,r16,r6
    3084:	882ad43a 	srli	r21,r17,16
    3088:	9884d83a 	srl	r2,r19,r2
    308c:	b009883a 	mov	r4,r22
    3090:	a80b883a 	mov	r5,r21
    3094:	99a4983a 	sll	r18,r19,r6
    3098:	1428b03a 	or	r20,r2,r16
    309c:	00034640 	call	3464 <__umodsi3>
    30a0:	b009883a 	mov	r4,r22
    30a4:	a80b883a 	mov	r5,r21
    30a8:	1021883a 	mov	r16,r2
    30ac:	00034000 	call	3400 <__udivsi3>
    30b0:	8008943a 	slli	r4,r16,16
    30b4:	a00ad43a 	srli	r5,r20,16
    30b8:	8cffffcc 	andi	r19,r17,65535
    30bc:	98a1383a 	mul	r16,r19,r2
    30c0:	2148b03a 	or	r4,r4,r5
    30c4:	102d883a 	mov	r22,r2
    30c8:	2400062e 	bgeu	r4,r16,30e4 <__udivdi3+0x368>
    30cc:	2449883a 	add	r4,r4,r17
    30d0:	10bfffc4 	addi	r2,r2,-1
    30d4:	24408136 	bltu	r4,r17,32dc <__udivdi3+0x560>
    30d8:	2400802e 	bgeu	r4,r16,32dc <__udivdi3+0x560>
    30dc:	b5bfff84 	addi	r22,r22,-2
    30e0:	2449883a 	add	r4,r4,r17
    30e4:	2421c83a 	sub	r16,r4,r16
    30e8:	8009883a 	mov	r4,r16
    30ec:	a80b883a 	mov	r5,r21
    30f0:	00034640 	call	3464 <__umodsi3>
    30f4:	8009883a 	mov	r4,r16
    30f8:	a80b883a 	mov	r5,r21
    30fc:	1021883a 	mov	r16,r2
    3100:	8020943a 	slli	r16,r16,16
    3104:	00034000 	call	3400 <__udivsi3>
    3108:	9889383a 	mul	r4,r19,r2
    310c:	a53fffcc 	andi	r20,r20,65535
    3110:	8520b03a 	or	r16,r16,r20
    3114:	8100062e 	bgeu	r16,r4,3130 <__udivdi3+0x3b4>
    3118:	8461883a 	add	r16,r16,r17
    311c:	10ffffc4 	addi	r3,r2,-1
    3120:	84406a36 	bltu	r16,r17,32cc <__udivdi3+0x550>
    3124:	8100692e 	bgeu	r16,r4,32cc <__udivdi3+0x550>
    3128:	10bfff84 	addi	r2,r2,-2
    312c:	8461883a 	add	r16,r16,r17
    3130:	b006943a 	slli	r3,r22,16
    3134:	8121c83a 	sub	r16,r16,r4
    3138:	1886b03a 	or	r3,r3,r2
    313c:	003f9406 	br	2f90 <__udivdi3+0x214>
    3140:	30acd83a 	srl	r22,r6,r2
    3144:	3d4e983a 	sll	r7,r7,r21
    3148:	80a4d83a 	srl	r18,r16,r2
    314c:	8546983a 	sll	r3,r16,r21
    3150:	b1ecb03a 	or	r22,r22,r7
    3154:	b038d43a 	srli	fp,r22,16
    3158:	9884d83a 	srl	r2,r19,r2
    315c:	9009883a 	mov	r4,r18
    3160:	e00b883a 	mov	r5,fp
    3164:	10e2b03a 	or	r17,r2,r3
    3168:	3568983a 	sll	r20,r6,r21
    316c:	00034640 	call	3464 <__umodsi3>
    3170:	9009883a 	mov	r4,r18
    3174:	e00b883a 	mov	r5,fp
    3178:	1025883a 	mov	r18,r2
    317c:	00034000 	call	3400 <__udivsi3>
    3180:	9008943a 	slli	r4,r18,16
    3184:	8806d43a 	srli	r3,r17,16
    3188:	b5ffffcc 	andi	r23,r22,65535
    318c:	b8a5383a 	mul	r18,r23,r2
    3190:	20c8b03a 	or	r4,r4,r3
    3194:	1021883a 	mov	r16,r2
    3198:	2480062e 	bgeu	r4,r18,31b4 <__udivdi3+0x438>
    319c:	2589883a 	add	r4,r4,r22
    31a0:	10bfffc4 	addi	r2,r2,-1
    31a4:	25804b36 	bltu	r4,r22,32d4 <__udivdi3+0x558>
    31a8:	24804a2e 	bgeu	r4,r18,32d4 <__udivdi3+0x558>
    31ac:	843fff84 	addi	r16,r16,-2
    31b0:	2589883a 	add	r4,r4,r22
    31b4:	24a5c83a 	sub	r18,r4,r18
    31b8:	9009883a 	mov	r4,r18
    31bc:	e00b883a 	mov	r5,fp
    31c0:	00034640 	call	3464 <__umodsi3>
    31c4:	9009883a 	mov	r4,r18
    31c8:	e00b883a 	mov	r5,fp
    31cc:	1025883a 	mov	r18,r2
    31d0:	9024943a 	slli	r18,r18,16
    31d4:	00034000 	call	3400 <__udivsi3>
    31d8:	b8af383a 	mul	r23,r23,r2
    31dc:	8c7fffcc 	andi	r17,r17,65535
    31e0:	9462b03a 	or	r17,r18,r17
    31e4:	8dc0062e 	bgeu	r17,r23,3200 <__udivdi3+0x484>
    31e8:	8da3883a 	add	r17,r17,r22
    31ec:	10ffffc4 	addi	r3,r2,-1
    31f0:	8d803436 	bltu	r17,r22,32c4 <__udivdi3+0x548>
    31f4:	8dc0332e 	bgeu	r17,r23,32c4 <__udivdi3+0x548>
    31f8:	10bfff84 	addi	r2,r2,-2
    31fc:	8da3883a 	add	r17,r17,r22
    3200:	8020943a 	slli	r16,r16,16
    3204:	10ffffcc 	andi	r3,r2,65535
    3208:	a00ed43a 	srli	r7,r20,16
    320c:	8084b03a 	or	r2,r16,r2
    3210:	1008d43a 	srli	r4,r2,16
    3214:	a1bfffcc 	andi	r6,r20,65535
    3218:	1991383a 	mul	r8,r3,r6
    321c:	218d383a 	mul	r6,r4,r6
    3220:	19c7383a 	mul	r3,r3,r7
    3224:	400ad43a 	srli	r5,r8,16
    3228:	21c9383a 	mul	r4,r4,r7
    322c:	1987883a 	add	r3,r3,r6
    3230:	28c7883a 	add	r3,r5,r3
    3234:	8de3c83a 	sub	r17,r17,r23
    3238:	1980022e 	bgeu	r3,r6,3244 <__udivdi3+0x4c8>
    323c:	01400074 	movhi	r5,1
    3240:	2149883a 	add	r4,r4,r5
    3244:	180ad43a 	srli	r5,r3,16
    3248:	2909883a 	add	r4,r5,r4
    324c:	89000836 	bltu	r17,r4,3270 <__udivdi3+0x4f4>
    3250:	89000226 	beq	r17,r4,325c <__udivdi3+0x4e0>
    3254:	0007883a 	mov	r3,zero
    3258:	003f1a06 	br	2ec4 <__udivdi3+0x148>
    325c:	1806943a 	slli	r3,r3,16
    3260:	9d4c983a 	sll	r6,r19,r21
    3264:	423fffcc 	andi	r8,r8,65535
    3268:	1a07883a 	add	r3,r3,r8
    326c:	30fff92e 	bgeu	r6,r3,3254 <__udivdi3+0x4d8>
    3270:	10bfffc4 	addi	r2,r2,-1
    3274:	003ff706 	br	3254 <__udivdi3+0x4d8>
    3278:	3804d43a 	srli	r2,r7,16
    327c:	01000404 	movi	r4,16
    3280:	003f2206 	br	2f0c <__udivdi3+0x190>
    3284:	3007883a 	mov	r3,r6
    3288:	003ed506 	br	2de0 <__udivdi3+0x64>
    328c:	0007883a 	mov	r3,zero
    3290:	00800044 	movi	r2,1
    3294:	003f0b06 	br	2ec4 <__udivdi3+0x148>
    3298:	3805883a 	mov	r2,r7
    329c:	0009883a 	mov	r4,zero
    32a0:	003f1a06 	br	2f0c <__udivdi3+0x190>
    32a4:	8806d43a 	srli	r3,r17,16
    32a8:	05000404 	movi	r20,16
    32ac:	003f2d06 	br	2f64 <__udivdi3+0x1e8>
    32b0:	3006d43a 	srli	r3,r6,16
    32b4:	05000404 	movi	r20,16
    32b8:	003ec906 	br	2de0 <__udivdi3+0x64>
    32bc:	8807883a 	mov	r3,r17
    32c0:	003f2806 	br	2f64 <__udivdi3+0x1e8>
    32c4:	1805883a 	mov	r2,r3
    32c8:	003fcd06 	br	3200 <__udivdi3+0x484>
    32cc:	1805883a 	mov	r2,r3
    32d0:	003f9706 	br	3130 <__udivdi3+0x3b4>
    32d4:	1021883a 	mov	r16,r2
    32d8:	003fb606 	br	31b4 <__udivdi3+0x438>
    32dc:	102d883a 	mov	r22,r2
    32e0:	003f8006 	br	30e4 <__udivdi3+0x368>
    32e4:	10bfff84 	addi	r2,r2,-2
    32e8:	003f5106 	br	3030 <__udivdi3+0x2b4>
    32ec:	10bfff84 	addi	r2,r2,-2
    32f0:	003eed06 	br	2ea8 <__udivdi3+0x12c>
    32f4:	843fff84 	addi	r16,r16,-2
    32f8:	2449883a 	add	r4,r4,r17
    32fc:	003ed806 	br	2e60 <__udivdi3+0xe4>
    3300:	a53fff84 	addi	r20,r20,-2
    3304:	2449883a 	add	r4,r4,r17
    3308:	003f3506 	br	2fe0 <__udivdi3+0x264>

0000330c <__divsi3>:
    330c:	20001a16 	blt	r4,zero,3378 <__divsi3+0x6c>
    3310:	000f883a 	mov	r7,zero
    3314:	2800020e 	bge	r5,zero,3320 <__divsi3+0x14>
    3318:	014bc83a 	sub	r5,zero,r5
    331c:	39c0005c 	xori	r7,r7,1
    3320:	200d883a 	mov	r6,r4
    3324:	00c00044 	movi	r3,1
    3328:	2900092e 	bgeu	r5,r4,3350 <__divsi3+0x44>
    332c:	00800804 	movi	r2,32
    3330:	00c00044 	movi	r3,1
    3334:	00000106 	br	333c <__divsi3+0x30>
    3338:	10001226 	beq	r2,zero,3384 <__divsi3+0x78>
    333c:	294b883a 	add	r5,r5,r5
    3340:	10bfffc4 	addi	r2,r2,-1
    3344:	18c7883a 	add	r3,r3,r3
    3348:	293ffb36 	bltu	r5,r4,3338 <__divsi3+0x2c>
    334c:	18000d26 	beq	r3,zero,3384 <__divsi3+0x78>
    3350:	0005883a 	mov	r2,zero
    3354:	31400236 	bltu	r6,r5,3360 <__divsi3+0x54>
    3358:	314dc83a 	sub	r6,r6,r5
    335c:	10c4b03a 	or	r2,r2,r3
    3360:	1806d07a 	srli	r3,r3,1
    3364:	280ad07a 	srli	r5,r5,1
    3368:	183ffa1e 	bne	r3,zero,3354 <__divsi3+0x48>
    336c:	38000126 	beq	r7,zero,3374 <__divsi3+0x68>
    3370:	0085c83a 	sub	r2,zero,r2
    3374:	f800283a 	ret
    3378:	0109c83a 	sub	r4,zero,r4
    337c:	01c00044 	movi	r7,1
    3380:	003fe406 	br	3314 <__divsi3+0x8>
    3384:	0005883a 	mov	r2,zero
    3388:	003ff806 	br	336c <__divsi3+0x60>

0000338c <__modsi3>:
    338c:	20001916 	blt	r4,zero,33f4 <__modsi3+0x68>
    3390:	000f883a 	mov	r7,zero
    3394:	2005883a 	mov	r2,r4
    3398:	2800010e 	bge	r5,zero,33a0 <__modsi3+0x14>
    339c:	014bc83a 	sub	r5,zero,r5
    33a0:	00c00044 	movi	r3,1
    33a4:	2900092e 	bgeu	r5,r4,33cc <__modsi3+0x40>
    33a8:	01800804 	movi	r6,32
    33ac:	00c00044 	movi	r3,1
    33b0:	00000106 	br	33b8 <__modsi3+0x2c>
    33b4:	30000d26 	beq	r6,zero,33ec <__modsi3+0x60>
    33b8:	294b883a 	add	r5,r5,r5
    33bc:	31bfffc4 	addi	r6,r6,-1
    33c0:	18c7883a 	add	r3,r3,r3
    33c4:	293ffb36 	bltu	r5,r4,33b4 <__modsi3+0x28>
    33c8:	18000826 	beq	r3,zero,33ec <__modsi3+0x60>
    33cc:	1806d07a 	srli	r3,r3,1
    33d0:	11400136 	bltu	r2,r5,33d8 <__modsi3+0x4c>
    33d4:	1145c83a 	sub	r2,r2,r5
    33d8:	280ad07a 	srli	r5,r5,1
    33dc:	183ffb1e 	bne	r3,zero,33cc <__modsi3+0x40>
    33e0:	38000126 	beq	r7,zero,33e8 <__modsi3+0x5c>
    33e4:	0085c83a 	sub	r2,zero,r2
    33e8:	f800283a 	ret
    33ec:	2005883a 	mov	r2,r4
    33f0:	003ffb06 	br	33e0 <__modsi3+0x54>
    33f4:	0109c83a 	sub	r4,zero,r4
    33f8:	01c00044 	movi	r7,1
    33fc:	003fe506 	br	3394 <__modsi3+0x8>

00003400 <__udivsi3>:
    3400:	200d883a 	mov	r6,r4
    3404:	2900152e 	bgeu	r5,r4,345c <__udivsi3+0x5c>
    3408:	28001416 	blt	r5,zero,345c <__udivsi3+0x5c>
    340c:	00800804 	movi	r2,32
    3410:	00c00044 	movi	r3,1
    3414:	00000206 	br	3420 <__udivsi3+0x20>
    3418:	10000e26 	beq	r2,zero,3454 <__udivsi3+0x54>
    341c:	28000516 	blt	r5,zero,3434 <__udivsi3+0x34>
    3420:	294b883a 	add	r5,r5,r5
    3424:	10bfffc4 	addi	r2,r2,-1
    3428:	18c7883a 	add	r3,r3,r3
    342c:	293ffa36 	bltu	r5,r4,3418 <__udivsi3+0x18>
    3430:	18000826 	beq	r3,zero,3454 <__udivsi3+0x54>
    3434:	0005883a 	mov	r2,zero
    3438:	31400236 	bltu	r6,r5,3444 <__udivsi3+0x44>
    343c:	314dc83a 	sub	r6,r6,r5
    3440:	10c4b03a 	or	r2,r2,r3
    3444:	1806d07a 	srli	r3,r3,1
    3448:	280ad07a 	srli	r5,r5,1
    344c:	183ffa1e 	bne	r3,zero,3438 <__udivsi3+0x38>
    3450:	f800283a 	ret
    3454:	0005883a 	mov	r2,zero
    3458:	f800283a 	ret
    345c:	00c00044 	movi	r3,1
    3460:	003ff406 	br	3434 <__udivsi3+0x34>

00003464 <__umodsi3>:
    3464:	2005883a 	mov	r2,r4
    3468:	2900132e 	bgeu	r5,r4,34b8 <__umodsi3+0x54>
    346c:	28001216 	blt	r5,zero,34b8 <__umodsi3+0x54>
    3470:	01800804 	movi	r6,32
    3474:	00c00044 	movi	r3,1
    3478:	00000206 	br	3484 <__umodsi3+0x20>
    347c:	30000c26 	beq	r6,zero,34b0 <__umodsi3+0x4c>
    3480:	28000516 	blt	r5,zero,3498 <__umodsi3+0x34>
    3484:	294b883a 	add	r5,r5,r5
    3488:	31bfffc4 	addi	r6,r6,-1
    348c:	18c7883a 	add	r3,r3,r3
    3490:	293ffa36 	bltu	r5,r4,347c <__umodsi3+0x18>
    3494:	18000626 	beq	r3,zero,34b0 <__umodsi3+0x4c>
    3498:	1806d07a 	srli	r3,r3,1
    349c:	11400136 	bltu	r2,r5,34a4 <__umodsi3+0x40>
    34a0:	1145c83a 	sub	r2,r2,r5
    34a4:	280ad07a 	srli	r5,r5,1
    34a8:	183ffb1e 	bne	r3,zero,3498 <__umodsi3+0x34>
    34ac:	f800283a 	ret
    34b0:	2005883a 	mov	r2,r4
    34b4:	f800283a 	ret
    34b8:	00c00044 	movi	r3,1
    34bc:	003ff606 	br	3498 <__umodsi3+0x34>

000034c0 <__addsf3>:
    34c0:	defffc04 	addi	sp,sp,-16
    34c4:	2806d5fa 	srli	r3,r5,23
    34c8:	dc000015 	stw	r16,0(sp)
    34cc:	2020d5fa 	srli	r16,r4,23
    34d0:	200cd7fa 	srli	r6,r4,31
    34d4:	00802034 	movhi	r2,128
    34d8:	2812d7fa 	srli	r9,r5,31
    34dc:	10bfffc4 	addi	r2,r2,-1
    34e0:	1114703a 	and	r10,r2,r4
    34e4:	1b003fcc 	andi	r12,r3,255
    34e8:	dc400115 	stw	r17,4(sp)
    34ec:	84003fcc 	andi	r16,r16,255
    34f0:	115a703a 	and	r13,r2,r5
    34f4:	dfc00315 	stw	ra,12(sp)
    34f8:	dc800215 	stw	r18,8(sp)
    34fc:	500e90fa 	slli	r7,r10,3
    3500:	681090fa 	slli	r8,r13,3
    3504:	5007883a 	mov	r3,r10
    3508:	3023883a 	mov	r17,r6
    350c:	8317c83a 	sub	r11,r16,r12
    3510:	32403926 	beq	r6,r9,35f8 <__addsf3+0x138>
    3514:	02c02e0e 	bge	zero,r11,35d0 <__addsf3+0x110>
    3518:	60004c26 	beq	r12,zero,364c <__addsf3+0x18c>
    351c:	80803fe0 	cmpeqi	r2,r16,255
    3520:	1000801e 	bne	r2,zero,3724 <__addsf3+0x264>
    3524:	42010034 	orhi	r8,r8,1024
    3528:	58800710 	cmplti	r2,r11,28
    352c:	10009e1e 	bne	r2,zero,37a8 <__addsf3+0x2e8>
    3530:	01000044 	movi	r4,1
    3534:	3909c83a 	sub	r4,r7,r4
    3538:	2081002c 	andhi	r2,r4,1024
    353c:	10006826 	beq	r2,zero,36e0 <__addsf3+0x220>
    3540:	04810034 	movhi	r18,1024
    3544:	94bfffc4 	addi	r18,r18,-1
    3548:	24a4703a 	and	r18,r4,r18
    354c:	9009883a 	mov	r4,r18
    3550:	0004a200 	call	4a20 <__clzsi2>
    3554:	10bffec4 	addi	r2,r2,-5
    3558:	9088983a 	sll	r4,r18,r2
    355c:	1400880e 	bge	r2,r16,3780 <__addsf3+0x2c0>
    3560:	00ff0034 	movhi	r3,64512
    3564:	18ffffc4 	addi	r3,r3,-1
    3568:	80a1c83a 	sub	r16,r16,r2
    356c:	20c8703a 	and	r4,r4,r3
    3570:	208001cc 	andi	r2,r4,7
    3574:	10000426 	beq	r2,zero,3588 <__addsf3+0xc8>
    3578:	208003cc 	andi	r2,r4,15
    357c:	10800120 	cmpeqi	r2,r2,4
    3580:	1000011e 	bne	r2,zero,3588 <__addsf3+0xc8>
    3584:	21000104 	addi	r4,r4,4
    3588:	2081002c 	andhi	r2,r4,1024
    358c:	10005626 	beq	r2,zero,36e8 <__addsf3+0x228>
    3590:	84000044 	addi	r16,r16,1
    3594:	80803fe0 	cmpeqi	r2,r16,255
    3598:	1000461e 	bne	r2,zero,36b4 <__addsf3+0x1f4>
    359c:	200491ba 	slli	r2,r4,6
    35a0:	1006d27a 	srli	r3,r2,9
    35a4:	84003fcc 	andi	r16,r16,255
    35a8:	800495fa 	slli	r2,r16,23
    35ac:	882297fa 	slli	r17,r17,31
    35b0:	10c4b03a 	or	r2,r2,r3
    35b4:	1444b03a 	or	r2,r2,r17
    35b8:	dfc00317 	ldw	ra,12(sp)
    35bc:	dc800217 	ldw	r18,8(sp)
    35c0:	dc400117 	ldw	r17,4(sp)
    35c4:	dc000017 	ldw	r16,0(sp)
    35c8:	dec00404 	addi	sp,sp,16
    35cc:	f800283a 	ret
    35d0:	58002526 	beq	r11,zero,3668 <__addsf3+0x1a8>
    35d4:	6417c83a 	sub	r11,r12,r16
    35d8:	8000821e 	bne	r16,zero,37e4 <__addsf3+0x324>
    35dc:	38006426 	beq	r7,zero,3770 <__addsf3+0x2b0>
    35e0:	58bfffc4 	addi	r2,r11,-1
    35e4:	1000c226 	beq	r2,zero,38f0 <__addsf3+0x430>
    35e8:	5ac03fe0 	cmpeqi	r11,r11,255
    35ec:	58004b1e 	bne	r11,zero,371c <__addsf3+0x25c>
    35f0:	1017883a 	mov	r11,r2
    35f4:	00007e06 	br	37f0 <__addsf3+0x330>
    35f8:	02c0510e 	bge	zero,r11,3740 <__addsf3+0x280>
    35fc:	60002626 	beq	r12,zero,3698 <__addsf3+0x1d8>
    3600:	80803fe0 	cmpeqi	r2,r16,255
    3604:	1000471e 	bne	r2,zero,3724 <__addsf3+0x264>
    3608:	42010034 	orhi	r8,r8,1024
    360c:	58800710 	cmplti	r2,r11,28
    3610:	10007e1e 	bne	r2,zero,380c <__addsf3+0x34c>
    3614:	01000044 	movi	r4,1
    3618:	21c9883a 	add	r4,r4,r7
    361c:	2081002c 	andhi	r2,r4,1024
    3620:	10002f26 	beq	r2,zero,36e0 <__addsf3+0x220>
    3624:	84000044 	addi	r16,r16,1
    3628:	80803fe0 	cmpeqi	r2,r16,255
    362c:	1000211e 	bne	r2,zero,36b4 <__addsf3+0x1f4>
    3630:	2004d07a 	srli	r2,r4,1
    3634:	00df8034 	movhi	r3,32256
    3638:	18ffffc4 	addi	r3,r3,-1
    363c:	2100004c 	andi	r4,r4,1
    3640:	10c4703a 	and	r2,r2,r3
    3644:	1108b03a 	or	r4,r2,r4
    3648:	003fc906 	br	3570 <__addsf3+0xb0>
    364c:	40004a26 	beq	r8,zero,3778 <__addsf3+0x2b8>
    3650:	58bfffc4 	addi	r2,r11,-1
    3654:	10009326 	beq	r2,zero,38a4 <__addsf3+0x3e4>
    3658:	59003fe0 	cmpeqi	r4,r11,255
    365c:	2000311e 	bne	r4,zero,3724 <__addsf3+0x264>
    3660:	1017883a 	mov	r11,r2
    3664:	003fb006 	br	3528 <__addsf3+0x68>
    3668:	81800044 	addi	r6,r16,1
    366c:	31803f8c 	andi	r6,r6,254
    3670:	3000541e 	bne	r6,zero,37c4 <__addsf3+0x304>
    3674:	80007e1e 	bne	r16,zero,3870 <__addsf3+0x3b0>
    3678:	3800a326 	beq	r7,zero,3908 <__addsf3+0x448>
    367c:	40009326 	beq	r8,zero,38cc <__addsf3+0x40c>
    3680:	3a09c83a 	sub	r4,r7,r8
    3684:	2081002c 	andhi	r2,r4,1024
    3688:	1000a626 	beq	r2,zero,3924 <__addsf3+0x464>
    368c:	41c9c83a 	sub	r4,r8,r7
    3690:	4823883a 	mov	r17,r9
    3694:	003fb606 	br	3570 <__addsf3+0xb0>
    3698:	40003726 	beq	r8,zero,3778 <__addsf3+0x2b8>
    369c:	58bfffc4 	addi	r2,r11,-1
    36a0:	10007b26 	beq	r2,zero,3890 <__addsf3+0x3d0>
    36a4:	5ac03fe0 	cmpeqi	r11,r11,255
    36a8:	58001e1e 	bne	r11,zero,3724 <__addsf3+0x264>
    36ac:	1017883a 	mov	r11,r2
    36b0:	003fd606 	br	360c <__addsf3+0x14c>
    36b4:	043fffc4 	movi	r16,-1
    36b8:	0007883a 	mov	r3,zero
    36bc:	003fb906 	br	35a4 <__addsf3+0xe4>
    36c0:	80800044 	addi	r2,r16,1
    36c4:	11803f8c 	andi	r6,r2,254
    36c8:	30005726 	beq	r6,zero,3828 <__addsf3+0x368>
    36cc:	10c03fe0 	cmpeqi	r3,r2,255
    36d0:	183ff81e 	bne	r3,zero,36b4 <__addsf3+0x1f4>
    36d4:	3a09883a 	add	r4,r7,r8
    36d8:	2008d07a 	srli	r4,r4,1
    36dc:	1021883a 	mov	r16,r2
    36e0:	208001cc 	andi	r2,r4,7
    36e4:	103fa41e 	bne	r2,zero,3578 <__addsf3+0xb8>
    36e8:	2014d0fa 	srli	r10,r4,3
    36ec:	80803fe0 	cmpeqi	r2,r16,255
    36f0:	10000c1e 	bne	r2,zero,3724 <__addsf3+0x264>
    36f4:	00802034 	movhi	r2,128
    36f8:	10bfffc4 	addi	r2,r2,-1
    36fc:	5086703a 	and	r3,r10,r2
    3700:	003fa806 	br	35a4 <__addsf3+0xe4>
    3704:	38000626 	beq	r7,zero,3720 <__addsf3+0x260>
    3708:	40000626 	beq	r8,zero,3724 <__addsf3+0x264>
    370c:	2080102c 	andhi	r2,r4,64
    3710:	10000426 	beq	r2,zero,3724 <__addsf3+0x264>
    3714:	2940102c 	andhi	r5,r5,64
    3718:	2800021e 	bne	r5,zero,3724 <__addsf3+0x264>
    371c:	4823883a 	mov	r17,r9
    3720:	6815883a 	mov	r10,r13
    3724:	503fe326 	beq	r10,zero,36b4 <__addsf3+0x1f4>
    3728:	00802034 	movhi	r2,128
    372c:	50c01034 	orhi	r3,r10,64
    3730:	10bfffc4 	addi	r2,r2,-1
    3734:	1886703a 	and	r3,r3,r2
    3738:	043fffc4 	movi	r16,-1
    373c:	003f9906 	br	35a4 <__addsf3+0xe4>
    3740:	583fdf26 	beq	r11,zero,36c0 <__addsf3+0x200>
    3744:	6417c83a 	sub	r11,r12,r16
    3748:	80004226 	beq	r16,zero,3854 <__addsf3+0x394>
    374c:	60803fe0 	cmpeqi	r2,r12,255
    3750:	103ff31e 	bne	r2,zero,3720 <__addsf3+0x260>
    3754:	39c10034 	orhi	r7,r7,1024
    3758:	58800710 	cmplti	r2,r11,28
    375c:	10005d1e 	bne	r2,zero,38d4 <__addsf3+0x414>
    3760:	01000044 	movi	r4,1
    3764:	2209883a 	add	r4,r4,r8
    3768:	6021883a 	mov	r16,r12
    376c:	003fab06 	br	361c <__addsf3+0x15c>
    3770:	4823883a 	mov	r17,r9
    3774:	6815883a 	mov	r10,r13
    3778:	5821883a 	mov	r16,r11
    377c:	003fdb06 	br	36ec <__addsf3+0x22c>
    3780:	1405c83a 	sub	r2,r2,r16
    3784:	14800044 	addi	r18,r2,1
    3788:	00800804 	movi	r2,32
    378c:	1485c83a 	sub	r2,r2,r18
    3790:	2084983a 	sll	r2,r4,r2
    3794:	2488d83a 	srl	r4,r4,r18
    3798:	0021883a 	mov	r16,zero
    379c:	1004c03a 	cmpne	r2,r2,zero
    37a0:	1108b03a 	or	r4,r2,r4
    37a4:	003f7206 	br	3570 <__addsf3+0xb0>
    37a8:	01000804 	movi	r4,32
    37ac:	22c9c83a 	sub	r4,r4,r11
    37b0:	4108983a 	sll	r4,r8,r4
    37b4:	42d0d83a 	srl	r8,r8,r11
    37b8:	2008c03a 	cmpne	r4,r4,zero
    37bc:	2208b03a 	or	r4,r4,r8
    37c0:	003f5c06 	br	3534 <__addsf3+0x74>
    37c4:	3a25c83a 	sub	r18,r7,r8
    37c8:	9081002c 	andhi	r2,r18,1024
    37cc:	10002d1e 	bne	r2,zero,3884 <__addsf3+0x3c4>
    37d0:	903f5e1e 	bne	r18,zero,354c <__addsf3+0x8c>
    37d4:	0023883a 	mov	r17,zero
    37d8:	0021883a 	mov	r16,zero
    37dc:	0007883a 	mov	r3,zero
    37e0:	003f7006 	br	35a4 <__addsf3+0xe4>
    37e4:	60803fe0 	cmpeqi	r2,r12,255
    37e8:	103fcc1e 	bne	r2,zero,371c <__addsf3+0x25c>
    37ec:	39c10034 	orhi	r7,r7,1024
    37f0:	58800710 	cmplti	r2,r11,28
    37f4:	10002e1e 	bne	r2,zero,38b0 <__addsf3+0x3f0>
    37f8:	01000044 	movi	r4,1
    37fc:	4109c83a 	sub	r4,r8,r4
    3800:	4823883a 	mov	r17,r9
    3804:	6021883a 	mov	r16,r12
    3808:	003f4b06 	br	3538 <__addsf3+0x78>
    380c:	01000804 	movi	r4,32
    3810:	22c9c83a 	sub	r4,r4,r11
    3814:	4108983a 	sll	r4,r8,r4
    3818:	42d0d83a 	srl	r8,r8,r11
    381c:	2008c03a 	cmpne	r4,r4,zero
    3820:	2208b03a 	or	r4,r4,r8
    3824:	003f7c06 	br	3618 <__addsf3+0x158>
    3828:	803fb61e 	bne	r16,zero,3704 <__addsf3+0x244>
    382c:	38003a26 	beq	r7,zero,3918 <__addsf3+0x458>
    3830:	40002626 	beq	r8,zero,38cc <__addsf3+0x40c>
    3834:	3a09883a 	add	r4,r7,r8
    3838:	2081002c 	andhi	r2,r4,1024
    383c:	103fa826 	beq	r2,zero,36e0 <__addsf3+0x220>
    3840:	00bf0034 	movhi	r2,64512
    3844:	10bfffc4 	addi	r2,r2,-1
    3848:	2088703a 	and	r4,r4,r2
    384c:	04000044 	movi	r16,1
    3850:	003fa306 	br	36e0 <__addsf3+0x220>
    3854:	383fc726 	beq	r7,zero,3774 <__addsf3+0x2b4>
    3858:	58bfffc4 	addi	r2,r11,-1
    385c:	10000c26 	beq	r2,zero,3890 <__addsf3+0x3d0>
    3860:	5ac03fe0 	cmpeqi	r11,r11,255
    3864:	583fae1e 	bne	r11,zero,3720 <__addsf3+0x260>
    3868:	1017883a 	mov	r11,r2
    386c:	003fba06 	br	3758 <__addsf3+0x298>
    3870:	383fa51e 	bne	r7,zero,3708 <__addsf3+0x248>
    3874:	403fa91e 	bne	r8,zero,371c <__addsf3+0x25c>
    3878:	0023883a 	mov	r17,zero
    387c:	1007883a 	mov	r3,r2
    3880:	003fad06 	br	3738 <__addsf3+0x278>
    3884:	41e5c83a 	sub	r18,r8,r7
    3888:	4823883a 	mov	r17,r9
    388c:	003f2f06 	br	354c <__addsf3+0x8c>
    3890:	3a09883a 	add	r4,r7,r8
    3894:	2081002c 	andhi	r2,r4,1024
    3898:	10001926 	beq	r2,zero,3900 <__addsf3+0x440>
    389c:	04000084 	movi	r16,2
    38a0:	003f6306 	br	3630 <__addsf3+0x170>
    38a4:	3a09c83a 	sub	r4,r7,r8
    38a8:	04000044 	movi	r16,1
    38ac:	003f2206 	br	3538 <__addsf3+0x78>
    38b0:	00800804 	movi	r2,32
    38b4:	12c5c83a 	sub	r2,r2,r11
    38b8:	3884983a 	sll	r2,r7,r2
    38bc:	3aced83a 	srl	r7,r7,r11
    38c0:	1008c03a 	cmpne	r4,r2,zero
    38c4:	21c8b03a 	or	r4,r4,r7
    38c8:	003fcc06 	br	37fc <__addsf3+0x33c>
    38cc:	0021883a 	mov	r16,zero
    38d0:	003f3406 	br	35a4 <__addsf3+0xe4>
    38d4:	01000804 	movi	r4,32
    38d8:	22c9c83a 	sub	r4,r4,r11
    38dc:	3908983a 	sll	r4,r7,r4
    38e0:	3aced83a 	srl	r7,r7,r11
    38e4:	2008c03a 	cmpne	r4,r4,zero
    38e8:	21c8b03a 	or	r4,r4,r7
    38ec:	003f9d06 	br	3764 <__addsf3+0x2a4>
    38f0:	41c9c83a 	sub	r4,r8,r7
    38f4:	4823883a 	mov	r17,r9
    38f8:	04000044 	movi	r16,1
    38fc:	003f0e06 	br	3538 <__addsf3+0x78>
    3900:	04000044 	movi	r16,1
    3904:	003f7606 	br	36e0 <__addsf3+0x220>
    3908:	403fb226 	beq	r8,zero,37d4 <__addsf3+0x314>
    390c:	4823883a 	mov	r17,r9
    3910:	6807883a 	mov	r3,r13
    3914:	003f2306 	br	35a4 <__addsf3+0xe4>
    3918:	6807883a 	mov	r3,r13
    391c:	0021883a 	mov	r16,zero
    3920:	003f2006 	br	35a4 <__addsf3+0xe4>
    3924:	203fab26 	beq	r4,zero,37d4 <__addsf3+0x314>
    3928:	003f6d06 	br	36e0 <__addsf3+0x220>

0000392c <__divsf3>:
    392c:	defff604 	addi	sp,sp,-40
    3930:	2006d5fa 	srli	r3,r4,23
    3934:	dd400615 	stw	r21,24(sp)
    3938:	202ad7fa 	srli	r21,r4,31
    393c:	00802034 	movhi	r2,128
    3940:	dc800315 	stw	r18,12(sp)
    3944:	dc000115 	stw	r16,4(sp)
    3948:	10bfffc4 	addi	r2,r2,-1
    394c:	dfc00915 	stw	ra,36(sp)
    3950:	ddc00815 	stw	r23,32(sp)
    3954:	dd800715 	stw	r22,28(sp)
    3958:	dd000515 	stw	r20,20(sp)
    395c:	dcc00415 	stw	r19,16(sp)
    3960:	dc400215 	stw	r17,8(sp)
    3964:	18c03fcc 	andi	r3,r3,255
    3968:	1120703a 	and	r16,r2,r4
    396c:	a825883a 	mov	r18,r21
    3970:	18007b26 	beq	r3,zero,3b60 <__divsf3+0x234>
    3974:	18803fe0 	cmpeqi	r2,r3,255
    3978:	10007e1e 	bne	r2,zero,3b74 <__divsf3+0x248>
    397c:	800490fa 	slli	r2,r16,3
    3980:	1d3fe044 	addi	r20,r3,-127
    3984:	0023883a 	mov	r17,zero
    3988:	14010034 	orhi	r16,r2,1024
    398c:	002d883a 	mov	r22,zero
    3990:	2806d5fa 	srli	r3,r5,23
    3994:	01002034 	movhi	r4,128
    3998:	213fffc4 	addi	r4,r4,-1
    399c:	18c03fcc 	andi	r3,r3,255
    39a0:	282ed7fa 	srli	r23,r5,31
    39a4:	2166703a 	and	r19,r4,r5
    39a8:	18005326 	beq	r3,zero,3af8 <__divsf3+0x1cc>
    39ac:	18803fe0 	cmpeqi	r2,r3,255
    39b0:	10004d1e 	bne	r2,zero,3ae8 <__divsf3+0x1bc>
    39b4:	980a90fa 	slli	r5,r19,3
    39b8:	18ffe044 	addi	r3,r3,-127
    39bc:	a0e9c83a 	sub	r20,r20,r3
    39c0:	2cc10034 	orhi	r19,r5,1024
    39c4:	0007883a 	mov	r3,zero
    39c8:	1c62b03a 	or	r17,r3,r17
    39cc:	882290ba 	slli	r17,r17,2
    39d0:	00800034 	movhi	r2,0
    39d4:	bd6af03a 	xor	r21,r23,r21
    39d8:	8885883a 	add	r2,r17,r2
    39dc:	108e7a17 	ldw	r2,14824(r2)
    39e0:	a809883a 	mov	r4,r21
    39e4:	1000683a 	jmp	r2
    39e8:	00003cac 	andhi	zero,zero,242
    39ec:	00003bec 	andhi	zero,zero,239
    39f0:	00003a9c 	xori	zero,zero,234
    39f4:	00003a2c 	andhi	zero,zero,232
    39f8:	00003a9c 	xori	zero,zero,234
    39fc:	00003c58 	cmpnei	zero,zero,241
    3a00:	00003a9c 	xori	zero,zero,234
    3a04:	00003a2c 	andhi	zero,zero,232
    3a08:	00003bec 	andhi	zero,zero,239
    3a0c:	00003bec 	andhi	zero,zero,239
    3a10:	00003c58 	cmpnei	zero,zero,241
    3a14:	00003a2c 	andhi	zero,zero,232
    3a18:	00003a38 	rdprs	zero,zero,232
    3a1c:	00003a38 	rdprs	zero,zero,232
    3a20:	00003a38 	rdprs	zero,zero,232
    3a24:	00003c70 	cmpltui	zero,zero,241
    3a28:	0027883a 	mov	r19,zero
    3a2c:	b825883a 	mov	r18,r23
    3a30:	9821883a 	mov	r16,r19
    3a34:	182d883a 	mov	r22,r3
    3a38:	b08000a0 	cmpeqi	r2,r22,2
    3a3c:	1000831e 	bne	r2,zero,3c4c <__divsf3+0x320>
    3a40:	b08000e0 	cmpeqi	r2,r22,3
    3a44:	1000941e 	bne	r2,zero,3c98 <__divsf3+0x36c>
    3a48:	b5800060 	cmpeqi	r22,r22,1
    3a4c:	b000141e 	bne	r22,zero,3aa0 <__divsf3+0x174>
    3a50:	a0801fc4 	addi	r2,r20,127
    3a54:	0080690e 	bge	zero,r2,3bfc <__divsf3+0x2d0>
    3a58:	80c001cc 	andi	r3,r16,7
    3a5c:	18000426 	beq	r3,zero,3a70 <__divsf3+0x144>
    3a60:	80c003cc 	andi	r3,r16,15
    3a64:	18c00120 	cmpeqi	r3,r3,4
    3a68:	1800011e 	bne	r3,zero,3a70 <__divsf3+0x144>
    3a6c:	84000104 	addi	r16,r16,4
    3a70:	80c2002c 	andhi	r3,r16,2048
    3a74:	18000426 	beq	r3,zero,3a88 <__divsf3+0x15c>
    3a78:	00be0034 	movhi	r2,63488
    3a7c:	10bfffc4 	addi	r2,r2,-1
    3a80:	80a0703a 	and	r16,r16,r2
    3a84:	a0802004 	addi	r2,r20,128
    3a88:	10c03fc8 	cmpgei	r3,r2,255
    3a8c:	18006f1e 	bne	r3,zero,3c4c <__divsf3+0x320>
    3a90:	802091ba 	slli	r16,r16,6
    3a94:	8020d27a 	srli	r16,r16,9
    3a98:	00000306 	br	3aa8 <__divsf3+0x17c>
    3a9c:	a825883a 	mov	r18,r21
    3aa0:	0005883a 	mov	r2,zero
    3aa4:	0021883a 	mov	r16,zero
    3aa8:	10803fcc 	andi	r2,r2,255
    3aac:	100495fa 	slli	r2,r2,23
    3ab0:	902497fa 	slli	r18,r18,31
    3ab4:	1404b03a 	or	r2,r2,r16
    3ab8:	1484b03a 	or	r2,r2,r18
    3abc:	dfc00917 	ldw	ra,36(sp)
    3ac0:	ddc00817 	ldw	r23,32(sp)
    3ac4:	dd800717 	ldw	r22,28(sp)
    3ac8:	dd400617 	ldw	r21,24(sp)
    3acc:	dd000517 	ldw	r20,20(sp)
    3ad0:	dcc00417 	ldw	r19,16(sp)
    3ad4:	dc800317 	ldw	r18,12(sp)
    3ad8:	dc400217 	ldw	r17,8(sp)
    3adc:	dc000117 	ldw	r16,4(sp)
    3ae0:	dec00a04 	addi	sp,sp,40
    3ae4:	f800283a 	ret
    3ae8:	a53fc044 	addi	r20,r20,-255
    3aec:	98003d1e 	bne	r19,zero,3be4 <__divsf3+0x2b8>
    3af0:	00c00084 	movi	r3,2
    3af4:	00000206 	br	3b00 <__divsf3+0x1d4>
    3af8:	9800321e 	bne	r19,zero,3bc4 <__divsf3+0x298>
    3afc:	00c00044 	movi	r3,1
    3b00:	1c62b03a 	or	r17,r3,r17
    3b04:	882290ba 	slli	r17,r17,2
    3b08:	00800034 	movhi	r2,0
    3b0c:	bd6af03a 	xor	r21,r23,r21
    3b10:	8885883a 	add	r2,r17,r2
    3b14:	108ec817 	ldw	r2,15136(r2)
    3b18:	a809883a 	mov	r4,r21
    3b1c:	1000683a 	jmp	r2
    3b20:	00003bec 	andhi	zero,zero,239
    3b24:	00003bec 	andhi	zero,zero,239
    3b28:	00003a9c 	xori	zero,zero,234
    3b2c:	00003a28 	cmpgeui	zero,zero,232
    3b30:	00003a9c 	xori	zero,zero,234
    3b34:	00003c58 	cmpnei	zero,zero,241
    3b38:	00003a9c 	xori	zero,zero,234
    3b3c:	00003a28 	cmpgeui	zero,zero,232
    3b40:	00003bec 	andhi	zero,zero,239
    3b44:	00003bec 	andhi	zero,zero,239
    3b48:	00003c58 	cmpnei	zero,zero,241
    3b4c:	00003a28 	cmpgeui	zero,zero,232
    3b50:	00003a38 	rdprs	zero,zero,232
    3b54:	00003a38 	rdprs	zero,zero,232
    3b58:	00003a38 	rdprs	zero,zero,232
    3b5c:	00003c6c 	andhi	zero,zero,241
    3b60:	80000d1e 	bne	r16,zero,3b98 <__divsf3+0x26c>
    3b64:	04400104 	movi	r17,4
    3b68:	0029883a 	mov	r20,zero
    3b6c:	05800044 	movi	r22,1
    3b70:	003f8706 	br	3990 <__divsf3+0x64>
    3b74:	8000041e 	bne	r16,zero,3b88 <__divsf3+0x25c>
    3b78:	04400204 	movi	r17,8
    3b7c:	05003fc4 	movi	r20,255
    3b80:	05800084 	movi	r22,2
    3b84:	003f8206 	br	3990 <__divsf3+0x64>
    3b88:	04400304 	movi	r17,12
    3b8c:	05003fc4 	movi	r20,255
    3b90:	058000c4 	movi	r22,3
    3b94:	003f7e06 	br	3990 <__divsf3+0x64>
    3b98:	8009883a 	mov	r4,r16
    3b9c:	d9400015 	stw	r5,0(sp)
    3ba0:	0004a200 	call	4a20 <__clzsi2>
    3ba4:	10fffec4 	addi	r3,r2,-5
    3ba8:	80e0983a 	sll	r16,r16,r3
    3bac:	00ffe284 	movi	r3,-118
    3bb0:	d9400017 	ldw	r5,0(sp)
    3bb4:	18a9c83a 	sub	r20,r3,r2
    3bb8:	0023883a 	mov	r17,zero
    3bbc:	002d883a 	mov	r22,zero
    3bc0:	003f7306 	br	3990 <__divsf3+0x64>
    3bc4:	9809883a 	mov	r4,r19
    3bc8:	0004a200 	call	4a20 <__clzsi2>
    3bcc:	a087883a 	add	r3,r20,r2
    3bd0:	113ffec4 	addi	r4,r2,-5
    3bd4:	1d001d84 	addi	r20,r3,118
    3bd8:	9926983a 	sll	r19,r19,r4
    3bdc:	0007883a 	mov	r3,zero
    3be0:	003f7906 	br	39c8 <__divsf3+0x9c>
    3be4:	00c000c4 	movi	r3,3
    3be8:	003f7706 	br	39c8 <__divsf3+0x9c>
    3bec:	2025883a 	mov	r18,r4
    3bf0:	00bfffc4 	movi	r2,-1
    3bf4:	0021883a 	mov	r16,zero
    3bf8:	003fab06 	br	3aa8 <__divsf3+0x17c>
    3bfc:	00c00044 	movi	r3,1
    3c00:	1885c83a 	sub	r2,r3,r2
    3c04:	10c00708 	cmpgei	r3,r2,28
    3c08:	183fa51e 	bne	r3,zero,3aa0 <__divsf3+0x174>
    3c0c:	a0c02784 	addi	r3,r20,158
    3c10:	80c6983a 	sll	r3,r16,r3
    3c14:	8084d83a 	srl	r2,r16,r2
    3c18:	1820c03a 	cmpne	r16,r3,zero
    3c1c:	1404b03a 	or	r2,r2,r16
    3c20:	10c001cc 	andi	r3,r2,7
    3c24:	18000426 	beq	r3,zero,3c38 <__divsf3+0x30c>
    3c28:	10c003cc 	andi	r3,r2,15
    3c2c:	18c00120 	cmpeqi	r3,r3,4
    3c30:	1800011e 	bne	r3,zero,3c38 <__divsf3+0x30c>
    3c34:	10800104 	addi	r2,r2,4
    3c38:	10c1002c 	andhi	r3,r2,1024
    3c3c:	18003426 	beq	r3,zero,3d10 <__divsf3+0x3e4>
    3c40:	00800044 	movi	r2,1
    3c44:	0021883a 	mov	r16,zero
    3c48:	003f9706 	br	3aa8 <__divsf3+0x17c>
    3c4c:	00bfffc4 	movi	r2,-1
    3c50:	0021883a 	mov	r16,zero
    3c54:	003f9406 	br	3aa8 <__divsf3+0x17c>
    3c58:	04002034 	movhi	r16,128
    3c5c:	0025883a 	mov	r18,zero
    3c60:	843fffc4 	addi	r16,r16,-1
    3c64:	00bfffc4 	movi	r2,-1
    3c68:	003f8f06 	br	3aa8 <__divsf3+0x17c>
    3c6c:	0027883a 	mov	r19,zero
    3c70:	8080102c 	andhi	r2,r16,64
    3c74:	10000826 	beq	r2,zero,3c98 <__divsf3+0x36c>
    3c78:	9880102c 	andhi	r2,r19,64
    3c7c:	1000061e 	bne	r2,zero,3c98 <__divsf3+0x36c>
    3c80:	00802034 	movhi	r2,128
    3c84:	9c001034 	orhi	r16,r19,64
    3c88:	10bfffc4 	addi	r2,r2,-1
    3c8c:	80a0703a 	and	r16,r16,r2
    3c90:	b825883a 	mov	r18,r23
    3c94:	003ff306 	br	3c64 <__divsf3+0x338>
    3c98:	00802034 	movhi	r2,128
    3c9c:	84001034 	orhi	r16,r16,64
    3ca0:	10bfffc4 	addi	r2,r2,-1
    3ca4:	80a0703a 	and	r16,r16,r2
    3ca8:	003fee06 	br	3c64 <__divsf3+0x338>
    3cac:	8004917a 	slli	r2,r16,5
    3cb0:	980a917a 	slli	r5,r19,5
    3cb4:	1140122e 	bgeu	r2,r5,3d00 <__divsf3+0x3d4>
    3cb8:	a53fffc4 	addi	r20,r20,-1
    3cbc:	010006c4 	movi	r4,27
    3cc0:	0021883a 	mov	r16,zero
    3cc4:	1007883a 	mov	r3,r2
    3cc8:	213fffc4 	addi	r4,r4,-1
    3ccc:	1085883a 	add	r2,r2,r2
    3cd0:	8421883a 	add	r16,r16,r16
    3cd4:	18000116 	blt	r3,zero,3cdc <__divsf3+0x3b0>
    3cd8:	11400236 	bltu	r2,r5,3ce4 <__divsf3+0x3b8>
    3cdc:	1145c83a 	sub	r2,r2,r5
    3ce0:	84000054 	ori	r16,r16,1
    3ce4:	203ff71e 	bne	r4,zero,3cc4 <__divsf3+0x398>
    3ce8:	1004c03a 	cmpne	r2,r2,zero
    3cec:	1420b03a 	or	r16,r2,r16
    3cf0:	a0801fc4 	addi	r2,r20,127
    3cf4:	a825883a 	mov	r18,r21
    3cf8:	00bf5716 	blt	zero,r2,3a58 <__divsf3+0x12c>
    3cfc:	003fbf06 	br	3bfc <__divsf3+0x2d0>
    3d00:	1145c83a 	sub	r2,r2,r5
    3d04:	01000684 	movi	r4,26
    3d08:	04000044 	movi	r16,1
    3d0c:	003fed06 	br	3cc4 <__divsf3+0x398>
    3d10:	102091ba 	slli	r16,r2,6
    3d14:	0005883a 	mov	r2,zero
    3d18:	8020d27a 	srli	r16,r16,9
    3d1c:	003f6206 	br	3aa8 <__divsf3+0x17c>

00003d20 <__eqsf2>:
    3d20:	200cd5fa 	srli	r6,r4,23
    3d24:	2806d5fa 	srli	r3,r5,23
    3d28:	00802034 	movhi	r2,128
    3d2c:	31803fcc 	andi	r6,r6,255
    3d30:	10bfffc4 	addi	r2,r2,-1
    3d34:	31c03fd8 	cmpnei	r7,r6,255
    3d38:	2010d7fa 	srli	r8,r4,31
    3d3c:	2812d7fa 	srli	r9,r5,31
    3d40:	1108703a 	and	r4,r2,r4
    3d44:	18c03fcc 	andi	r3,r3,255
    3d48:	1144703a 	and	r2,r2,r5
    3d4c:	38000626 	beq	r7,zero,3d68 <__eqsf2+0x48>
    3d50:	19403fe0 	cmpeqi	r5,r3,255
    3d54:	2800021e 	bne	r5,zero,3d60 <__eqsf2+0x40>
    3d58:	30c0011e 	bne	r6,r3,3d60 <__eqsf2+0x40>
    3d5c:	20800626 	beq	r4,r2,3d78 <__eqsf2+0x58>
    3d60:	00800044 	movi	r2,1
    3d64:	f800283a 	ret
    3d68:	203ffd1e 	bne	r4,zero,3d60 <__eqsf2+0x40>
    3d6c:	18c03fd8 	cmpnei	r3,r3,255
    3d70:	183ffb1e 	bne	r3,zero,3d60 <__eqsf2+0x40>
    3d74:	103ffa1e 	bne	r2,zero,3d60 <__eqsf2+0x40>
    3d78:	42400326 	beq	r8,r9,3d88 <__eqsf2+0x68>
    3d7c:	303ff81e 	bne	r6,zero,3d60 <__eqsf2+0x40>
    3d80:	2004c03a 	cmpne	r2,r4,zero
    3d84:	f800283a 	ret
    3d88:	0005883a 	mov	r2,zero
    3d8c:	f800283a 	ret

00003d90 <__gesf2>:
    3d90:	200cd5fa 	srli	r6,r4,23
    3d94:	280ed5fa 	srli	r7,r5,23
    3d98:	00c02034 	movhi	r3,128
    3d9c:	31803fcc 	andi	r6,r6,255
    3da0:	18ffffc4 	addi	r3,r3,-1
    3da4:	32003fd8 	cmpnei	r8,r6,255
    3da8:	2012d7fa 	srli	r9,r4,31
    3dac:	2804d7fa 	srli	r2,r5,31
    3db0:	1908703a 	and	r4,r3,r4
    3db4:	1946703a 	and	r3,r3,r5
    3db8:	39403fcc 	andi	r5,r7,255
    3dbc:	40000826 	beq	r8,zero,3de0 <__gesf2+0x50>
    3dc0:	29c03fd8 	cmpnei	r7,r5,255
    3dc4:	38000926 	beq	r7,zero,3dec <__gesf2+0x5c>
    3dc8:	3000121e 	bne	r6,zero,3e14 <__gesf2+0x84>
    3dcc:	28000e1e 	bne	r5,zero,3e08 <__gesf2+0x78>
    3dd0:	18000d1e 	bne	r3,zero,3e08 <__gesf2+0x78>
    3dd4:	2000081e 	bne	r4,zero,3df8 <__gesf2+0x68>
    3dd8:	0005883a 	mov	r2,zero
    3ddc:	f800283a 	ret
    3de0:	2000171e 	bne	r4,zero,3e40 <__gesf2+0xb0>
    3de4:	29c03fe0 	cmpeqi	r7,r5,255
    3de8:	38000a26 	beq	r7,zero,3e14 <__gesf2+0x84>
    3dec:	1800141e 	bne	r3,zero,3e40 <__gesf2+0xb0>
    3df0:	30000526 	beq	r6,zero,3e08 <__gesf2+0x78>
    3df4:	48800a26 	beq	r9,r2,3e20 <__gesf2+0x90>
    3df8:	00800044 	movi	r2,1
    3dfc:	48000426 	beq	r9,zero,3e10 <__gesf2+0x80>
    3e00:	00bfffc4 	movi	r2,-1
    3e04:	f800283a 	ret
    3e08:	203ffa1e 	bne	r4,zero,3df4 <__gesf2+0x64>
    3e0c:	103ffc26 	beq	r2,zero,3e00 <__gesf2+0x70>
    3e10:	f800283a 	ret
    3e14:	283ff71e 	bne	r5,zero,3df4 <__gesf2+0x64>
    3e18:	183ff61e 	bne	r3,zero,3df4 <__gesf2+0x64>
    3e1c:	003ff606 	br	3df8 <__gesf2+0x68>
    3e20:	29800416 	blt	r5,r6,3e34 <__gesf2+0xa4>
    3e24:	317ff916 	blt	r6,r5,3e0c <__gesf2+0x7c>
    3e28:	19000236 	bltu	r3,r4,3e34 <__gesf2+0xa4>
    3e2c:	20ffea2e 	bgeu	r4,r3,3dd8 <__gesf2+0x48>
    3e30:	003ff606 	br	3e0c <__gesf2+0x7c>
    3e34:	103ff21e 	bne	r2,zero,3e00 <__gesf2+0x70>
    3e38:	00800044 	movi	r2,1
    3e3c:	f800283a 	ret
    3e40:	00bfff84 	movi	r2,-2
    3e44:	f800283a 	ret

00003e48 <__lesf2>:
    3e48:	200cd5fa 	srli	r6,r4,23
    3e4c:	280ed5fa 	srli	r7,r5,23
    3e50:	00c02034 	movhi	r3,128
    3e54:	31803fcc 	andi	r6,r6,255
    3e58:	18ffffc4 	addi	r3,r3,-1
    3e5c:	32003fd8 	cmpnei	r8,r6,255
    3e60:	2012d7fa 	srli	r9,r4,31
    3e64:	2804d7fa 	srli	r2,r5,31
    3e68:	1908703a 	and	r4,r3,r4
    3e6c:	1946703a 	and	r3,r3,r5
    3e70:	39403fcc 	andi	r5,r7,255
    3e74:	40000826 	beq	r8,zero,3e98 <__lesf2+0x50>
    3e78:	29c03fd8 	cmpnei	r7,r5,255
    3e7c:	38000926 	beq	r7,zero,3ea4 <__lesf2+0x5c>
    3e80:	3000181e 	bne	r6,zero,3ee4 <__lesf2+0x9c>
    3e84:	2800091e 	bne	r5,zero,3eac <__lesf2+0x64>
    3e88:	1800081e 	bne	r3,zero,3eac <__lesf2+0x64>
    3e8c:	2000091e 	bne	r4,zero,3eb4 <__lesf2+0x6c>
    3e90:	0005883a 	mov	r2,zero
    3e94:	f800283a 	ret
    3e98:	20000a1e 	bne	r4,zero,3ec4 <__lesf2+0x7c>
    3e9c:	29c03fe0 	cmpeqi	r7,r5,255
    3ea0:	38001026 	beq	r7,zero,3ee4 <__lesf2+0x9c>
    3ea4:	1800071e 	bne	r3,zero,3ec4 <__lesf2+0x7c>
    3ea8:	3000011e 	bne	r6,zero,3eb0 <__lesf2+0x68>
    3eac:	20000b26 	beq	r4,zero,3edc <__lesf2+0x94>
    3eb0:	48800626 	beq	r9,r2,3ecc <__lesf2+0x84>
    3eb4:	00800044 	movi	r2,1
    3eb8:	48000926 	beq	r9,zero,3ee0 <__lesf2+0x98>
    3ebc:	00bfffc4 	movi	r2,-1
    3ec0:	f800283a 	ret
    3ec4:	00800084 	movi	r2,2
    3ec8:	f800283a 	ret
    3ecc:	29800816 	blt	r5,r6,3ef0 <__lesf2+0xa8>
    3ed0:	31400216 	blt	r6,r5,3edc <__lesf2+0x94>
    3ed4:	19000636 	bltu	r3,r4,3ef0 <__lesf2+0xa8>
    3ed8:	20ffed2e 	bgeu	r4,r3,3e90 <__lesf2+0x48>
    3edc:	103ff726 	beq	r2,zero,3ebc <__lesf2+0x74>
    3ee0:	f800283a 	ret
    3ee4:	283ff21e 	bne	r5,zero,3eb0 <__lesf2+0x68>
    3ee8:	183ff11e 	bne	r3,zero,3eb0 <__lesf2+0x68>
    3eec:	003ff106 	br	3eb4 <__lesf2+0x6c>
    3ef0:	103ff21e 	bne	r2,zero,3ebc <__lesf2+0x74>
    3ef4:	00800044 	movi	r2,1
    3ef8:	f800283a 	ret

00003efc <__mulsf3>:
    3efc:	defff704 	addi	sp,sp,-36
    3f00:	dc400215 	stw	r17,8(sp)
    3f04:	2022d5fa 	srli	r17,r4,23
    3f08:	dc000115 	stw	r16,4(sp)
    3f0c:	04002034 	movhi	r16,128
    3f10:	dd000515 	stw	r20,20(sp)
    3f14:	843fffc4 	addi	r16,r16,-1
    3f18:	dfc00815 	stw	ra,32(sp)
    3f1c:	dd800715 	stw	r22,28(sp)
    3f20:	dd400615 	stw	r21,24(sp)
    3f24:	dcc00415 	stw	r19,16(sp)
    3f28:	dc800315 	stw	r18,12(sp)
    3f2c:	8c403fcc 	andi	r17,r17,255
    3f30:	2028d7fa 	srli	r20,r4,31
    3f34:	8120703a 	and	r16,r16,r4
    3f38:	88008026 	beq	r17,zero,413c <__mulsf3+0x240>
    3f3c:	88803fe0 	cmpeqi	r2,r17,255
    3f40:	1000831e 	bne	r2,zero,4150 <__mulsf3+0x254>
    3f44:	802090fa 	slli	r16,r16,3
    3f48:	8c7fe044 	addi	r17,r17,-127
    3f4c:	002d883a 	mov	r22,zero
    3f50:	84010034 	orhi	r16,r16,1024
    3f54:	0027883a 	mov	r19,zero
    3f58:	2804d5fa 	srli	r2,r5,23
    3f5c:	01002034 	movhi	r4,128
    3f60:	213fffc4 	addi	r4,r4,-1
    3f64:	10803fcc 	andi	r2,r2,255
    3f68:	282ad7fa 	srli	r21,r5,31
    3f6c:	2164703a 	and	r18,r4,r5
    3f70:	10006e26 	beq	r2,zero,412c <__mulsf3+0x230>
    3f74:	11003fe0 	cmpeqi	r4,r2,255
    3f78:	20007a1e 	bne	r4,zero,4164 <__mulsf3+0x268>
    3f7c:	900890fa 	slli	r4,r18,3
    3f80:	10bfe044 	addi	r2,r2,-127
    3f84:	88a3883a 	add	r17,r17,r2
    3f88:	24810034 	orhi	r18,r4,1024
    3f8c:	0009883a 	mov	r4,zero
    3f90:	b1800428 	cmpgeui	r6,r22,16
    3f94:	a544f03a 	xor	r2,r20,r21
    3f98:	89c00044 	addi	r7,r17,1
    3f9c:	3000321e 	bne	r6,zero,4068 <__mulsf3+0x16c>
    3fa0:	b00690ba 	slli	r3,r22,2
    3fa4:	01800034 	movhi	r6,0
    3fa8:	198d883a 	add	r6,r3,r6
    3fac:	30cfed17 	ldw	r3,16308(r6)
    3fb0:	1800683a 	jmp	r3
    3fb4:	00004068 	cmpgeui	zero,zero,257
    3fb8:	00003ff8 	rdprs	zero,zero,255
    3fbc:	00003ff8 	rdprs	zero,zero,255
    3fc0:	00003ff4 	movhi	zero,255
    3fc4:	00004000 	call	400 <run_ocm_to_ddr_test+0x17c>
    3fc8:	00004000 	call	400 <run_ocm_to_ddr_test+0x17c>
    3fcc:	000041f0 	cmpltui	zero,zero,263
    3fd0:	00003ff4 	movhi	zero,255
    3fd4:	00004000 	call	400 <run_ocm_to_ddr_test+0x17c>
    3fd8:	000041f0 	cmpltui	zero,zero,263
    3fdc:	00004000 	call	400 <run_ocm_to_ddr_test+0x17c>
    3fe0:	00003ff4 	movhi	zero,255
    3fe4:	00004178 	rdprs	zero,zero,261
    3fe8:	00004178 	rdprs	zero,zero,261
    3fec:	00004178 	rdprs	zero,zero,261
    3ff0:	00004254 	movui	zero,265
    3ff4:	a805883a 	mov	r2,r21
    3ff8:	9021883a 	mov	r16,r18
    3ffc:	2027883a 	mov	r19,r4
    4000:	98c000a0 	cmpeqi	r3,r19,2
    4004:	1800151e 	bne	r3,zero,405c <__mulsf3+0x160>
    4008:	98c000e0 	cmpeqi	r3,r19,3
    400c:	1800a31e 	bne	r3,zero,429c <__mulsf3+0x3a0>
    4010:	98c00060 	cmpeqi	r3,r19,1
    4014:	18003226 	beq	r3,zero,40e0 <__mulsf3+0x1e4>
    4018:	0007883a 	mov	r3,zero
    401c:	0009883a 	mov	r4,zero
    4020:	1c003fcc 	andi	r16,r3,255
    4024:	802095fa 	slli	r16,r16,23
    4028:	100497fa 	slli	r2,r2,31
    402c:	8120b03a 	or	r16,r16,r4
    4030:	8084b03a 	or	r2,r16,r2
    4034:	dfc00817 	ldw	ra,32(sp)
    4038:	dd800717 	ldw	r22,28(sp)
    403c:	dd400617 	ldw	r21,24(sp)
    4040:	dd000517 	ldw	r20,20(sp)
    4044:	dcc00417 	ldw	r19,16(sp)
    4048:	dc800317 	ldw	r18,12(sp)
    404c:	dc400217 	ldw	r17,8(sp)
    4050:	dc000117 	ldw	r16,4(sp)
    4054:	dec00904 	addi	sp,sp,36
    4058:	f800283a 	ret
    405c:	00ffffc4 	movi	r3,-1
    4060:	0009883a 	mov	r4,zero
    4064:	003fee06 	br	4020 <__mulsf3+0x124>
    4068:	9012d43a 	srli	r9,r18,16
    406c:	80ffffcc 	andi	r3,r16,65535
    4070:	8010d43a 	srli	r8,r16,16
    4074:	913fffcc 	andi	r4,r18,65535
    4078:	190b383a 	mul	r5,r3,r4
    407c:	4125383a 	mul	r18,r8,r4
    4080:	48cd383a 	mul	r6,r9,r3
    4084:	2806d43a 	srli	r3,r5,16
    4088:	4251383a 	mul	r8,r8,r9
    408c:	348d883a 	add	r6,r6,r18
    4090:	1987883a 	add	r3,r3,r6
    4094:	1c80022e 	bgeu	r3,r18,40a0 <__mulsf3+0x1a4>
    4098:	01000074 	movhi	r4,1
    409c:	4111883a 	add	r8,r8,r4
    40a0:	1808943a 	slli	r4,r3,16
    40a4:	1820d43a 	srli	r16,r3,16
    40a8:	297fffcc 	andi	r5,r5,65535
    40ac:	2149883a 	add	r4,r4,r5
    40b0:	200691ba 	slli	r3,r4,6
    40b4:	8221883a 	add	r16,r16,r8
    40b8:	802091ba 	slli	r16,r16,6
    40bc:	2008d6ba 	srli	r4,r4,26
    40c0:	1806c03a 	cmpne	r3,r3,zero
    40c4:	8142002c 	andhi	r5,r16,2048
    40c8:	1908b03a 	or	r4,r3,r4
    40cc:	8120b03a 	or	r16,r16,r4
    40d0:	28007026 	beq	r5,zero,4294 <__mulsf3+0x398>
    40d4:	8006d07a 	srli	r3,r16,1
    40d8:	8400004c 	andi	r16,r16,1
    40dc:	1c20b03a 	or	r16,r3,r16
    40e0:	38c01fc4 	addi	r3,r7,127
    40e4:	00c0470e 	bge	zero,r3,4204 <__mulsf3+0x308>
    40e8:	810001cc 	andi	r4,r16,7
    40ec:	20000426 	beq	r4,zero,4100 <__mulsf3+0x204>
    40f0:	810003cc 	andi	r4,r16,15
    40f4:	21000120 	cmpeqi	r4,r4,4
    40f8:	2000011e 	bne	r4,zero,4100 <__mulsf3+0x204>
    40fc:	84000104 	addi	r16,r16,4
    4100:	8102002c 	andhi	r4,r16,2048
    4104:	20000426 	beq	r4,zero,4118 <__mulsf3+0x21c>
    4108:	00fe0034 	movhi	r3,63488
    410c:	18ffffc4 	addi	r3,r3,-1
    4110:	80e0703a 	and	r16,r16,r3
    4114:	38c02004 	addi	r3,r7,128
    4118:	19003fc8 	cmpgei	r4,r3,255
    411c:	203fcf1e 	bne	r4,zero,405c <__mulsf3+0x160>
    4120:	802091ba 	slli	r16,r16,6
    4124:	8008d27a 	srli	r4,r16,9
    4128:	003fbd06 	br	4020 <__mulsf3+0x124>
    412c:	9000281e 	bne	r18,zero,41d0 <__mulsf3+0x2d4>
    4130:	b5800054 	ori	r22,r22,1
    4134:	01000044 	movi	r4,1
    4138:	003f9506 	br	3f90 <__mulsf3+0x94>
    413c:	8000191e 	bne	r16,zero,41a4 <__mulsf3+0x2a8>
    4140:	05800104 	movi	r22,4
    4144:	0023883a 	mov	r17,zero
    4148:	04c00044 	movi	r19,1
    414c:	003f8206 	br	3f58 <__mulsf3+0x5c>
    4150:	8000101e 	bne	r16,zero,4194 <__mulsf3+0x298>
    4154:	05800204 	movi	r22,8
    4158:	04403fc4 	movi	r17,255
    415c:	04c00084 	movi	r19,2
    4160:	003f7d06 	br	3f58 <__mulsf3+0x5c>
    4164:	8c403fc4 	addi	r17,r17,255
    4168:	9000071e 	bne	r18,zero,4188 <__mulsf3+0x28c>
    416c:	b5800094 	ori	r22,r22,2
    4170:	01000084 	movi	r4,2
    4174:	003f8606 	br	3f90 <__mulsf3+0x94>
    4178:	98c000a0 	cmpeqi	r3,r19,2
    417c:	a005883a 	mov	r2,r20
    4180:	183fa126 	beq	r3,zero,4008 <__mulsf3+0x10c>
    4184:	003fb506 	br	405c <__mulsf3+0x160>
    4188:	b58000d4 	ori	r22,r22,3
    418c:	010000c4 	movi	r4,3
    4190:	003f7f06 	br	3f90 <__mulsf3+0x94>
    4194:	05800304 	movi	r22,12
    4198:	04403fc4 	movi	r17,255
    419c:	04c000c4 	movi	r19,3
    41a0:	003f6d06 	br	3f58 <__mulsf3+0x5c>
    41a4:	8009883a 	mov	r4,r16
    41a8:	d9400015 	stw	r5,0(sp)
    41ac:	0004a200 	call	4a20 <__clzsi2>
    41b0:	10fffec4 	addi	r3,r2,-5
    41b4:	047fe284 	movi	r17,-118
    41b8:	80e0983a 	sll	r16,r16,r3
    41bc:	d9400017 	ldw	r5,0(sp)
    41c0:	88a3c83a 	sub	r17,r17,r2
    41c4:	002d883a 	mov	r22,zero
    41c8:	0027883a 	mov	r19,zero
    41cc:	003f6206 	br	3f58 <__mulsf3+0x5c>
    41d0:	9009883a 	mov	r4,r18
    41d4:	0004a200 	call	4a20 <__clzsi2>
    41d8:	10fffec4 	addi	r3,r2,-5
    41dc:	88a3c83a 	sub	r17,r17,r2
    41e0:	90e4983a 	sll	r18,r18,r3
    41e4:	8c7fe284 	addi	r17,r17,-118
    41e8:	0009883a 	mov	r4,zero
    41ec:	003f6806 	br	3f90 <__mulsf3+0x94>
    41f0:	01002034 	movhi	r4,128
    41f4:	0005883a 	mov	r2,zero
    41f8:	213fffc4 	addi	r4,r4,-1
    41fc:	00ffffc4 	movi	r3,-1
    4200:	003f8706 	br	4020 <__mulsf3+0x124>
    4204:	01000044 	movi	r4,1
    4208:	20c7c83a 	sub	r3,r4,r3
    420c:	19000708 	cmpgei	r4,r3,28
    4210:	203f811e 	bne	r4,zero,4018 <__mulsf3+0x11c>
    4214:	39002784 	addi	r4,r7,158
    4218:	8108983a 	sll	r4,r16,r4
    421c:	80e0d83a 	srl	r16,r16,r3
    4220:	2008c03a 	cmpne	r4,r4,zero
    4224:	8120b03a 	or	r16,r16,r4
    4228:	80c001cc 	andi	r3,r16,7
    422c:	18000426 	beq	r3,zero,4240 <__mulsf3+0x344>
    4230:	80c003cc 	andi	r3,r16,15
    4234:	18c00120 	cmpeqi	r3,r3,4
    4238:	1800011e 	bne	r3,zero,4240 <__mulsf3+0x344>
    423c:	84000104 	addi	r16,r16,4
    4240:	80c1002c 	andhi	r3,r16,1024
    4244:	183fb626 	beq	r3,zero,4120 <__mulsf3+0x224>
    4248:	00c00044 	movi	r3,1
    424c:	0009883a 	mov	r4,zero
    4250:	003f7306 	br	4020 <__mulsf3+0x124>
    4254:	8080102c 	andhi	r2,r16,64
    4258:	10000826 	beq	r2,zero,427c <__mulsf3+0x380>
    425c:	9080102c 	andhi	r2,r18,64
    4260:	1000061e 	bne	r2,zero,427c <__mulsf3+0x380>
    4264:	00802034 	movhi	r2,128
    4268:	10bfffc4 	addi	r2,r2,-1
    426c:	91001034 	orhi	r4,r18,64
    4270:	2088703a 	and	r4,r4,r2
    4274:	a805883a 	mov	r2,r21
    4278:	003fe006 	br	41fc <__mulsf3+0x300>
    427c:	00802034 	movhi	r2,128
    4280:	10bfffc4 	addi	r2,r2,-1
    4284:	81001034 	orhi	r4,r16,64
    4288:	2088703a 	and	r4,r4,r2
    428c:	a005883a 	mov	r2,r20
    4290:	003fda06 	br	41fc <__mulsf3+0x300>
    4294:	880f883a 	mov	r7,r17
    4298:	003f9106 	br	40e0 <__mulsf3+0x1e4>
    429c:	00c02034 	movhi	r3,128
    42a0:	81001034 	orhi	r4,r16,64
    42a4:	18ffffc4 	addi	r3,r3,-1
    42a8:	20c8703a 	and	r4,r4,r3
    42ac:	003fd306 	br	41fc <__mulsf3+0x300>

000042b0 <__subsf3>:
    42b0:	2804d5fa 	srli	r2,r5,23
    42b4:	2006d5fa 	srli	r3,r4,23
    42b8:	200cd7fa 	srli	r6,r4,31
    42bc:	01c02034 	movhi	r7,128
    42c0:	defffc04 	addi	sp,sp,-16
    42c4:	39ffffc4 	addi	r7,r7,-1
    42c8:	12803fcc 	andi	r10,r2,255
    42cc:	3908703a 	and	r4,r7,r4
    42d0:	dc800215 	stw	r18,8(sp)
    42d4:	394e703a 	and	r7,r7,r5
    42d8:	dc400115 	stw	r17,4(sp)
    42dc:	1c803fcc 	andi	r18,r3,255
    42e0:	dfc00315 	stw	ra,12(sp)
    42e4:	dc000015 	stw	r16,0(sp)
    42e8:	50803fd8 	cmpnei	r2,r10,255
    42ec:	3023883a 	mov	r17,r6
    42f0:	201090fa 	slli	r8,r4,3
    42f4:	280ad7fa 	srli	r5,r5,31
    42f8:	381290fa 	slli	r9,r7,3
    42fc:	2019883a 	mov	r12,r4
    4300:	31803fcc 	andi	r6,r6,255
    4304:	9297c83a 	sub	r11,r18,r10
    4308:	10003f26 	beq	r2,zero,4408 <__subsf3+0x158>
    430c:	2880005c 	xori	r2,r5,1
    4310:	30804526 	beq	r6,r2,4428 <__subsf3+0x178>
    4314:	02c0310e 	bge	zero,r11,43dc <__subsf3+0x12c>
    4318:	50003f1e 	bne	r10,zero,4418 <__subsf3+0x168>
    431c:	48009526 	beq	r9,zero,4574 <__subsf3+0x2c4>
    4320:	58bfffc4 	addi	r2,r11,-1
    4324:	1000de26 	beq	r2,zero,46a0 <__subsf3+0x3f0>
    4328:	59003fe0 	cmpeqi	r4,r11,255
    432c:	20007d1e 	bne	r4,zero,4524 <__subsf3+0x274>
    4330:	1017883a 	mov	r11,r2
    4334:	58800710 	cmplti	r2,r11,28
    4338:	10009a1e 	bne	r2,zero,45a4 <__subsf3+0x2f4>
    433c:	01000044 	movi	r4,1
    4340:	4109c83a 	sub	r4,r8,r4
    4344:	2081002c 	andhi	r2,r4,1024
    4348:	10006a26 	beq	r2,zero,44f4 <__subsf3+0x244>
    434c:	04010034 	movhi	r16,1024
    4350:	843fffc4 	addi	r16,r16,-1
    4354:	2420703a 	and	r16,r4,r16
    4358:	8009883a 	mov	r4,r16
    435c:	0004a200 	call	4a20 <__clzsi2>
    4360:	10bffec4 	addi	r2,r2,-5
    4364:	8088983a 	sll	r4,r16,r2
    4368:	1480840e 	bge	r2,r18,457c <__subsf3+0x2cc>
    436c:	00ff0034 	movhi	r3,64512
    4370:	18ffffc4 	addi	r3,r3,-1
    4374:	90a5c83a 	sub	r18,r18,r2
    4378:	20c8703a 	and	r4,r4,r3
    437c:	208001cc 	andi	r2,r4,7
    4380:	10000426 	beq	r2,zero,4394 <__subsf3+0xe4>
    4384:	208003cc 	andi	r2,r4,15
    4388:	10800120 	cmpeqi	r2,r2,4
    438c:	1000011e 	bne	r2,zero,4394 <__subsf3+0xe4>
    4390:	21000104 	addi	r4,r4,4
    4394:	2081002c 	andhi	r2,r4,1024
    4398:	10005826 	beq	r2,zero,44fc <__subsf3+0x24c>
    439c:	90c00044 	addi	r3,r18,1
    43a0:	18803fe0 	cmpeqi	r2,r3,255
    43a4:	1000481e 	bne	r2,zero,44c8 <__subsf3+0x218>
    43a8:	200891ba 	slli	r4,r4,6
    43ac:	2008d27a 	srli	r4,r4,9
    43b0:	18803fcc 	andi	r2,r3,255
    43b4:	100495fa 	slli	r2,r2,23
    43b8:	880697fa 	slli	r3,r17,31
    43bc:	1108b03a 	or	r4,r2,r4
    43c0:	20c4b03a 	or	r2,r4,r3
    43c4:	dfc00317 	ldw	ra,12(sp)
    43c8:	dc800217 	ldw	r18,8(sp)
    43cc:	dc400117 	ldw	r17,4(sp)
    43d0:	dc000017 	ldw	r16,0(sp)
    43d4:	dec00404 	addi	sp,sp,16
    43d8:	f800283a 	ret
    43dc:	58002726 	beq	r11,zero,447c <__subsf3+0x1cc>
    43e0:	5497c83a 	sub	r11,r10,r18
    43e4:	1023883a 	mov	r17,r2
    43e8:	9000751e 	bne	r18,zero,45c0 <__subsf3+0x310>
    43ec:	40006026 	beq	r8,zero,4570 <__subsf3+0x2c0>
    43f0:	58bfffc4 	addi	r2,r11,-1
    43f4:	1000cb26 	beq	r2,zero,4724 <__subsf3+0x474>
    43f8:	5ac03fe0 	cmpeqi	r11,r11,255
    43fc:	5800481e 	bne	r11,zero,4520 <__subsf3+0x270>
    4400:	1017883a 	mov	r11,r2
    4404:	00007106 	br	45cc <__subsf3+0x31c>
    4408:	483fc026 	beq	r9,zero,430c <__subsf3+0x5c>
    440c:	28803fcc 	andi	r2,r5,255
    4410:	31404b26 	beq	r6,r5,4540 <__subsf3+0x290>
    4414:	02fff10e 	bge	zero,r11,43dc <__subsf3+0x12c>
    4418:	90803fe0 	cmpeqi	r2,r18,255
    441c:	1000411e 	bne	r2,zero,4524 <__subsf3+0x274>
    4420:	4a410034 	orhi	r9,r9,1024
    4424:	003fc306 	br	4334 <__subsf3+0x84>
    4428:	02c0450e 	bge	zero,r11,4540 <__subsf3+0x290>
    442c:	50001f26 	beq	r10,zero,44ac <__subsf3+0x1fc>
    4430:	90803fe0 	cmpeqi	r2,r18,255
    4434:	10003b1e 	bne	r2,zero,4524 <__subsf3+0x274>
    4438:	4a410034 	orhi	r9,r9,1024
    443c:	58800710 	cmplti	r2,r11,28
    4440:	1000701e 	bne	r2,zero,4604 <__subsf3+0x354>
    4444:	01000044 	movi	r4,1
    4448:	2209883a 	add	r4,r4,r8
    444c:	2081002c 	andhi	r2,r4,1024
    4450:	10002826 	beq	r2,zero,44f4 <__subsf3+0x244>
    4454:	94800044 	addi	r18,r18,1
    4458:	90803fe0 	cmpeqi	r2,r18,255
    445c:	10001a1e 	bne	r2,zero,44c8 <__subsf3+0x218>
    4460:	2004d07a 	srli	r2,r4,1
    4464:	00df8034 	movhi	r3,32256
    4468:	18ffffc4 	addi	r3,r3,-1
    446c:	2100004c 	andi	r4,r4,1
    4470:	10c4703a 	and	r2,r2,r3
    4474:	1108b03a 	or	r4,r2,r4
    4478:	003fc006 	br	437c <__subsf3+0xcc>
    447c:	90c00044 	addi	r3,r18,1
    4480:	18c03f8c 	andi	r3,r3,254
    4484:	1800571e 	bne	r3,zero,45e4 <__subsf3+0x334>
    4488:	90007a1e 	bne	r18,zero,4674 <__subsf3+0x3c4>
    448c:	4000a126 	beq	r8,zero,4714 <__subsf3+0x464>
    4490:	48008d26 	beq	r9,zero,46c8 <__subsf3+0x418>
    4494:	4249c83a 	sub	r4,r8,r9
    4498:	20c1002c 	andhi	r3,r4,1024
    449c:	1800a726 	beq	r3,zero,473c <__subsf3+0x48c>
    44a0:	4a09c83a 	sub	r4,r9,r8
    44a4:	1023883a 	mov	r17,r2
    44a8:	003fb406 	br	437c <__subsf3+0xcc>
    44ac:	48003126 	beq	r9,zero,4574 <__subsf3+0x2c4>
    44b0:	58bfffc4 	addi	r2,r11,-1
    44b4:	10007526 	beq	r2,zero,468c <__subsf3+0x3dc>
    44b8:	5ac03fe0 	cmpeqi	r11,r11,255
    44bc:	5800191e 	bne	r11,zero,4524 <__subsf3+0x274>
    44c0:	1017883a 	mov	r11,r2
    44c4:	003fdd06 	br	443c <__subsf3+0x18c>
    44c8:	00ffffc4 	movi	r3,-1
    44cc:	0009883a 	mov	r4,zero
    44d0:	003fb706 	br	43b0 <__subsf3+0x100>
    44d4:	90c00044 	addi	r3,r18,1
    44d8:	19403f8c 	andi	r5,r3,254
    44dc:	28005026 	beq	r5,zero,4620 <__subsf3+0x370>
    44e0:	18803fe0 	cmpeqi	r2,r3,255
    44e4:	103ff81e 	bne	r2,zero,44c8 <__subsf3+0x218>
    44e8:	4249883a 	add	r4,r8,r9
    44ec:	2008d07a 	srli	r4,r4,1
    44f0:	1825883a 	mov	r18,r3
    44f4:	208001cc 	andi	r2,r4,7
    44f8:	103fa21e 	bne	r2,zero,4384 <__subsf3+0xd4>
    44fc:	2018d0fa 	srli	r12,r4,3
    4500:	90803fe0 	cmpeqi	r2,r18,255
    4504:	1000071e 	bne	r2,zero,4524 <__subsf3+0x274>
    4508:	01002034 	movhi	r4,128
    450c:	213fffc4 	addi	r4,r4,-1
    4510:	6108703a 	and	r4,r12,r4
    4514:	9007883a 	mov	r3,r18
    4518:	003fa506 	br	43b0 <__subsf3+0x100>
    451c:	40006c1e 	bne	r8,zero,46d0 <__subsf3+0x420>
    4520:	3819883a 	mov	r12,r7
    4524:	603fe826 	beq	r12,zero,44c8 <__subsf3+0x218>
    4528:	00802034 	movhi	r2,128
    452c:	61001034 	orhi	r4,r12,64
    4530:	10bfffc4 	addi	r2,r2,-1
    4534:	2088703a 	and	r4,r4,r2
    4538:	00ffffc4 	movi	r3,-1
    453c:	003f9c06 	br	43b0 <__subsf3+0x100>
    4540:	583fe426 	beq	r11,zero,44d4 <__subsf3+0x224>
    4544:	5497c83a 	sub	r11,r10,r18
    4548:	90004026 	beq	r18,zero,464c <__subsf3+0x39c>
    454c:	50803fe0 	cmpeqi	r2,r10,255
    4550:	103ff31e 	bne	r2,zero,4520 <__subsf3+0x270>
    4554:	42010034 	orhi	r8,r8,1024
    4558:	58800710 	cmplti	r2,r11,28
    455c:	1000641e 	bne	r2,zero,46f0 <__subsf3+0x440>
    4560:	01000044 	movi	r4,1
    4564:	2249883a 	add	r4,r4,r9
    4568:	5025883a 	mov	r18,r10
    456c:	003fb706 	br	444c <__subsf3+0x19c>
    4570:	3819883a 	mov	r12,r7
    4574:	5825883a 	mov	r18,r11
    4578:	003fe106 	br	4500 <__subsf3+0x250>
    457c:	1485c83a 	sub	r2,r2,r18
    4580:	14000044 	addi	r16,r2,1
    4584:	00800804 	movi	r2,32
    4588:	1405c83a 	sub	r2,r2,r16
    458c:	2084983a 	sll	r2,r4,r2
    4590:	2408d83a 	srl	r4,r4,r16
    4594:	0025883a 	mov	r18,zero
    4598:	1004c03a 	cmpne	r2,r2,zero
    459c:	1108b03a 	or	r4,r2,r4
    45a0:	003f7606 	br	437c <__subsf3+0xcc>
    45a4:	01000804 	movi	r4,32
    45a8:	22c9c83a 	sub	r4,r4,r11
    45ac:	4908983a 	sll	r4,r9,r4
    45b0:	4ad2d83a 	srl	r9,r9,r11
    45b4:	2008c03a 	cmpne	r4,r4,zero
    45b8:	2248b03a 	or	r4,r4,r9
    45bc:	003f6006 	br	4340 <__subsf3+0x90>
    45c0:	50803fe0 	cmpeqi	r2,r10,255
    45c4:	103fd61e 	bne	r2,zero,4520 <__subsf3+0x270>
    45c8:	42010034 	orhi	r8,r8,1024
    45cc:	58800710 	cmplti	r2,r11,28
    45d0:	1000361e 	bne	r2,zero,46ac <__subsf3+0x3fc>
    45d4:	01000044 	movi	r4,1
    45d8:	4909c83a 	sub	r4,r9,r4
    45dc:	5025883a 	mov	r18,r10
    45e0:	003f5806 	br	4344 <__subsf3+0x94>
    45e4:	4261c83a 	sub	r16,r8,r9
    45e8:	80c1002c 	andhi	r3,r16,1024
    45ec:	18001e1e 	bne	r3,zero,4668 <__subsf3+0x3b8>
    45f0:	803f591e 	bne	r16,zero,4358 <__subsf3+0xa8>
    45f4:	0023883a 	mov	r17,zero
    45f8:	0007883a 	mov	r3,zero
    45fc:	0009883a 	mov	r4,zero
    4600:	003f6b06 	br	43b0 <__subsf3+0x100>
    4604:	01000804 	movi	r4,32
    4608:	22c9c83a 	sub	r4,r4,r11
    460c:	4908983a 	sll	r4,r9,r4
    4610:	4ad2d83a 	srl	r9,r9,r11
    4614:	2008c03a 	cmpne	r4,r4,zero
    4618:	2248b03a 	or	r4,r4,r9
    461c:	003f8a06 	br	4448 <__subsf3+0x198>
    4620:	903fbe1e 	bne	r18,zero,451c <__subsf3+0x26c>
    4624:	40004226 	beq	r8,zero,4730 <__subsf3+0x480>
    4628:	48002726 	beq	r9,zero,46c8 <__subsf3+0x418>
    462c:	4249883a 	add	r4,r8,r9
    4630:	2081002c 	andhi	r2,r4,1024
    4634:	103faf26 	beq	r2,zero,44f4 <__subsf3+0x244>
    4638:	00bf0034 	movhi	r2,64512
    463c:	10bfffc4 	addi	r2,r2,-1
    4640:	2088703a 	and	r4,r4,r2
    4644:	04800044 	movi	r18,1
    4648:	003faa06 	br	44f4 <__subsf3+0x244>
    464c:	403fc826 	beq	r8,zero,4570 <__subsf3+0x2c0>
    4650:	58bfffc4 	addi	r2,r11,-1
    4654:	10000d26 	beq	r2,zero,468c <__subsf3+0x3dc>
    4658:	5ac03fe0 	cmpeqi	r11,r11,255
    465c:	583fb01e 	bne	r11,zero,4520 <__subsf3+0x270>
    4660:	1017883a 	mov	r11,r2
    4664:	003fbc06 	br	4558 <__subsf3+0x2a8>
    4668:	4a21c83a 	sub	r16,r9,r8
    466c:	1023883a 	mov	r17,r2
    4670:	003f3906 	br	4358 <__subsf3+0xa8>
    4674:	4000161e 	bne	r8,zero,46d0 <__subsf3+0x420>
    4678:	48001a1e 	bne	r9,zero,46e4 <__subsf3+0x434>
    467c:	01002034 	movhi	r4,128
    4680:	0023883a 	mov	r17,zero
    4684:	213fffc4 	addi	r4,r4,-1
    4688:	003fab06 	br	4538 <__subsf3+0x288>
    468c:	4249883a 	add	r4,r8,r9
    4690:	2081002c 	andhi	r2,r4,1024
    4694:	10001d26 	beq	r2,zero,470c <__subsf3+0x45c>
    4698:	04800084 	movi	r18,2
    469c:	003f7006 	br	4460 <__subsf3+0x1b0>
    46a0:	4249c83a 	sub	r4,r8,r9
    46a4:	04800044 	movi	r18,1
    46a8:	003f2606 	br	4344 <__subsf3+0x94>
    46ac:	00c00804 	movi	r3,32
    46b0:	1ac7c83a 	sub	r3,r3,r11
    46b4:	40c6983a 	sll	r3,r8,r3
    46b8:	42d0d83a 	srl	r8,r8,r11
    46bc:	1808c03a 	cmpne	r4,r3,zero
    46c0:	2208b03a 	or	r4,r4,r8
    46c4:	003fc406 	br	45d8 <__subsf3+0x328>
    46c8:	0007883a 	mov	r3,zero
    46cc:	003f3806 	br	43b0 <__subsf3+0x100>
    46d0:	483f9426 	beq	r9,zero,4524 <__subsf3+0x274>
    46d4:	2100102c 	andhi	r4,r4,64
    46d8:	203f9226 	beq	r4,zero,4524 <__subsf3+0x274>
    46dc:	38c0102c 	andhi	r3,r7,64
    46e0:	183f901e 	bne	r3,zero,4524 <__subsf3+0x274>
    46e4:	1023883a 	mov	r17,r2
    46e8:	3819883a 	mov	r12,r7
    46ec:	003f8d06 	br	4524 <__subsf3+0x274>
    46f0:	01000804 	movi	r4,32
    46f4:	22c9c83a 	sub	r4,r4,r11
    46f8:	4106983a 	sll	r3,r8,r4
    46fc:	42d0d83a 	srl	r8,r8,r11
    4700:	1808c03a 	cmpne	r4,r3,zero
    4704:	2208b03a 	or	r4,r4,r8
    4708:	003f9606 	br	4564 <__subsf3+0x2b4>
    470c:	04800044 	movi	r18,1
    4710:	003f7806 	br	44f4 <__subsf3+0x244>
    4714:	483fb726 	beq	r9,zero,45f4 <__subsf3+0x344>
    4718:	1023883a 	mov	r17,r2
    471c:	3809883a 	mov	r4,r7
    4720:	003f2306 	br	43b0 <__subsf3+0x100>
    4724:	4a09c83a 	sub	r4,r9,r8
    4728:	04800044 	movi	r18,1
    472c:	003f0506 	br	4344 <__subsf3+0x94>
    4730:	3809883a 	mov	r4,r7
    4734:	0007883a 	mov	r3,zero
    4738:	003f1d06 	br	43b0 <__subsf3+0x100>
    473c:	203fad26 	beq	r4,zero,45f4 <__subsf3+0x344>
    4740:	003f6c06 	br	44f4 <__subsf3+0x244>

00004744 <__unordsf2>:
    4744:	2006d5fa 	srli	r3,r4,23
    4748:	00802034 	movhi	r2,128
    474c:	10bfffc4 	addi	r2,r2,-1
    4750:	18c03fcc 	andi	r3,r3,255
    4754:	18c03fd8 	cmpnei	r3,r3,255
    4758:	1108703a 	and	r4,r2,r4
    475c:	280cd5fa 	srli	r6,r5,23
    4760:	1144703a 	and	r2,r2,r5
    4764:	18000526 	beq	r3,zero,477c <__unordsf2+0x38>
    4768:	31803fcc 	andi	r6,r6,255
    476c:	31803fd8 	cmpnei	r6,r6,255
    4770:	30000526 	beq	r6,zero,4788 <__unordsf2+0x44>
    4774:	0005883a 	mov	r2,zero
    4778:	f800283a 	ret
    477c:	203ffa26 	beq	r4,zero,4768 <__unordsf2+0x24>
    4780:	00800044 	movi	r2,1
    4784:	f800283a 	ret
    4788:	1004c03a 	cmpne	r2,r2,zero
    478c:	f800283a 	ret

00004790 <__fixsfsi>:
    4790:	200ad5fa 	srli	r5,r4,23
    4794:	00c02034 	movhi	r3,128
    4798:	18ffffc4 	addi	r3,r3,-1
    479c:	29403fcc 	andi	r5,r5,255
    47a0:	29801fd0 	cmplti	r6,r5,127
    47a4:	200ed7fa 	srli	r7,r4,31
    47a8:	1906703a 	and	r3,r3,r4
    47ac:	3000061e 	bne	r6,zero,47c8 <__fixsfsi+0x38>
    47b0:	28802790 	cmplti	r2,r5,158
    47b4:	1000061e 	bne	r2,zero,47d0 <__fixsfsi+0x40>
    47b8:	00a00034 	movhi	r2,32768
    47bc:	10bfffc4 	addi	r2,r2,-1
    47c0:	3885883a 	add	r2,r7,r2
    47c4:	f800283a 	ret
    47c8:	0005883a 	mov	r2,zero
    47cc:	f800283a 	ret
    47d0:	28802590 	cmplti	r2,r5,150
    47d4:	18c02034 	orhi	r3,r3,128
    47d8:	1000051e 	bne	r2,zero,47f0 <__fixsfsi+0x60>
    47dc:	28bfda84 	addi	r2,r5,-150
    47e0:	1884983a 	sll	r2,r3,r2
    47e4:	383ff926 	beq	r7,zero,47cc <__fixsfsi+0x3c>
    47e8:	0085c83a 	sub	r2,zero,r2
    47ec:	f800283a 	ret
    47f0:	00802584 	movi	r2,150
    47f4:	1145c83a 	sub	r2,r2,r5
    47f8:	1884d83a 	srl	r2,r3,r2
    47fc:	003ff906 	br	47e4 <__fixsfsi+0x54>

00004800 <__floatsisf>:
    4800:	defffd04 	addi	sp,sp,-12
    4804:	dfc00215 	stw	ra,8(sp)
    4808:	dc400115 	stw	r17,4(sp)
    480c:	dc000015 	stw	r16,0(sp)
    4810:	20001226 	beq	r4,zero,485c <__floatsisf+0x5c>
    4814:	2022d7fa 	srli	r17,r4,31
    4818:	2021883a 	mov	r16,r4
    481c:	20003816 	blt	r4,zero,4900 <__floatsisf+0x100>
    4820:	8009883a 	mov	r4,r16
    4824:	0004a200 	call	4a20 <__clzsi2>
    4828:	1009883a 	mov	r4,r2
    482c:	00802784 	movi	r2,158
    4830:	1105c83a 	sub	r2,r2,r4
    4834:	10c025c8 	cmpgei	r3,r2,151
    4838:	1800151e 	bne	r3,zero,4890 <__floatsisf+0x90>
    483c:	20c00248 	cmpgei	r3,r4,9
    4840:	18003126 	beq	r3,zero,4908 <__floatsisf+0x108>
    4844:	213ffe04 	addi	r4,r4,-8
    4848:	8120983a 	sll	r16,r16,r4
    484c:	00c02034 	movhi	r3,128
    4850:	18ffffc4 	addi	r3,r3,-1
    4854:	80e0703a 	and	r16,r16,r3
    4858:	00000306 	br	4868 <__floatsisf+0x68>
    485c:	0023883a 	mov	r17,zero
    4860:	0005883a 	mov	r2,zero
    4864:	0021883a 	mov	r16,zero
    4868:	10803fcc 	andi	r2,r2,255
    486c:	100495fa 	slli	r2,r2,23
    4870:	882297fa 	slli	r17,r17,31
    4874:	1404b03a 	or	r2,r2,r16
    4878:	1444b03a 	or	r2,r2,r17
    487c:	dfc00217 	ldw	ra,8(sp)
    4880:	dc400117 	ldw	r17,4(sp)
    4884:	dc000017 	ldw	r16,0(sp)
    4888:	dec00304 	addi	sp,sp,12
    488c:	f800283a 	ret
    4890:	10c02690 	cmplti	r3,r2,154
    4894:	1800071e 	bne	r3,zero,48b4 <__floatsisf+0xb4>
    4898:	20c006c4 	addi	r3,r4,27
    489c:	01400144 	movi	r5,5
    48a0:	80c6983a 	sll	r3,r16,r3
    48a4:	290bc83a 	sub	r5,r5,r4
    48a8:	814ad83a 	srl	r5,r16,r5
    48ac:	1806c03a 	cmpne	r3,r3,zero
    48b0:	28e0b03a 	or	r16,r5,r3
    48b4:	20c00188 	cmpgei	r3,r4,6
    48b8:	1800171e 	bne	r3,zero,4918 <__floatsisf+0x118>
    48bc:	00ff0034 	movhi	r3,64512
    48c0:	18ffffc4 	addi	r3,r3,-1
    48c4:	818001cc 	andi	r6,r16,7
    48c8:	80ca703a 	and	r5,r16,r3
    48cc:	30000926 	beq	r6,zero,48f4 <__floatsisf+0xf4>
    48d0:	818003cc 	andi	r6,r16,15
    48d4:	31800120 	cmpeqi	r6,r6,4
    48d8:	3000061e 	bne	r6,zero,48f4 <__floatsisf+0xf4>
    48dc:	29400104 	addi	r5,r5,4
    48e0:	2981002c 	andhi	r6,r5,1024
    48e4:	30000326 	beq	r6,zero,48f4 <__floatsisf+0xf4>
    48e8:	28ca703a 	and	r5,r5,r3
    48ec:	00c027c4 	movi	r3,159
    48f0:	1905c83a 	sub	r2,r3,r4
    48f4:	282091ba 	slli	r16,r5,6
    48f8:	8020d27a 	srli	r16,r16,9
    48fc:	003fda06 	br	4868 <__floatsisf+0x68>
    4900:	0121c83a 	sub	r16,zero,r4
    4904:	003fc606 	br	4820 <__floatsisf+0x20>
    4908:	01002034 	movhi	r4,128
    490c:	213fffc4 	addi	r4,r4,-1
    4910:	8120703a 	and	r16,r16,r4
    4914:	003fd406 	br	4868 <__floatsisf+0x68>
    4918:	20fffec4 	addi	r3,r4,-5
    491c:	80e0983a 	sll	r16,r16,r3
    4920:	003fe606 	br	48bc <__floatsisf+0xbc>

00004924 <__extendsfdf2>:
    4924:	200ad5fa 	srli	r5,r4,23
    4928:	defffd04 	addi	sp,sp,-12
    492c:	dc000015 	stw	r16,0(sp)
    4930:	29403fcc 	andi	r5,r5,255
    4934:	04002034 	movhi	r16,128
    4938:	28800044 	addi	r2,r5,1
    493c:	dc400115 	stw	r17,4(sp)
    4940:	843fffc4 	addi	r16,r16,-1
    4944:	dfc00215 	stw	ra,8(sp)
    4948:	10803f8c 	andi	r2,r2,254
    494c:	2022d7fa 	srli	r17,r4,31
    4950:	8120703a 	and	r16,r16,r4
    4954:	10000d26 	beq	r2,zero,498c <__extendsfdf2+0x68>
    4958:	8008d0fa 	srli	r4,r16,3
    495c:	8020977a 	slli	r16,r16,29
    4960:	28c0e004 	addi	r3,r5,896
    4964:	180a953a 	slli	r5,r3,20
    4968:	880697fa 	slli	r3,r17,31
    496c:	8005883a 	mov	r2,r16
    4970:	290ab03a 	or	r5,r5,r4
    4974:	28c6b03a 	or	r3,r5,r3
    4978:	dfc00217 	ldw	ra,8(sp)
    497c:	dc400117 	ldw	r17,4(sp)
    4980:	dc000017 	ldw	r16,0(sp)
    4984:	dec00304 	addi	sp,sp,12
    4988:	f800283a 	ret
    498c:	2800111e 	bne	r5,zero,49d4 <__extendsfdf2+0xb0>
    4990:	80001926 	beq	r16,zero,49f8 <__extendsfdf2+0xd4>
    4994:	8009883a 	mov	r4,r16
    4998:	0004a200 	call	4a20 <__clzsi2>
    499c:	10c002c8 	cmpgei	r3,r2,11
    49a0:	18001b1e 	bne	r3,zero,4a10 <__extendsfdf2+0xec>
    49a4:	010002c4 	movi	r4,11
    49a8:	2089c83a 	sub	r4,r4,r2
    49ac:	10c00544 	addi	r3,r2,21
    49b0:	810ad83a 	srl	r5,r16,r4
    49b4:	80e0983a 	sll	r16,r16,r3
    49b8:	01000434 	movhi	r4,16
    49bc:	00c0e244 	movi	r3,905
    49c0:	213fffc4 	addi	r4,r4,-1
    49c4:	1887c83a 	sub	r3,r3,r2
    49c8:	2908703a 	and	r4,r5,r4
    49cc:	18c1ffcc 	andi	r3,r3,2047
    49d0:	003fe406 	br	4964 <__extendsfdf2+0x40>
    49d4:	80000b26 	beq	r16,zero,4a04 <__extendsfdf2+0xe0>
    49d8:	800ad0fa 	srli	r5,r16,3
    49dc:	00800434 	movhi	r2,16
    49e0:	10bfffc4 	addi	r2,r2,-1
    49e4:	29000234 	orhi	r4,r5,8
    49e8:	8020977a 	slli	r16,r16,29
    49ec:	2088703a 	and	r4,r4,r2
    49f0:	00c1ffc4 	movi	r3,2047
    49f4:	003fdb06 	br	4964 <__extendsfdf2+0x40>
    49f8:	0007883a 	mov	r3,zero
    49fc:	0009883a 	mov	r4,zero
    4a00:	003fd806 	br	4964 <__extendsfdf2+0x40>
    4a04:	00c1ffc4 	movi	r3,2047
    4a08:	0009883a 	mov	r4,zero
    4a0c:	003fd506 	br	4964 <__extendsfdf2+0x40>
    4a10:	113ffd44 	addi	r4,r2,-11
    4a14:	810a983a 	sll	r5,r16,r4
    4a18:	0021883a 	mov	r16,zero
    4a1c:	003fe606 	br	49b8 <__extendsfdf2+0x94>

00004a20 <__clzsi2>:
    4a20:	00bfffd4 	movui	r2,65535
    4a24:	11000436 	bltu	r2,r4,4a38 <__clzsi2+0x18>
    4a28:	20804030 	cmpltui	r2,r4,256
    4a2c:	10000e26 	beq	r2,zero,4a68 <__clzsi2+0x48>
    4a30:	01400804 	movi	r5,32
    4a34:	00000406 	br	4a48 <__clzsi2+0x28>
    4a38:	00804034 	movhi	r2,256
    4a3c:	20800736 	bltu	r4,r2,4a5c <__clzsi2+0x3c>
    4a40:	2008d63a 	srli	r4,r4,24
    4a44:	01400204 	movi	r5,8
    4a48:	00c00074 	movhi	r3,1
    4a4c:	20c7883a 	add	r3,r4,r3
    4a50:	18a55703 	ldbu	r2,-27300(r3)
    4a54:	2885c83a 	sub	r2,r5,r2
    4a58:	f800283a 	ret
    4a5c:	2008d43a 	srli	r4,r4,16
    4a60:	01400404 	movi	r5,16
    4a64:	003ff806 	br	4a48 <__clzsi2+0x28>
    4a68:	2008d23a 	srli	r4,r4,8
    4a6c:	01400604 	movi	r5,24
    4a70:	003ff506 	br	4a48 <__clzsi2+0x28>

00004a74 <__errno>:
    4a74:	00800074 	movhi	r2,1
    4a78:	10a66f17 	ldw	r2,-26180(r2)
    4a7c:	f800283a 	ret

00004a80 <memcpy>:
    4a80:	2005883a 	mov	r2,r4
    4a84:	0007883a 	mov	r3,zero
    4a88:	30c0011e 	bne	r6,r3,4a90 <memcpy+0x10>
    4a8c:	f800283a 	ret
    4a90:	28cf883a 	add	r7,r5,r3
    4a94:	39c00003 	ldbu	r7,0(r7)
    4a98:	10c9883a 	add	r4,r2,r3
    4a9c:	18c00044 	addi	r3,r3,1
    4aa0:	21c00005 	stb	r7,0(r4)
    4aa4:	003ff806 	br	4a88 <memcpy+0x8>

00004aa8 <_printf_r>:
    4aa8:	defffd04 	addi	sp,sp,-12
    4aac:	dfc00015 	stw	ra,0(sp)
    4ab0:	d9800115 	stw	r6,4(sp)
    4ab4:	d9c00215 	stw	r7,8(sp)
    4ab8:	21800217 	ldw	r6,8(r4)
    4abc:	00c00034 	movhi	r3,0
    4ac0:	18d45a04 	addi	r3,r3,20840
    4ac4:	30c00115 	stw	r3,4(r6)
    4ac8:	280d883a 	mov	r6,r5
    4acc:	21400217 	ldw	r5,8(r4)
    4ad0:	d9c00104 	addi	r7,sp,4
    4ad4:	0004c640 	call	4c64 <___vfprintf_internal_r>
    4ad8:	dfc00017 	ldw	ra,0(sp)
    4adc:	dec00304 	addi	sp,sp,12
    4ae0:	f800283a 	ret

00004ae4 <printf>:
    4ae4:	defffc04 	addi	sp,sp,-16
    4ae8:	dfc00015 	stw	ra,0(sp)
    4aec:	d9400115 	stw	r5,4(sp)
    4af0:	d9800215 	stw	r6,8(sp)
    4af4:	d9c00315 	stw	r7,12(sp)
    4af8:	00800074 	movhi	r2,1
    4afc:	10e66f17 	ldw	r3,-26180(r2)
    4b00:	00800034 	movhi	r2,0
    4b04:	10945a04 	addi	r2,r2,20840
    4b08:	19400217 	ldw	r5,8(r3)
    4b0c:	d9800104 	addi	r6,sp,4
    4b10:	28800115 	stw	r2,4(r5)
    4b14:	200b883a 	mov	r5,r4
    4b18:	19000217 	ldw	r4,8(r3)
    4b1c:	00051500 	call	5150 <__vfprintf_internal>
    4b20:	dfc00017 	ldw	ra,0(sp)
    4b24:	dec00404 	addi	sp,sp,16
    4b28:	f800283a 	ret

00004b2c <_putchar_r>:
    4b2c:	21800217 	ldw	r6,8(r4)
    4b30:	00052601 	jmpi	5260 <_putc_r>

00004b34 <putchar>:
    4b34:	00800074 	movhi	r2,1
    4b38:	10a66f17 	ldw	r2,-26180(r2)
    4b3c:	200b883a 	mov	r5,r4
    4b40:	11800217 	ldw	r6,8(r2)
    4b44:	1009883a 	mov	r4,r2
    4b48:	00052601 	jmpi	5260 <_putc_r>

00004b4c <_puts_r>:
    4b4c:	defffd04 	addi	sp,sp,-12
    4b50:	dc000015 	stw	r16,0(sp)
    4b54:	2021883a 	mov	r16,r4
    4b58:	2809883a 	mov	r4,r5
    4b5c:	dfc00215 	stw	ra,8(sp)
    4b60:	dc400115 	stw	r17,4(sp)
    4b64:	2823883a 	mov	r17,r5
    4b68:	0004bdc0 	call	4bdc <strlen>
    4b6c:	81400217 	ldw	r5,8(r16)
    4b70:	00c00034 	movhi	r3,0
    4b74:	18d45a04 	addi	r3,r3,20840
    4b78:	28c00115 	stw	r3,4(r5)
    4b7c:	100f883a 	mov	r7,r2
    4b80:	880d883a 	mov	r6,r17
    4b84:	8009883a 	mov	r4,r16
    4b88:	00051680 	call	5168 <__sfvwrite_small_dev>
    4b8c:	10ffffe0 	cmpeqi	r3,r2,-1
    4b90:	1800091e 	bne	r3,zero,4bb8 <_puts_r+0x6c>
    4b94:	81400217 	ldw	r5,8(r16)
    4b98:	01800074 	movhi	r6,1
    4b9c:	01c00044 	movi	r7,1
    4ba0:	28800117 	ldw	r2,4(r5)
    4ba4:	31a59704 	addi	r6,r6,-27044
    4ba8:	8009883a 	mov	r4,r16
    4bac:	103ee83a 	callr	r2
    4bb0:	10bfffe0 	cmpeqi	r2,r2,-1
    4bb4:	0085c83a 	sub	r2,zero,r2
    4bb8:	dfc00217 	ldw	ra,8(sp)
    4bbc:	dc400117 	ldw	r17,4(sp)
    4bc0:	dc000017 	ldw	r16,0(sp)
    4bc4:	dec00304 	addi	sp,sp,12
    4bc8:	f800283a 	ret

00004bcc <puts>:
    4bcc:	00800074 	movhi	r2,1
    4bd0:	200b883a 	mov	r5,r4
    4bd4:	11266f17 	ldw	r4,-26180(r2)
    4bd8:	0004b4c1 	jmpi	4b4c <_puts_r>

00004bdc <strlen>:
    4bdc:	2005883a 	mov	r2,r4
    4be0:	10c00007 	ldb	r3,0(r2)
    4be4:	1800021e 	bne	r3,zero,4bf0 <strlen+0x14>
    4be8:	1105c83a 	sub	r2,r2,r4
    4bec:	f800283a 	ret
    4bf0:	10800044 	addi	r2,r2,1
    4bf4:	003ffa06 	br	4be0 <strlen+0x4>

00004bf8 <print_repeat>:
    4bf8:	defffb04 	addi	sp,sp,-20
    4bfc:	dc800315 	stw	r18,12(sp)
    4c00:	dc400215 	stw	r17,8(sp)
    4c04:	dc000115 	stw	r16,4(sp)
    4c08:	dfc00415 	stw	ra,16(sp)
    4c0c:	2025883a 	mov	r18,r4
    4c10:	2823883a 	mov	r17,r5
    4c14:	d9800005 	stb	r6,0(sp)
    4c18:	3821883a 	mov	r16,r7
    4c1c:	04000716 	blt	zero,r16,4c3c <print_repeat+0x44>
    4c20:	0005883a 	mov	r2,zero
    4c24:	dfc00417 	ldw	ra,16(sp)
    4c28:	dc800317 	ldw	r18,12(sp)
    4c2c:	dc400217 	ldw	r17,8(sp)
    4c30:	dc000117 	ldw	r16,4(sp)
    4c34:	dec00504 	addi	sp,sp,20
    4c38:	f800283a 	ret
    4c3c:	88800117 	ldw	r2,4(r17)
    4c40:	01c00044 	movi	r7,1
    4c44:	d80d883a 	mov	r6,sp
    4c48:	880b883a 	mov	r5,r17
    4c4c:	9009883a 	mov	r4,r18
    4c50:	103ee83a 	callr	r2
    4c54:	843fffc4 	addi	r16,r16,-1
    4c58:	103ff026 	beq	r2,zero,4c1c <print_repeat+0x24>
    4c5c:	00bfffc4 	movi	r2,-1
    4c60:	003ff006 	br	4c24 <print_repeat+0x2c>

00004c64 <___vfprintf_internal_r>:
    4c64:	deffe604 	addi	sp,sp,-104
    4c68:	df001815 	stw	fp,96(sp)
    4c6c:	ddc01715 	stw	r23,92(sp)
    4c70:	dd801615 	stw	r22,88(sp)
    4c74:	dd001415 	stw	r20,80(sp)
    4c78:	dcc01315 	stw	r19,76(sp)
    4c7c:	dc801215 	stw	r18,72(sp)
    4c80:	dc401115 	stw	r17,68(sp)
    4c84:	dc001015 	stw	r16,64(sp)
    4c88:	dfc01915 	stw	ra,100(sp)
    4c8c:	dd401515 	stw	r21,84(sp)
    4c90:	2021883a 	mov	r16,r4
    4c94:	282f883a 	mov	r23,r5
    4c98:	d9800515 	stw	r6,20(sp)
    4c9c:	3839883a 	mov	fp,r7
    4ca0:	002d883a 	mov	r22,zero
    4ca4:	d8000215 	stw	zero,8(sp)
    4ca8:	0027883a 	mov	r19,zero
    4cac:	0029883a 	mov	r20,zero
    4cb0:	0025883a 	mov	r18,zero
    4cb4:	0023883a 	mov	r17,zero
    4cb8:	d8000115 	stw	zero,4(sp)
    4cbc:	d8000015 	stw	zero,0(sp)
    4cc0:	0005883a 	mov	r2,zero
    4cc4:	00000206 	br	4cd0 <___vfprintf_internal_r+0x6c>
    4cc8:	118000e0 	cmpeqi	r6,r2,3
    4ccc:	30003d1e 	bne	r6,zero,4dc4 <___vfprintf_internal_r+0x160>
    4cd0:	d8c00517 	ldw	r3,20(sp)
    4cd4:	19000003 	ldbu	r4,0(r3)
    4cd8:	18c00044 	addi	r3,r3,1
    4cdc:	d8c00515 	stw	r3,20(sp)
    4ce0:	21403fcc 	andi	r5,r4,255
    4ce4:	2940201c 	xori	r5,r5,128
    4ce8:	297fe004 	addi	r5,r5,-128
    4cec:	28001426 	beq	r5,zero,4d40 <___vfprintf_internal_r+0xdc>
    4cf0:	118000a0 	cmpeqi	r6,r2,2
    4cf4:	3000231e 	bne	r6,zero,4d84 <___vfprintf_internal_r+0x120>
    4cf8:	118000c8 	cmpgei	r6,r2,3
    4cfc:	303ff21e 	bne	r6,zero,4cc8 <___vfprintf_internal_r+0x64>
    4d00:	10000426 	beq	r2,zero,4d14 <___vfprintf_internal_r+0xb0>
    4d04:	10800060 	cmpeqi	r2,r2,1
    4d08:	10001a1e 	bne	r2,zero,4d74 <___vfprintf_internal_r+0x110>
    4d0c:	00800084 	movi	r2,2
    4d10:	003fef06 	br	4cd0 <___vfprintf_internal_r+0x6c>
    4d14:	29400960 	cmpeqi	r5,r5,37
    4d18:	2800f61e 	bne	r5,zero,50f4 <___vfprintf_internal_r+0x490>
    4d1c:	b8800117 	ldw	r2,4(r23)
    4d20:	d9000805 	stb	r4,32(sp)
    4d24:	01c00044 	movi	r7,1
    4d28:	d9800804 	addi	r6,sp,32
    4d2c:	b80b883a 	mov	r5,r23
    4d30:	8009883a 	mov	r4,r16
    4d34:	103ee83a 	callr	r2
    4d38:	10001b26 	beq	r2,zero,4da8 <___vfprintf_internal_r+0x144>
    4d3c:	05bfffc4 	movi	r22,-1
    4d40:	b005883a 	mov	r2,r22
    4d44:	dfc01917 	ldw	ra,100(sp)
    4d48:	df001817 	ldw	fp,96(sp)
    4d4c:	ddc01717 	ldw	r23,92(sp)
    4d50:	dd801617 	ldw	r22,88(sp)
    4d54:	dd401517 	ldw	r21,84(sp)
    4d58:	dd001417 	ldw	r20,80(sp)
    4d5c:	dcc01317 	ldw	r19,76(sp)
    4d60:	dc801217 	ldw	r18,72(sp)
    4d64:	dc401117 	ldw	r17,68(sp)
    4d68:	dc001017 	ldw	r16,64(sp)
    4d6c:	dec01a04 	addi	sp,sp,104
    4d70:	f800283a 	ret
    4d74:	28800c20 	cmpeqi	r2,r5,48
    4d78:	1000e71e 	bne	r2,zero,5118 <___vfprintf_internal_r+0x4b4>
    4d7c:	28800958 	cmpnei	r2,r5,37
    4d80:	103fe626 	beq	r2,zero,4d1c <___vfprintf_internal_r+0xb8>
    4d84:	20bff404 	addi	r2,r4,-48
    4d88:	10803fcc 	andi	r2,r2,255
    4d8c:	118002a8 	cmpgeui	r6,r2,10
    4d90:	3000091e 	bne	r6,zero,4db8 <___vfprintf_internal_r+0x154>
    4d94:	893fffe0 	cmpeqi	r4,r17,-1
    4d98:	2000051e 	bne	r4,zero,4db0 <___vfprintf_internal_r+0x14c>
    4d9c:	8c4002a4 	muli	r17,r17,10
    4da0:	1463883a 	add	r17,r2,r17
    4da4:	003fd906 	br	4d0c <___vfprintf_internal_r+0xa8>
    4da8:	b5800044 	addi	r22,r22,1
    4dac:	003fc806 	br	4cd0 <___vfprintf_internal_r+0x6c>
    4db0:	0023883a 	mov	r17,zero
    4db4:	003ffa06 	br	4da0 <___vfprintf_internal_r+0x13c>
    4db8:	28800ba0 	cmpeqi	r2,r5,46
    4dbc:	1000db1e 	bne	r2,zero,512c <___vfprintf_internal_r+0x4c8>
    4dc0:	00800084 	movi	r2,2
    4dc4:	213ff404 	addi	r4,r4,-48
    4dc8:	21003fcc 	andi	r4,r4,255
    4dcc:	218002a8 	cmpgeui	r6,r4,10
    4dd0:	3000071e 	bne	r6,zero,4df0 <___vfprintf_internal_r+0x18c>
    4dd4:	917fffe0 	cmpeqi	r5,r18,-1
    4dd8:	2800031e 	bne	r5,zero,4de8 <___vfprintf_internal_r+0x184>
    4ddc:	948002a4 	muli	r18,r18,10
    4de0:	24a5883a 	add	r18,r4,r18
    4de4:	003fba06 	br	4cd0 <___vfprintf_internal_r+0x6c>
    4de8:	0025883a 	mov	r18,zero
    4dec:	003ffc06 	br	4de0 <___vfprintf_internal_r+0x17c>
    4df0:	28801b20 	cmpeqi	r2,r5,108
    4df4:	1000cb1e 	bne	r2,zero,5124 <___vfprintf_internal_r+0x4c0>
    4df8:	90bfffe0 	cmpeqi	r2,r18,-1
    4dfc:	10000f1e 	bne	r2,zero,4e3c <___vfprintf_internal_r+0x1d8>
    4e00:	d8000015 	stw	zero,0(sp)
    4e04:	28801be0 	cmpeqi	r2,r5,111
    4e08:	1000ca1e 	bne	r2,zero,5134 <___vfprintf_internal_r+0x4d0>
    4e0c:	28801c08 	cmpgei	r2,r5,112
    4e10:	1000171e 	bne	r2,zero,4e70 <___vfprintf_internal_r+0x20c>
    4e14:	288018e0 	cmpeqi	r2,r5,99
    4e18:	10009f1e 	bne	r2,zero,5098 <___vfprintf_internal_r+0x434>
    4e1c:	28801908 	cmpgei	r2,r5,100
    4e20:	1000081e 	bne	r2,zero,4e44 <___vfprintf_internal_r+0x1e0>
    4e24:	29401620 	cmpeqi	r5,r5,88
    4e28:	283fa526 	beq	r5,zero,4cc0 <___vfprintf_internal_r+0x5c>
    4e2c:	00800044 	movi	r2,1
    4e30:	d8800215 	stw	r2,8(sp)
    4e34:	05000404 	movi	r20,16
    4e38:	0000bf06 	br	5138 <___vfprintf_internal_r+0x4d4>
    4e3c:	04800044 	movi	r18,1
    4e40:	003ff006 	br	4e04 <___vfprintf_internal_r+0x1a0>
    4e44:	28801920 	cmpeqi	r2,r5,100
    4e48:	1000021e 	bne	r2,zero,4e54 <___vfprintf_internal_r+0x1f0>
    4e4c:	29401a60 	cmpeqi	r5,r5,105
    4e50:	283f9b26 	beq	r5,zero,4cc0 <___vfprintf_internal_r+0x5c>
    4e54:	e0800104 	addi	r2,fp,4
    4e58:	d8800415 	stw	r2,16(sp)
    4e5c:	9800b626 	beq	r19,zero,5138 <___vfprintf_internal_r+0x4d4>
    4e60:	e5400017 	ldw	r21,0(fp)
    4e64:	a8002216 	blt	r21,zero,4ef0 <___vfprintf_internal_r+0x28c>
    4e68:	04c00044 	movi	r19,1
    4e6c:	0000b606 	br	5148 <___vfprintf_internal_r+0x4e4>
    4e70:	28801d60 	cmpeqi	r2,r5,117
    4e74:	1000b01e 	bne	r2,zero,5138 <___vfprintf_internal_r+0x4d4>
    4e78:	28801e20 	cmpeqi	r2,r5,120
    4e7c:	103fed1e 	bne	r2,zero,4e34 <___vfprintf_internal_r+0x1d0>
    4e80:	29401ce0 	cmpeqi	r5,r5,115
    4e84:	283f8e26 	beq	r5,zero,4cc0 <___vfprintf_internal_r+0x5c>
    4e88:	e5400017 	ldw	r21,0(fp)
    4e8c:	e0800104 	addi	r2,fp,4
    4e90:	d8800315 	stw	r2,12(sp)
    4e94:	a809883a 	mov	r4,r21
    4e98:	0004bdc0 	call	4bdc <strlen>
    4e9c:	888fc83a 	sub	r7,r17,r2
    4ea0:	1039883a 	mov	fp,r2
    4ea4:	01c0080e 	bge	zero,r7,4ec8 <___vfprintf_internal_r+0x264>
    4ea8:	01800804 	movi	r6,32
    4eac:	b80b883a 	mov	r5,r23
    4eb0:	8009883a 	mov	r4,r16
    4eb4:	d9c00415 	stw	r7,16(sp)
    4eb8:	0004bf80 	call	4bf8 <print_repeat>
    4ebc:	103f9f1e 	bne	r2,zero,4d3c <___vfprintf_internal_r+0xd8>
    4ec0:	d9c00417 	ldw	r7,16(sp)
    4ec4:	b1ed883a 	add	r22,r22,r7
    4ec8:	b8800117 	ldw	r2,4(r23)
    4ecc:	e00f883a 	mov	r7,fp
    4ed0:	a80d883a 	mov	r6,r21
    4ed4:	b80b883a 	mov	r5,r23
    4ed8:	8009883a 	mov	r4,r16
    4edc:	103ee83a 	callr	r2
    4ee0:	103f961e 	bne	r2,zero,4d3c <___vfprintf_internal_r+0xd8>
    4ee4:	b72d883a 	add	r22,r22,fp
    4ee8:	df000317 	ldw	fp,12(sp)
    4eec:	003f7806 	br	4cd0 <___vfprintf_internal_r+0x6c>
    4ef0:	056bc83a 	sub	r21,zero,r21
    4ef4:	04c00044 	movi	r19,1
    4ef8:	00c00044 	movi	r3,1
    4efc:	df000804 	addi	fp,sp,32
    4f00:	e00d883a 	mov	r6,fp
    4f04:	a8002e1e 	bne	r21,zero,4fc0 <___vfprintf_internal_r+0x35c>
    4f08:	e185c83a 	sub	r2,fp,r6
    4f0c:	d8800315 	stw	r2,12(sp)
    4f10:	9085c83a 	sub	r2,r18,r2
    4f14:	0080090e 	bge	zero,r2,4f3c <___vfprintf_internal_r+0x2d8>
    4f18:	e085883a 	add	r2,fp,r2
    4f1c:	d9001004 	addi	r4,sp,64
    4f20:	e100042e 	bgeu	fp,r4,4f34 <___vfprintf_internal_r+0x2d0>
    4f24:	e7000044 	addi	fp,fp,1
    4f28:	01000c04 	movi	r4,48
    4f2c:	e13fffc5 	stb	r4,-1(fp)
    4f30:	e0bffa1e 	bne	fp,r2,4f1c <___vfprintf_internal_r+0x2b8>
    4f34:	e185c83a 	sub	r2,fp,r6
    4f38:	d8800315 	stw	r2,12(sp)
    4f3c:	d8800317 	ldw	r2,12(sp)
    4f40:	1897883a 	add	r11,r3,r2
    4f44:	d8800017 	ldw	r2,0(sp)
    4f48:	8aebc83a 	sub	r21,r17,r11
    4f4c:	10003126 	beq	r2,zero,5014 <___vfprintf_internal_r+0x3b0>
    4f50:	18000a26 	beq	r3,zero,4f7c <___vfprintf_internal_r+0x318>
    4f54:	00800b44 	movi	r2,45
    4f58:	d88007c5 	stb	r2,31(sp)
    4f5c:	b8800117 	ldw	r2,4(r23)
    4f60:	01c00044 	movi	r7,1
    4f64:	d98007c4 	addi	r6,sp,31
    4f68:	b80b883a 	mov	r5,r23
    4f6c:	8009883a 	mov	r4,r16
    4f70:	103ee83a 	callr	r2
    4f74:	103f711e 	bne	r2,zero,4d3c <___vfprintf_internal_r+0xd8>
    4f78:	b5800044 	addi	r22,r22,1
    4f7c:	0540070e 	bge	zero,r21,4f9c <___vfprintf_internal_r+0x338>
    4f80:	a80f883a 	mov	r7,r21
    4f84:	01800c04 	movi	r6,48
    4f88:	b80b883a 	mov	r5,r23
    4f8c:	8009883a 	mov	r4,r16
    4f90:	0004bf80 	call	4bf8 <print_repeat>
    4f94:	103f691e 	bne	r2,zero,4d3c <___vfprintf_internal_r+0xd8>
    4f98:	b56d883a 	add	r22,r22,r21
    4f9c:	d8800317 	ldw	r2,12(sp)
    4fa0:	b72d883a 	add	r22,r22,fp
    4fa4:	172bc83a 	sub	r21,r2,fp
    4fa8:	af05883a 	add	r2,r21,fp
    4fac:	b707c83a 	sub	r3,r22,fp
    4fb0:	00802e16 	blt	zero,r2,506c <___vfprintf_internal_r+0x408>
    4fb4:	df000417 	ldw	fp,16(sp)
    4fb8:	182d883a 	mov	r22,r3
    4fbc:	003f4006 	br	4cc0 <___vfprintf_internal_r+0x5c>
    4fc0:	a809883a 	mov	r4,r21
    4fc4:	a00b883a 	mov	r5,r20
    4fc8:	d8c00315 	stw	r3,12(sp)
    4fcc:	00034000 	call	3400 <__udivsi3>
    4fd0:	1509383a 	mul	r4,r2,r20
    4fd4:	d8c00317 	ldw	r3,12(sp)
    4fd8:	d9800804 	addi	r6,sp,32
    4fdc:	a92bc83a 	sub	r21,r21,r4
    4fe0:	a9000288 	cmpgei	r4,r21,10
    4fe4:	2000051e 	bne	r4,zero,4ffc <___vfprintf_internal_r+0x398>
    4fe8:	ad400c04 	addi	r21,r21,48
    4fec:	e7000044 	addi	fp,fp,1
    4ff0:	e57fffc5 	stb	r21,-1(fp)
    4ff4:	102b883a 	mov	r21,r2
    4ff8:	003fc206 	br	4f04 <___vfprintf_internal_r+0x2a0>
    4ffc:	d9000217 	ldw	r4,8(sp)
    5000:	20000226 	beq	r4,zero,500c <___vfprintf_internal_r+0x3a8>
    5004:	ad400dc4 	addi	r21,r21,55
    5008:	003ff806 	br	4fec <___vfprintf_internal_r+0x388>
    500c:	ad4015c4 	addi	r21,r21,87
    5010:	003ff606 	br	4fec <___vfprintf_internal_r+0x388>
    5014:	0540090e 	bge	zero,r21,503c <___vfprintf_internal_r+0x3d8>
    5018:	a80f883a 	mov	r7,r21
    501c:	01800804 	movi	r6,32
    5020:	b80b883a 	mov	r5,r23
    5024:	8009883a 	mov	r4,r16
    5028:	d8c00615 	stw	r3,24(sp)
    502c:	0004bf80 	call	4bf8 <print_repeat>
    5030:	103f421e 	bne	r2,zero,4d3c <___vfprintf_internal_r+0xd8>
    5034:	d8c00617 	ldw	r3,24(sp)
    5038:	b56d883a 	add	r22,r22,r21
    503c:	183fd726 	beq	r3,zero,4f9c <___vfprintf_internal_r+0x338>
    5040:	00800b44 	movi	r2,45
    5044:	d88007c5 	stb	r2,31(sp)
    5048:	b8800117 	ldw	r2,4(r23)
    504c:	01c00044 	movi	r7,1
    5050:	d98007c4 	addi	r6,sp,31
    5054:	b80b883a 	mov	r5,r23
    5058:	8009883a 	mov	r4,r16
    505c:	103ee83a 	callr	r2
    5060:	103f361e 	bne	r2,zero,4d3c <___vfprintf_internal_r+0xd8>
    5064:	b5800044 	addi	r22,r22,1
    5068:	003fcc06 	br	4f9c <___vfprintf_internal_r+0x338>
    506c:	e0bfffc3 	ldbu	r2,-1(fp)
    5070:	01c00044 	movi	r7,1
    5074:	d98007c4 	addi	r6,sp,31
    5078:	d88007c5 	stb	r2,31(sp)
    507c:	b8800117 	ldw	r2,4(r23)
    5080:	b80b883a 	mov	r5,r23
    5084:	8009883a 	mov	r4,r16
    5088:	e73fffc4 	addi	fp,fp,-1
    508c:	103ee83a 	callr	r2
    5090:	103fc526 	beq	r2,zero,4fa8 <___vfprintf_internal_r+0x344>
    5094:	003f2906 	br	4d3c <___vfprintf_internal_r+0xd8>
    5098:	88800090 	cmplti	r2,r17,2
    509c:	1000081e 	bne	r2,zero,50c0 <___vfprintf_internal_r+0x45c>
    50a0:	8d7fffc4 	addi	r21,r17,-1
    50a4:	a80f883a 	mov	r7,r21
    50a8:	01800804 	movi	r6,32
    50ac:	b80b883a 	mov	r5,r23
    50b0:	8009883a 	mov	r4,r16
    50b4:	0004bf80 	call	4bf8 <print_repeat>
    50b8:	103f201e 	bne	r2,zero,4d3c <___vfprintf_internal_r+0xd8>
    50bc:	b56d883a 	add	r22,r22,r21
    50c0:	e0800017 	ldw	r2,0(fp)
    50c4:	01c00044 	movi	r7,1
    50c8:	d9800804 	addi	r6,sp,32
    50cc:	d8800805 	stb	r2,32(sp)
    50d0:	b8800117 	ldw	r2,4(r23)
    50d4:	b80b883a 	mov	r5,r23
    50d8:	8009883a 	mov	r4,r16
    50dc:	e5400104 	addi	r21,fp,4
    50e0:	103ee83a 	callr	r2
    50e4:	103f151e 	bne	r2,zero,4d3c <___vfprintf_internal_r+0xd8>
    50e8:	b5800044 	addi	r22,r22,1
    50ec:	a839883a 	mov	fp,r21
    50f0:	003ef706 	br	4cd0 <___vfprintf_internal_r+0x6c>
    50f4:	d8000215 	stw	zero,8(sp)
    50f8:	d8000115 	stw	zero,4(sp)
    50fc:	d8000015 	stw	zero,0(sp)
    5100:	04c00044 	movi	r19,1
    5104:	05000284 	movi	r20,10
    5108:	04bfffc4 	movi	r18,-1
    510c:	047fffc4 	movi	r17,-1
    5110:	00800044 	movi	r2,1
    5114:	003eee06 	br	4cd0 <___vfprintf_internal_r+0x6c>
    5118:	00800044 	movi	r2,1
    511c:	d8800015 	stw	r2,0(sp)
    5120:	003efa06 	br	4d0c <___vfprintf_internal_r+0xa8>
    5124:	00800044 	movi	r2,1
    5128:	d8800115 	stw	r2,4(sp)
    512c:	008000c4 	movi	r2,3
    5130:	003ee706 	br	4cd0 <___vfprintf_internal_r+0x6c>
    5134:	05000204 	movi	r20,8
    5138:	e0800104 	addi	r2,fp,4
    513c:	d8800415 	stw	r2,16(sp)
    5140:	e5400017 	ldw	r21,0(fp)
    5144:	0027883a 	mov	r19,zero
    5148:	0007883a 	mov	r3,zero
    514c:	003f6b06 	br	4efc <___vfprintf_internal_r+0x298>

00005150 <__vfprintf_internal>:
    5150:	00800074 	movhi	r2,1
    5154:	300f883a 	mov	r7,r6
    5158:	280d883a 	mov	r6,r5
    515c:	200b883a 	mov	r5,r4
    5160:	11266f17 	ldw	r4,-26180(r2)
    5164:	0004c641 	jmpi	4c64 <___vfprintf_internal_r>

00005168 <__sfvwrite_small_dev>:
    5168:	2880000b 	ldhu	r2,0(r5)
    516c:	1080020c 	andi	r2,r2,8
    5170:	10002526 	beq	r2,zero,5208 <__sfvwrite_small_dev+0xa0>
    5174:	2880008f 	ldh	r2,2(r5)
    5178:	defffb04 	addi	sp,sp,-20
    517c:	dcc00315 	stw	r19,12(sp)
    5180:	dc800215 	stw	r18,8(sp)
    5184:	dc400115 	stw	r17,4(sp)
    5188:	dc000015 	stw	r16,0(sp)
    518c:	dfc00415 	stw	ra,16(sp)
    5190:	2027883a 	mov	r19,r4
    5194:	2821883a 	mov	r16,r5
    5198:	3025883a 	mov	r18,r6
    519c:	3823883a 	mov	r17,r7
    51a0:	1000100e 	bge	r2,zero,51e4 <__sfvwrite_small_dev+0x7c>
    51a4:	8080000b 	ldhu	r2,0(r16)
    51a8:	10801014 	ori	r2,r2,64
    51ac:	8080000d 	sth	r2,0(r16)
    51b0:	00bfffc4 	movi	r2,-1
    51b4:	00000d06 	br	51ec <__sfvwrite_small_dev+0x84>
    51b8:	88810050 	cmplti	r2,r17,1025
    51bc:	880f883a 	mov	r7,r17
    51c0:	1000011e 	bne	r2,zero,51c8 <__sfvwrite_small_dev+0x60>
    51c4:	01c10004 	movi	r7,1024
    51c8:	8140008f 	ldh	r5,2(r16)
    51cc:	900d883a 	mov	r6,r18
    51d0:	9809883a 	mov	r4,r19
    51d4:	00052b40 	call	52b4 <_write_r>
    51d8:	00bff20e 	bge	zero,r2,51a4 <__sfvwrite_small_dev+0x3c>
    51dc:	88a3c83a 	sub	r17,r17,r2
    51e0:	90a5883a 	add	r18,r18,r2
    51e4:	047ff416 	blt	zero,r17,51b8 <__sfvwrite_small_dev+0x50>
    51e8:	0005883a 	mov	r2,zero
    51ec:	dfc00417 	ldw	ra,16(sp)
    51f0:	dcc00317 	ldw	r19,12(sp)
    51f4:	dc800217 	ldw	r18,8(sp)
    51f8:	dc400117 	ldw	r17,4(sp)
    51fc:	dc000017 	ldw	r16,0(sp)
    5200:	dec00504 	addi	sp,sp,20
    5204:	f800283a 	ret
    5208:	00bfffc4 	movi	r2,-1
    520c:	f800283a 	ret

00005210 <putc>:
    5210:	defffd04 	addi	sp,sp,-12
    5214:	00800034 	movhi	r2,0
    5218:	dc000115 	stw	r16,4(sp)
    521c:	dfc00215 	stw	ra,8(sp)
    5220:	10945a04 	addi	r2,r2,20840
    5224:	28800115 	stw	r2,4(r5)
    5228:	00800074 	movhi	r2,1
    522c:	d90000c5 	stb	r4,3(sp)
    5230:	2021883a 	mov	r16,r4
    5234:	11266f17 	ldw	r4,-26180(r2)
    5238:	01c00044 	movi	r7,1
    523c:	d98000c4 	addi	r6,sp,3
    5240:	00051680 	call	5168 <__sfvwrite_small_dev>
    5244:	10ffffe0 	cmpeqi	r3,r2,-1
    5248:	1800011e 	bne	r3,zero,5250 <putc+0x40>
    524c:	8005883a 	mov	r2,r16
    5250:	dfc00217 	ldw	ra,8(sp)
    5254:	dc000117 	ldw	r16,4(sp)
    5258:	dec00304 	addi	sp,sp,12
    525c:	f800283a 	ret

00005260 <_putc_r>:
    5260:	defffd04 	addi	sp,sp,-12
    5264:	00800034 	movhi	r2,0
    5268:	dc000115 	stw	r16,4(sp)
    526c:	dfc00215 	stw	ra,8(sp)
    5270:	10945a04 	addi	r2,r2,20840
    5274:	30800115 	stw	r2,4(r6)
    5278:	00800074 	movhi	r2,1
    527c:	11266f17 	ldw	r4,-26180(r2)
    5280:	2821883a 	mov	r16,r5
    5284:	01c00044 	movi	r7,1
    5288:	300b883a 	mov	r5,r6
    528c:	d98000c4 	addi	r6,sp,3
    5290:	dc0000c5 	stb	r16,3(sp)
    5294:	00051680 	call	5168 <__sfvwrite_small_dev>
    5298:	10ffffe0 	cmpeqi	r3,r2,-1
    529c:	1800011e 	bne	r3,zero,52a4 <_putc_r+0x44>
    52a0:	8005883a 	mov	r2,r16
    52a4:	dfc00217 	ldw	ra,8(sp)
    52a8:	dc000117 	ldw	r16,4(sp)
    52ac:	dec00304 	addi	sp,sp,12
    52b0:	f800283a 	ret

000052b4 <_write_r>:
    52b4:	defffe04 	addi	sp,sp,-8
    52b8:	dc000015 	stw	r16,0(sp)
    52bc:	00800074 	movhi	r2,1
    52c0:	2021883a 	mov	r16,r4
    52c4:	2809883a 	mov	r4,r5
    52c8:	300b883a 	mov	r5,r6
    52cc:	380d883a 	mov	r6,r7
    52d0:	dfc00115 	stw	ra,4(sp)
    52d4:	10274a15 	stw	zero,-25304(r2)
    52d8:	00056dc0 	call	56dc <write>
    52dc:	10ffffd8 	cmpnei	r3,r2,-1
    52e0:	1800041e 	bne	r3,zero,52f4 <_write_r+0x40>
    52e4:	00c00074 	movhi	r3,1
    52e8:	18e74a17 	ldw	r3,-25304(r3)
    52ec:	18000126 	beq	r3,zero,52f4 <_write_r+0x40>
    52f0:	80c00015 	stw	r3,0(r16)
    52f4:	dfc00117 	ldw	ra,4(sp)
    52f8:	dc000017 	ldw	r16,0(sp)
    52fc:	dec00204 	addi	sp,sp,8
    5300:	f800283a 	ret

00005304 <alt_dcache_flush_all>:
    5304:	defffe04 	addi	sp,sp,-8
    5308:	df000115 	stw	fp,4(sp)
    530c:	df000104 	addi	fp,sp,4
    5310:	e03fff15 	stw	zero,-4(fp)
    5314:	00000506 	br	532c <alt_dcache_flush_all+0x28>
    5318:	e0bfff17 	ldw	r2,-4(fp)
    531c:	1000003b 	flushd	0(r2)
    5320:	e0bfff17 	ldw	r2,-4(fp)
    5324:	10800804 	addi	r2,r2,32
    5328:	e0bfff15 	stw	r2,-4(fp)
    532c:	e0bfff17 	ldw	r2,-4(fp)
    5330:	10820030 	cmpltui	r2,r2,2048
    5334:	103ff81e 	bne	r2,zero,5318 <alt_dcache_flush_all+0x14>
    5338:	0001883a 	nop
    533c:	0001883a 	nop
    5340:	e037883a 	mov	sp,fp
    5344:	df000017 	ldw	fp,0(sp)
    5348:	dec00104 	addi	sp,sp,4
    534c:	f800283a 	ret

00005350 <alt_load_section>:
    5350:	defffc04 	addi	sp,sp,-16
    5354:	df000315 	stw	fp,12(sp)
    5358:	df000304 	addi	fp,sp,12
    535c:	e13fff15 	stw	r4,-4(fp)
    5360:	e17ffe15 	stw	r5,-8(fp)
    5364:	e1bffd15 	stw	r6,-12(fp)
    5368:	e0fffe17 	ldw	r3,-8(fp)
    536c:	e0bfff17 	ldw	r2,-4(fp)
    5370:	18800c26 	beq	r3,r2,53a4 <alt_load_section+0x54>
    5374:	00000806 	br	5398 <alt_load_section+0x48>
    5378:	e0ffff17 	ldw	r3,-4(fp)
    537c:	18800104 	addi	r2,r3,4
    5380:	e0bfff15 	stw	r2,-4(fp)
    5384:	e0bffe17 	ldw	r2,-8(fp)
    5388:	11000104 	addi	r4,r2,4
    538c:	e13ffe15 	stw	r4,-8(fp)
    5390:	18c00017 	ldw	r3,0(r3)
    5394:	10c00015 	stw	r3,0(r2)
    5398:	e0fffe17 	ldw	r3,-8(fp)
    539c:	e0bffd17 	ldw	r2,-12(fp)
    53a0:	18bff51e 	bne	r3,r2,5378 <alt_load_section+0x28>
    53a4:	0001883a 	nop
    53a8:	e037883a 	mov	sp,fp
    53ac:	df000017 	ldw	fp,0(sp)
    53b0:	dec00104 	addi	sp,sp,4
    53b4:	f800283a 	ret

000053b8 <alt_load>:
    53b8:	defffe04 	addi	sp,sp,-8
    53bc:	dfc00115 	stw	ra,4(sp)
    53c0:	df000015 	stw	fp,0(sp)
    53c4:	d839883a 	mov	fp,sp
    53c8:	01800074 	movhi	r6,1
    53cc:	31a67b04 	addi	r6,r6,-26132
    53d0:	01400074 	movhi	r5,1
    53d4:	2965af04 	addi	r5,r5,-26948
    53d8:	01000074 	movhi	r4,1
    53dc:	21267b04 	addi	r4,r4,-26132
    53e0:	00053500 	call	5350 <alt_load_section>
    53e4:	01800034 	movhi	r6,0
    53e8:	31808e04 	addi	r6,r6,568
    53ec:	01400034 	movhi	r5,0
    53f0:	29400804 	addi	r5,r5,32
    53f4:	01000034 	movhi	r4,0
    53f8:	21000804 	addi	r4,r4,32
    53fc:	00053500 	call	5350 <alt_load_section>
    5400:	01800074 	movhi	r6,1
    5404:	31a5af04 	addi	r6,r6,-26948
    5408:	01400074 	movhi	r5,1
    540c:	2962fa04 	addi	r5,r5,-29720
    5410:	01000074 	movhi	r4,1
    5414:	2122fa04 	addi	r4,r4,-29720
    5418:	00053500 	call	5350 <alt_load_section>
    541c:	00053040 	call	5304 <alt_dcache_flush_all>
    5420:	0007ce00 	call	7ce0 <alt_icache_flush_all>
    5424:	0001883a 	nop
    5428:	e037883a 	mov	sp,fp
    542c:	dfc00117 	ldw	ra,4(sp)
    5430:	df000017 	ldw	fp,0(sp)
    5434:	dec00204 	addi	sp,sp,8
    5438:	f800283a 	ret

0000543c <alt_main>:
    543c:	defffd04 	addi	sp,sp,-12
    5440:	dfc00215 	stw	ra,8(sp)
    5444:	df000115 	stw	fp,4(sp)
    5448:	df000104 	addi	fp,sp,4
    544c:	0009883a 	mov	r4,zero
    5450:	000580c0 	call	580c <alt_irq_init>
    5454:	0001883a 	nop
    5458:	00058480 	call	5848 <alt_sys_init>
    545c:	01800074 	movhi	r6,1
    5460:	31a59804 	addi	r6,r6,-27040
    5464:	01400074 	movhi	r5,1
    5468:	29659804 	addi	r5,r5,-27040
    546c:	01000074 	movhi	r4,1
    5470:	21259804 	addi	r4,r4,-27040
    5474:	00080740 	call	8074 <alt_io_redirect>
    5478:	0007b880 	call	7b88 <_do_ctors>
    547c:	01000034 	movhi	r4,0
    5480:	211efb04 	addi	r4,r4,31724
    5484:	00089040 	call	8904 <atexit>
    5488:	d0a0e017 	ldw	r2,-31872(gp)
    548c:	d0e0e117 	ldw	r3,-31868(gp)
    5490:	d120e217 	ldw	r4,-31864(gp)
    5494:	200d883a 	mov	r6,r4
    5498:	180b883a 	mov	r5,r3
    549c:	1009883a 	mov	r4,r2
    54a0:	0001a3c0 	call	1a3c <main>
    54a4:	e0bfff15 	stw	r2,-4(fp)
    54a8:	01000044 	movi	r4,1
    54ac:	000799c0 	call	799c <close>
    54b0:	e13fff17 	ldw	r4,-4(fp)
    54b4:	00089180 	call	8918 <exit>

000054b8 <alt_alarm_stop>:
    54b8:	defffa04 	addi	sp,sp,-24
    54bc:	df000515 	stw	fp,20(sp)
    54c0:	df000504 	addi	fp,sp,20
    54c4:	e13ffb15 	stw	r4,-20(fp)
    54c8:	0005303a 	rdctl	r2,status
    54cc:	e0bffc15 	stw	r2,-16(fp)
    54d0:	e0fffc17 	ldw	r3,-16(fp)
    54d4:	00bfff84 	movi	r2,-2
    54d8:	1884703a 	and	r2,r3,r2
    54dc:	1001703a 	wrctl	status,r2
    54e0:	e0bffc17 	ldw	r2,-16(fp)
    54e4:	e0bfff15 	stw	r2,-4(fp)
    54e8:	e0bffb17 	ldw	r2,-20(fp)
    54ec:	e0bffd15 	stw	r2,-12(fp)
    54f0:	e0bffd17 	ldw	r2,-12(fp)
    54f4:	10800017 	ldw	r2,0(r2)
    54f8:	e0fffd17 	ldw	r3,-12(fp)
    54fc:	18c00117 	ldw	r3,4(r3)
    5500:	10c00115 	stw	r3,4(r2)
    5504:	e0bffd17 	ldw	r2,-12(fp)
    5508:	10800117 	ldw	r2,4(r2)
    550c:	e0fffd17 	ldw	r3,-12(fp)
    5510:	18c00017 	ldw	r3,0(r3)
    5514:	10c00015 	stw	r3,0(r2)
    5518:	e0bffd17 	ldw	r2,-12(fp)
    551c:	e0fffd17 	ldw	r3,-12(fp)
    5520:	10c00115 	stw	r3,4(r2)
    5524:	e0bffd17 	ldw	r2,-12(fp)
    5528:	e0fffd17 	ldw	r3,-12(fp)
    552c:	10c00015 	stw	r3,0(r2)
    5530:	0001883a 	nop
    5534:	e0bfff17 	ldw	r2,-4(fp)
    5538:	e0bffe15 	stw	r2,-8(fp)
    553c:	e0bffe17 	ldw	r2,-8(fp)
    5540:	1001703a 	wrctl	status,r2
    5544:	0001883a 	nop
    5548:	0001883a 	nop
    554c:	e037883a 	mov	sp,fp
    5550:	df000017 	ldw	fp,0(sp)
    5554:	dec00104 	addi	sp,sp,4
    5558:	f800283a 	ret

0000555c <alt_tick>:
    555c:	defffb04 	addi	sp,sp,-20
    5560:	dfc00415 	stw	ra,16(sp)
    5564:	df000315 	stw	fp,12(sp)
    5568:	df000304 	addi	fp,sp,12
    556c:	d0a00517 	ldw	r2,-32748(gp)
    5570:	e0bfff15 	stw	r2,-4(fp)
    5574:	d0a0e417 	ldw	r2,-31856(gp)
    5578:	10800044 	addi	r2,r2,1
    557c:	d0a0e415 	stw	r2,-31856(gp)
    5580:	00002e06 	br	563c <alt_tick+0xe0>
    5584:	e0bfff17 	ldw	r2,-4(fp)
    5588:	10800017 	ldw	r2,0(r2)
    558c:	e0bffe15 	stw	r2,-8(fp)
    5590:	e0bfff17 	ldw	r2,-4(fp)
    5594:	10800403 	ldbu	r2,16(r2)
    5598:	10803fcc 	andi	r2,r2,255
    559c:	10000426 	beq	r2,zero,55b0 <alt_tick+0x54>
    55a0:	d0a0e417 	ldw	r2,-31856(gp)
    55a4:	1000021e 	bne	r2,zero,55b0 <alt_tick+0x54>
    55a8:	e0bfff17 	ldw	r2,-4(fp)
    55ac:	10000405 	stb	zero,16(r2)
    55b0:	e0bfff17 	ldw	r2,-4(fp)
    55b4:	10800217 	ldw	r2,8(r2)
    55b8:	d0e0e417 	ldw	r3,-31856(gp)
    55bc:	18801d36 	bltu	r3,r2,5634 <alt_tick+0xd8>
    55c0:	e0bfff17 	ldw	r2,-4(fp)
    55c4:	10800403 	ldbu	r2,16(r2)
    55c8:	10803fcc 	andi	r2,r2,255
    55cc:	1000191e 	bne	r2,zero,5634 <alt_tick+0xd8>
    55d0:	e0bfff17 	ldw	r2,-4(fp)
    55d4:	10800317 	ldw	r2,12(r2)
    55d8:	e0ffff17 	ldw	r3,-4(fp)
    55dc:	18c00517 	ldw	r3,20(r3)
    55e0:	1809883a 	mov	r4,r3
    55e4:	103ee83a 	callr	r2
    55e8:	e0bffd15 	stw	r2,-12(fp)
    55ec:	e0bffd17 	ldw	r2,-12(fp)
    55f0:	1000031e 	bne	r2,zero,5600 <alt_tick+0xa4>
    55f4:	e13fff17 	ldw	r4,-4(fp)
    55f8:	00054b80 	call	54b8 <alt_alarm_stop>
    55fc:	00000d06 	br	5634 <alt_tick+0xd8>
    5600:	e0bfff17 	ldw	r2,-4(fp)
    5604:	10c00217 	ldw	r3,8(r2)
    5608:	e0bffd17 	ldw	r2,-12(fp)
    560c:	1887883a 	add	r3,r3,r2
    5610:	e0bfff17 	ldw	r2,-4(fp)
    5614:	10c00215 	stw	r3,8(r2)
    5618:	e0bfff17 	ldw	r2,-4(fp)
    561c:	10c00217 	ldw	r3,8(r2)
    5620:	d0a0e417 	ldw	r2,-31856(gp)
    5624:	1880032e 	bgeu	r3,r2,5634 <alt_tick+0xd8>
    5628:	e0bfff17 	ldw	r2,-4(fp)
    562c:	00c00044 	movi	r3,1
    5630:	10c00405 	stb	r3,16(r2)
    5634:	e0bffe17 	ldw	r2,-8(fp)
    5638:	e0bfff15 	stw	r2,-4(fp)
    563c:	e0ffff17 	ldw	r3,-4(fp)
    5640:	d0a00504 	addi	r2,gp,-32748
    5644:	18bfcf1e 	bne	r3,r2,5584 <alt_tick+0x28>
    5648:	0001883a 	nop
    564c:	0001883a 	nop
    5650:	e037883a 	mov	sp,fp
    5654:	dfc00117 	ldw	ra,4(sp)
    5658:	df000017 	ldw	fp,0(sp)
    565c:	dec00204 	addi	sp,sp,8
    5660:	f800283a 	ret

00005664 <usleep>:
    5664:	defffd04 	addi	sp,sp,-12
    5668:	dfc00215 	stw	ra,8(sp)
    566c:	df000115 	stw	fp,4(sp)
    5670:	df000104 	addi	fp,sp,4
    5674:	e13fff15 	stw	r4,-4(fp)
    5678:	e13fff17 	ldw	r4,-4(fp)
    567c:	00077fc0 	call	77fc <alt_busy_sleep>
    5680:	e037883a 	mov	sp,fp
    5684:	dfc00117 	ldw	ra,4(sp)
    5688:	df000017 	ldw	fp,0(sp)
    568c:	dec00204 	addi	sp,sp,8
    5690:	f800283a 	ret

00005694 <alt_get_errno>:
    5694:	defffe04 	addi	sp,sp,-8
    5698:	dfc00115 	stw	ra,4(sp)
    569c:	df000015 	stw	fp,0(sp)
    56a0:	d839883a 	mov	fp,sp
    56a4:	00800074 	movhi	r2,1
    56a8:	10a67917 	ldw	r2,-26140(r2)
    56ac:	10000426 	beq	r2,zero,56c0 <alt_get_errno+0x2c>
    56b0:	00800074 	movhi	r2,1
    56b4:	10a67917 	ldw	r2,-26140(r2)
    56b8:	103ee83a 	callr	r2
    56bc:	00000206 	br	56c8 <alt_get_errno+0x34>
    56c0:	00800074 	movhi	r2,1
    56c4:	10a74a04 	addi	r2,r2,-25304
    56c8:	e037883a 	mov	sp,fp
    56cc:	dfc00117 	ldw	ra,4(sp)
    56d0:	df000017 	ldw	fp,0(sp)
    56d4:	dec00204 	addi	sp,sp,8
    56d8:	f800283a 	ret

000056dc <write>:
    56dc:	defff904 	addi	sp,sp,-28
    56e0:	dfc00615 	stw	ra,24(sp)
    56e4:	df000515 	stw	fp,20(sp)
    56e8:	df000504 	addi	fp,sp,20
    56ec:	e13ffd15 	stw	r4,-12(fp)
    56f0:	e17ffc15 	stw	r5,-16(fp)
    56f4:	e1bffb15 	stw	r6,-20(fp)
    56f8:	e0bffd17 	ldw	r2,-12(fp)
    56fc:	10000616 	blt	r2,zero,5718 <write+0x3c>
    5700:	e0bffd17 	ldw	r2,-12(fp)
    5704:	10c00324 	muli	r3,r2,12
    5708:	00800074 	movhi	r2,1
    570c:	10a60b04 	addi	r2,r2,-26580
    5710:	1885883a 	add	r2,r3,r2
    5714:	00000106 	br	571c <write+0x40>
    5718:	0005883a 	mov	r2,zero
    571c:	e0bfff15 	stw	r2,-4(fp)
    5720:	e0bfff17 	ldw	r2,-4(fp)
    5724:	10002126 	beq	r2,zero,57ac <write+0xd0>
    5728:	e0bfff17 	ldw	r2,-4(fp)
    572c:	10800217 	ldw	r2,8(r2)
    5730:	108000cc 	andi	r2,r2,3
    5734:	10001826 	beq	r2,zero,5798 <write+0xbc>
    5738:	e0bfff17 	ldw	r2,-4(fp)
    573c:	10800017 	ldw	r2,0(r2)
    5740:	10800617 	ldw	r2,24(r2)
    5744:	10001426 	beq	r2,zero,5798 <write+0xbc>
    5748:	e0bfff17 	ldw	r2,-4(fp)
    574c:	10800017 	ldw	r2,0(r2)
    5750:	10800617 	ldw	r2,24(r2)
    5754:	e0fffb17 	ldw	r3,-20(fp)
    5758:	180d883a 	mov	r6,r3
    575c:	e17ffc17 	ldw	r5,-16(fp)
    5760:	e13fff17 	ldw	r4,-4(fp)
    5764:	103ee83a 	callr	r2
    5768:	e0bffe15 	stw	r2,-8(fp)
    576c:	e0bffe17 	ldw	r2,-8(fp)
    5770:	1000070e 	bge	r2,zero,5790 <write+0xb4>
    5774:	00056940 	call	5694 <alt_get_errno>
    5778:	1007883a 	mov	r3,r2
    577c:	e0bffe17 	ldw	r2,-8(fp)
    5780:	0085c83a 	sub	r2,zero,r2
    5784:	18800015 	stw	r2,0(r3)
    5788:	00bfffc4 	movi	r2,-1
    578c:	00000c06 	br	57c0 <write+0xe4>
    5790:	e0bffe17 	ldw	r2,-8(fp)
    5794:	00000a06 	br	57c0 <write+0xe4>
    5798:	00056940 	call	5694 <alt_get_errno>
    579c:	1007883a 	mov	r3,r2
    57a0:	00800344 	movi	r2,13
    57a4:	18800015 	stw	r2,0(r3)
    57a8:	00000406 	br	57bc <write+0xe0>
    57ac:	00056940 	call	5694 <alt_get_errno>
    57b0:	1007883a 	mov	r3,r2
    57b4:	00801444 	movi	r2,81
    57b8:	18800015 	stw	r2,0(r3)
    57bc:	00bfffc4 	movi	r2,-1
    57c0:	e037883a 	mov	sp,fp
    57c4:	dfc00117 	ldw	ra,4(sp)
    57c8:	df000017 	ldw	fp,0(sp)
    57cc:	dec00204 	addi	sp,sp,8
    57d0:	f800283a 	ret

000057d4 <alt_dev_reg>:
    57d4:	defffd04 	addi	sp,sp,-12
    57d8:	dfc00215 	stw	ra,8(sp)
    57dc:	df000115 	stw	fp,4(sp)
    57e0:	df000104 	addi	fp,sp,4
    57e4:	e13fff15 	stw	r4,-4(fp)
    57e8:	01400074 	movhi	r5,1
    57ec:	29667604 	addi	r5,r5,-26152
    57f0:	e13fff17 	ldw	r4,-4(fp)
    57f4:	0007ae00 	call	7ae0 <alt_dev_llist_insert>
    57f8:	e037883a 	mov	sp,fp
    57fc:	dfc00117 	ldw	ra,4(sp)
    5800:	df000017 	ldw	fp,0(sp)
    5804:	dec00204 	addi	sp,sp,8
    5808:	f800283a 	ret

0000580c <alt_irq_init>:
    580c:	defffd04 	addi	sp,sp,-12
    5810:	dfc00215 	stw	ra,8(sp)
    5814:	df000115 	stw	fp,4(sp)
    5818:	df000104 	addi	fp,sp,4
    581c:	e13fff15 	stw	r4,-4(fp)
    5820:	00086000 	call	8600 <altera_nios2_gen2_irq_init>
    5824:	00800044 	movi	r2,1
    5828:	1001703a 	wrctl	status,r2
    582c:	0001883a 	nop
    5830:	0001883a 	nop
    5834:	e037883a 	mov	sp,fp
    5838:	dfc00117 	ldw	ra,4(sp)
    583c:	df000017 	ldw	fp,0(sp)
    5840:	dec00204 	addi	sp,sp,8
    5844:	f800283a 	ret

00005848 <alt_sys_init>:
    5848:	defffe04 	addi	sp,sp,-8
    584c:	dfc00115 	stw	ra,4(sp)
    5850:	df000015 	stw	fp,0(sp)
    5854:	d839883a 	mov	fp,sp
    5858:	01c0fa04 	movi	r7,1000
    585c:	01800044 	movi	r6,1
    5860:	000b883a 	mov	r5,zero
    5864:	010000b4 	movhi	r4,2
    5868:	21002004 	addi	r4,r4,128
    586c:	00077700 	call	7770 <alt_avalon_timer_sc_init>
    5870:	01000074 	movhi	r4,1
    5874:	2125e804 	addi	r4,r4,-26720
    5878:	0005af40 	call	5af4 <alt_avalon_i2c_init>
    587c:	01000074 	movhi	r4,1
    5880:	2125f604 	addi	r4,r4,-26664
    5884:	00057d40 	call	57d4 <alt_dev_reg>
    5888:	0001883a 	nop
    588c:	e037883a 	mov	sp,fp
    5890:	dfc00117 	ldw	ra,4(sp)
    5894:	df000017 	ldw	fp,0(sp)
    5898:	dec00204 	addi	sp,sp,8
    589c:	f800283a 	ret

000058a0 <optional_irq_callback>:
    58a0:	defff904 	addi	sp,sp,-28
    58a4:	dfc00615 	stw	ra,24(sp)
    58a8:	df000515 	stw	fp,20(sp)
    58ac:	df000504 	addi	fp,sp,20
    58b0:	e13ffb15 	stw	r4,-20(fp)
    58b4:	008000b4 	movhi	r2,2
    58b8:	10a1a804 	addi	r2,r2,-31072
    58bc:	e0bfff15 	stw	r2,-4(fp)
    58c0:	e0bffb17 	ldw	r2,-20(fp)
    58c4:	e0bffe15 	stw	r2,-8(fp)
    58c8:	e0bffe17 	ldw	r2,-8(fp)
    58cc:	10800717 	ldw	r2,28(r2)
    58d0:	e0bffd15 	stw	r2,-12(fp)
    58d4:	e0bffd17 	ldw	r2,-12(fp)
    58d8:	10800217 	ldw	r2,8(r2)
    58dc:	10800098 	cmpnei	r2,r2,2
    58e0:	1000251e 	bne	r2,zero,5978 <optional_irq_callback+0xd8>
    58e4:	e0bffd17 	ldw	r2,-12(fp)
    58e8:	10c00017 	ldw	r3,0(r2)
    58ec:	e0bffd17 	ldw	r2,-12(fp)
    58f0:	10800117 	ldw	r2,4(r2)
    58f4:	e13ffc04 	addi	r4,fp,-16
    58f8:	200f883a 	mov	r7,r4
    58fc:	100d883a 	mov	r6,r2
    5900:	180b883a 	mov	r5,r3
    5904:	e13ffe17 	ldw	r4,-8(fp)
    5908:	00060540 	call	6054 <alt_avalon_i2c_rx_read_available>
    590c:	e0bffd17 	ldw	r2,-12(fp)
    5910:	10c00117 	ldw	r3,4(r2)
    5914:	e0bffc17 	ldw	r2,-16(fp)
    5918:	1887c83a 	sub	r3,r3,r2
    591c:	e0bffd17 	ldw	r2,-12(fp)
    5920:	10c00115 	stw	r3,4(r2)
    5924:	e0bffd17 	ldw	r2,-12(fp)
    5928:	10c00017 	ldw	r3,0(r2)
    592c:	e0bffc17 	ldw	r2,-16(fp)
    5930:	1887883a 	add	r3,r3,r2
    5934:	e0bffd17 	ldw	r2,-12(fp)
    5938:	10c00015 	stw	r3,0(r2)
    593c:	e0bffd17 	ldw	r2,-12(fp)
    5940:	10800117 	ldw	r2,4(r2)
    5944:	10000c26 	beq	r2,zero,5978 <optional_irq_callback+0xd8>
    5948:	01400704 	movi	r5,28
    594c:	e13ffe17 	ldw	r4,-8(fp)
    5950:	00072000 	call	7200 <alt_avalon_i2c_int_clear>
    5954:	01400084 	movi	r5,2
    5958:	e13ffe17 	ldw	r4,-8(fp)
    595c:	00072a80 	call	72a8 <alt_avalon_i2c_int_enable>
    5960:	00000e06 	br	599c <optional_irq_callback+0xfc>
    5964:	e0bfff17 	ldw	r2,-4(fp)
    5968:	10bfffc4 	addi	r2,r2,-1
    596c:	e0bfff15 	stw	r2,-4(fp)
    5970:	e0bfff17 	ldw	r2,-4(fp)
    5974:	10000426 	beq	r2,zero,5988 <optional_irq_callback+0xe8>
    5978:	e13ffe17 	ldw	r4,-8(fp)
    597c:	00060100 	call	6010 <alt_avalon_i2c_is_busy>
    5980:	103ff81e 	bne	r2,zero,5964 <optional_irq_callback+0xc4>
    5984:	00000106 	br	598c <optional_irq_callback+0xec>
    5988:	0001883a 	nop
    598c:	e13ffe17 	ldw	r4,-8(fp)
    5990:	0005cb80 	call	5cb8 <alt_avalon_i2c_disable>
    5994:	e0bffd17 	ldw	r2,-12(fp)
    5998:	10000215 	stw	zero,8(r2)
    599c:	e037883a 	mov	sp,fp
    59a0:	dfc00117 	ldw	ra,4(sp)
    59a4:	df000017 	ldw	fp,0(sp)
    59a8:	dec00204 	addi	sp,sp,8
    59ac:	f800283a 	ret

000059b0 <alt_avalon_i2c_register_optional_irq_handler>:
    59b0:	defffc04 	addi	sp,sp,-16
    59b4:	dfc00315 	stw	ra,12(sp)
    59b8:	df000215 	stw	fp,8(sp)
    59bc:	df000204 	addi	fp,sp,8
    59c0:	e13fff15 	stw	r4,-4(fp)
    59c4:	e17ffe15 	stw	r5,-8(fp)
    59c8:	e0bffe17 	ldw	r2,-8(fp)
    59cc:	10000215 	stw	zero,8(r2)
    59d0:	e1fffe17 	ldw	r7,-8(fp)
    59d4:	000d883a 	mov	r6,zero
    59d8:	01400034 	movhi	r5,0
    59dc:	29562804 	addi	r5,r5,22688
    59e0:	e13fff17 	ldw	r4,-4(fp)
    59e4:	0005aa00 	call	5aa0 <alt_avalon_i2c_register_callback>
    59e8:	0001883a 	nop
    59ec:	e037883a 	mov	sp,fp
    59f0:	dfc00117 	ldw	ra,4(sp)
    59f4:	df000017 	ldw	fp,0(sp)
    59f8:	dec00204 	addi	sp,sp,8
    59fc:	f800283a 	ret

00005a00 <alt_avalon_i2c_irq>:
    5a00:	defff904 	addi	sp,sp,-28
    5a04:	dfc00615 	stw	ra,24(sp)
    5a08:	df000515 	stw	fp,20(sp)
    5a0c:	df000504 	addi	fp,sp,20
    5a10:	e13ffb15 	stw	r4,-20(fp)
    5a14:	e0bffb17 	ldw	r2,-20(fp)
    5a18:	e0bfff15 	stw	r2,-4(fp)
    5a1c:	014007c4 	movi	r5,31
    5a20:	e13fff17 	ldw	r4,-4(fp)
    5a24:	000723c0 	call	723c <alt_avalon_i2c_int_disable>
    5a28:	01400704 	movi	r5,28
    5a2c:	e13fff17 	ldw	r4,-4(fp)
    5a30:	00072000 	call	7200 <alt_avalon_i2c_int_clear>
    5a34:	e0bfff17 	ldw	r2,-4(fp)
    5a38:	10800617 	ldw	r2,24(r2)
    5a3c:	10001226 	beq	r2,zero,5a88 <alt_avalon_i2c_irq+0x88>
    5a40:	0005303a 	rdctl	r2,status
    5a44:	e0bffc15 	stw	r2,-16(fp)
    5a48:	e0fffc17 	ldw	r3,-16(fp)
    5a4c:	00bfff84 	movi	r2,-2
    5a50:	1884703a 	and	r2,r3,r2
    5a54:	1001703a 	wrctl	status,r2
    5a58:	e0bffc17 	ldw	r2,-16(fp)
    5a5c:	e0bffe15 	stw	r2,-8(fp)
    5a60:	e0bfff17 	ldw	r2,-4(fp)
    5a64:	10800617 	ldw	r2,24(r2)
    5a68:	e13fff17 	ldw	r4,-4(fp)
    5a6c:	103ee83a 	callr	r2
    5a70:	e0bffe17 	ldw	r2,-8(fp)
    5a74:	e0bffd15 	stw	r2,-12(fp)
    5a78:	e0bffd17 	ldw	r2,-12(fp)
    5a7c:	1001703a 	wrctl	status,r2
    5a80:	0001883a 	nop
    5a84:	0001883a 	nop
    5a88:	0001883a 	nop
    5a8c:	e037883a 	mov	sp,fp
    5a90:	dfc00117 	ldw	ra,4(sp)
    5a94:	df000017 	ldw	fp,0(sp)
    5a98:	dec00204 	addi	sp,sp,8
    5a9c:	f800283a 	ret

00005aa0 <alt_avalon_i2c_register_callback>:
    5aa0:	defffb04 	addi	sp,sp,-20
    5aa4:	df000415 	stw	fp,16(sp)
    5aa8:	df000404 	addi	fp,sp,16
    5aac:	e13fff15 	stw	r4,-4(fp)
    5ab0:	e17ffe15 	stw	r5,-8(fp)
    5ab4:	e1bffd15 	stw	r6,-12(fp)
    5ab8:	e1fffc15 	stw	r7,-16(fp)
    5abc:	e0bfff17 	ldw	r2,-4(fp)
    5ac0:	e0fffe17 	ldw	r3,-8(fp)
    5ac4:	10c00615 	stw	r3,24(r2)
    5ac8:	e0bfff17 	ldw	r2,-4(fp)
    5acc:	e0fffc17 	ldw	r3,-16(fp)
    5ad0:	10c00715 	stw	r3,28(r2)
    5ad4:	e0bfff17 	ldw	r2,-4(fp)
    5ad8:	e0fffd17 	ldw	r3,-12(fp)
    5adc:	10c00815 	stw	r3,32(r2)
    5ae0:	0001883a 	nop
    5ae4:	e037883a 	mov	sp,fp
    5ae8:	df000017 	ldw	fp,0(sp)
    5aec:	dec00104 	addi	sp,sp,4
    5af0:	f800283a 	ret

00005af4 <alt_avalon_i2c_init>:
    5af4:	defff704 	addi	sp,sp,-36
    5af8:	dfc00815 	stw	ra,32(sp)
    5afc:	df000715 	stw	fp,28(sp)
    5b00:	df000704 	addi	fp,sp,28
    5b04:	e13ffa15 	stw	r4,-24(fp)
    5b08:	e13ffa17 	ldw	r4,-24(fp)
    5b0c:	0005cb80 	call	5cb8 <alt_avalon_i2c_disable>
    5b10:	014007c4 	movi	r5,31
    5b14:	e13ffa17 	ldw	r4,-24(fp)
    5b18:	000723c0 	call	723c <alt_avalon_i2c_int_disable>
    5b1c:	01400704 	movi	r5,28
    5b20:	e13ffa17 	ldw	r4,-24(fp)
    5b24:	00072000 	call	7200 <alt_avalon_i2c_int_clear>
    5b28:	014000c4 	movi	r5,3
    5b2c:	e13ffa17 	ldw	r4,-24(fp)
    5b30:	00074500 	call	7450 <alt_avalon_i2c_tfr_cmd_fifo_threshold_set>
    5b34:	014000c4 	movi	r5,3
    5b38:	e13ffa17 	ldw	r4,-24(fp)
    5b3c:	00073a00 	call	73a0 <alt_avalon_i2c_rx_fifo_threshold_set>
    5b40:	e03ffc15 	stw	zero,-16(fp)
    5b44:	e03ffb15 	stw	zero,-20(fp)
    5b48:	e0bffb04 	addi	r2,fp,-20
    5b4c:	018000b4 	movhi	r6,2
    5b50:	31a1a804 	addi	r6,r6,-31072
    5b54:	100b883a 	mov	r5,r2
    5b58:	e13ffa17 	ldw	r4,-24(fp)
    5b5c:	0005f140 	call	5f14 <alt_avalon_i2c_master_config_speed_set>
    5b60:	e0bffb04 	addi	r2,fp,-20
    5b64:	100b883a 	mov	r5,r2
    5b68:	e13ffa17 	ldw	r4,-24(fp)
    5b6c:	0005db40 	call	5db4 <alt_avalon_i2c_master_config_set>
    5b70:	d1600704 	addi	r5,gp,-32740
    5b74:	e13ffa17 	ldw	r4,-24(fp)
    5b78:	0007ae00 	call	7ae0 <alt_dev_llist_insert>
    5b7c:	0005883a 	mov	r2,zero
    5b80:	e0bfff15 	stw	r2,-4(fp)
    5b84:	e0bfff17 	ldw	r2,-4(fp)
    5b88:	10000c1e 	bne	r2,zero,5bbc <alt_avalon_i2c_init+0xc8>
    5b8c:	e0bffa17 	ldw	r2,-24(fp)
    5b90:	10c00417 	ldw	r3,16(r2)
    5b94:	e0bffa17 	ldw	r2,-24(fp)
    5b98:	10800517 	ldw	r2,20(r2)
    5b9c:	d8000015 	stw	zero,0(sp)
    5ba0:	e1fffa17 	ldw	r7,-24(fp)
    5ba4:	01800034 	movhi	r6,0
    5ba8:	31968004 	addi	r6,r6,23040
    5bac:	100b883a 	mov	r5,r2
    5bb0:	1809883a 	mov	r4,r3
    5bb4:	0007d140 	call	7d14 <alt_ic_isr_register>
    5bb8:	00000406 	br	5bcc <alt_avalon_i2c_init+0xd8>
    5bbc:	01000074 	movhi	r4,1
    5bc0:	2125a404 	addi	r4,r4,-26992
    5bc4:	000834c0 	call	834c <alt_printf>
    5bc8:	0001883a 	nop
    5bcc:	e037883a 	mov	sp,fp
    5bd0:	dfc00117 	ldw	ra,4(sp)
    5bd4:	df000017 	ldw	fp,0(sp)
    5bd8:	dec00204 	addi	sp,sp,8
    5bdc:	f800283a 	ret

00005be0 <alt_avalon_i2c_open>:
    5be0:	defffc04 	addi	sp,sp,-16
    5be4:	dfc00315 	stw	ra,12(sp)
    5be8:	df000215 	stw	fp,8(sp)
    5bec:	df000204 	addi	fp,sp,8
    5bf0:	e13ffe15 	stw	r4,-8(fp)
    5bf4:	e03fff15 	stw	zero,-4(fp)
    5bf8:	d1600704 	addi	r5,gp,-32740
    5bfc:	e13ffe17 	ldw	r4,-8(fp)
    5c00:	0007c500 	call	7c50 <alt_find_dev>
    5c04:	e0bfff15 	stw	r2,-4(fp)
    5c08:	e0bfff17 	ldw	r2,-4(fp)
    5c0c:	e037883a 	mov	sp,fp
    5c10:	dfc00117 	ldw	ra,4(sp)
    5c14:	df000017 	ldw	fp,0(sp)
    5c18:	dec00204 	addi	sp,sp,8
    5c1c:	f800283a 	ret

00005c20 <alt_avalon_i2c_enable>:
    5c20:	defffc04 	addi	sp,sp,-16
    5c24:	df000315 	stw	fp,12(sp)
    5c28:	df000304 	addi	fp,sp,12
    5c2c:	e13ffd15 	stw	r4,-12(fp)
    5c30:	e0bffd17 	ldw	r2,-12(fp)
    5c34:	10800717 	ldw	r2,28(r2)
    5c38:	e0bfff15 	stw	r2,-4(fp)
    5c3c:	e0bffd17 	ldw	r2,-12(fp)
    5c40:	10800317 	ldw	r2,12(r2)
    5c44:	10800204 	addi	r2,r2,8
    5c48:	10800037 	ldwio	r2,0(r2)
    5c4c:	1080004c 	andi	r2,r2,1
    5c50:	e0bffe15 	stw	r2,-8(fp)
    5c54:	e0bffe17 	ldw	r2,-8(fp)
    5c58:	10000226 	beq	r2,zero,5c64 <alt_avalon_i2c_enable+0x44>
    5c5c:	00bffe44 	movi	r2,-7
    5c60:	00001106 	br	5ca8 <alt_avalon_i2c_enable+0x88>
    5c64:	e0bffd17 	ldw	r2,-12(fp)
    5c68:	10c00617 	ldw	r3,24(r2)
    5c6c:	00800034 	movhi	r2,0
    5c70:	10962804 	addi	r2,r2,22688
    5c74:	1880021e 	bne	r3,r2,5c80 <alt_avalon_i2c_enable+0x60>
    5c78:	e0bfff17 	ldw	r2,-4(fp)
    5c7c:	10000215 	stw	zero,8(r2)
    5c80:	e0bffd17 	ldw	r2,-12(fp)
    5c84:	10800317 	ldw	r2,12(r2)
    5c88:	10800204 	addi	r2,r2,8
    5c8c:	e0fffd17 	ldw	r3,-12(fp)
    5c90:	18c00317 	ldw	r3,12(r3)
    5c94:	18c00204 	addi	r3,r3,8
    5c98:	18c00037 	ldwio	r3,0(r3)
    5c9c:	18c00054 	ori	r3,r3,1
    5ca0:	10c00035 	stwio	r3,0(r2)
    5ca4:	0005883a 	mov	r2,zero
    5ca8:	e037883a 	mov	sp,fp
    5cac:	df000017 	ldw	fp,0(sp)
    5cb0:	dec00104 	addi	sp,sp,4
    5cb4:	f800283a 	ret

00005cb8 <alt_avalon_i2c_disable>:
    5cb8:	defffe04 	addi	sp,sp,-8
    5cbc:	df000115 	stw	fp,4(sp)
    5cc0:	df000104 	addi	fp,sp,4
    5cc4:	e13fff15 	stw	r4,-4(fp)
    5cc8:	e0bfff17 	ldw	r2,-4(fp)
    5ccc:	10800317 	ldw	r2,12(r2)
    5cd0:	10800204 	addi	r2,r2,8
    5cd4:	e0ffff17 	ldw	r3,-4(fp)
    5cd8:	18c00317 	ldw	r3,12(r3)
    5cdc:	18c00204 	addi	r3,r3,8
    5ce0:	19000037 	ldwio	r4,0(r3)
    5ce4:	00ffff84 	movi	r3,-2
    5ce8:	20c6703a 	and	r3,r4,r3
    5cec:	10c00035 	stwio	r3,0(r2)
    5cf0:	0001883a 	nop
    5cf4:	e037883a 	mov	sp,fp
    5cf8:	df000017 	ldw	fp,0(sp)
    5cfc:	dec00104 	addi	sp,sp,4
    5d00:	f800283a 	ret

00005d04 <alt_avalon_i2c_master_config_get>:
    5d04:	defffd04 	addi	sp,sp,-12
    5d08:	df000215 	stw	fp,8(sp)
    5d0c:	df000204 	addi	fp,sp,8
    5d10:	e13fff15 	stw	r4,-4(fp)
    5d14:	e17ffe15 	stw	r5,-8(fp)
    5d18:	e0bfff17 	ldw	r2,-4(fp)
    5d1c:	10c00d17 	ldw	r3,52(r2)
    5d20:	e0bffe17 	ldw	r2,-8(fp)
    5d24:	10c00015 	stw	r3,0(r2)
    5d28:	e0bfff17 	ldw	r2,-4(fp)
    5d2c:	10800317 	ldw	r2,12(r2)
    5d30:	10800204 	addi	r2,r2,8
    5d34:	10800037 	ldwio	r2,0(r2)
    5d38:	1005d07a 	srai	r2,r2,1
    5d3c:	1080004c 	andi	r2,r2,1
    5d40:	1007883a 	mov	r3,r2
    5d44:	e0bffe17 	ldw	r2,-8(fp)
    5d48:	10c00115 	stw	r3,4(r2)
    5d4c:	e0bfff17 	ldw	r2,-4(fp)
    5d50:	10800317 	ldw	r2,12(r2)
    5d54:	10800904 	addi	r2,r2,36
    5d58:	10800037 	ldwio	r2,0(r2)
    5d5c:	1007883a 	mov	r3,r2
    5d60:	e0bffe17 	ldw	r2,-8(fp)
    5d64:	10c0020d 	sth	r3,8(r2)
    5d68:	e0bfff17 	ldw	r2,-4(fp)
    5d6c:	10800317 	ldw	r2,12(r2)
    5d70:	10800804 	addi	r2,r2,32
    5d74:	10800037 	ldwio	r2,0(r2)
    5d78:	1007883a 	mov	r3,r2
    5d7c:	e0bffe17 	ldw	r2,-8(fp)
    5d80:	10c0028d 	sth	r3,10(r2)
    5d84:	e0bfff17 	ldw	r2,-4(fp)
    5d88:	10800317 	ldw	r2,12(r2)
    5d8c:	10800a04 	addi	r2,r2,40
    5d90:	10800037 	ldwio	r2,0(r2)
    5d94:	1007883a 	mov	r3,r2
    5d98:	e0bffe17 	ldw	r2,-8(fp)
    5d9c:	10c0030d 	sth	r3,12(r2)
    5da0:	0001883a 	nop
    5da4:	e037883a 	mov	sp,fp
    5da8:	df000017 	ldw	fp,0(sp)
    5dac:	dec00104 	addi	sp,sp,4
    5db0:	f800283a 	ret

00005db4 <alt_avalon_i2c_master_config_set>:
    5db4:	defffd04 	addi	sp,sp,-12
    5db8:	df000215 	stw	fp,8(sp)
    5dbc:	df000204 	addi	fp,sp,8
    5dc0:	e13fff15 	stw	r4,-4(fp)
    5dc4:	e17ffe15 	stw	r5,-8(fp)
    5dc8:	e0bffe17 	ldw	r2,-8(fp)
    5dcc:	10c00017 	ldw	r3,0(r2)
    5dd0:	e0bfff17 	ldw	r2,-4(fp)
    5dd4:	10c00d15 	stw	r3,52(r2)
    5dd8:	e0bfff17 	ldw	r2,-4(fp)
    5ddc:	10800317 	ldw	r2,12(r2)
    5de0:	10c00204 	addi	r3,r2,8
    5de4:	e0bfff17 	ldw	r2,-4(fp)
    5de8:	10800317 	ldw	r2,12(r2)
    5dec:	10800204 	addi	r2,r2,8
    5df0:	10800037 	ldwio	r2,0(r2)
    5df4:	1009883a 	mov	r4,r2
    5df8:	00bfff44 	movi	r2,-3
    5dfc:	2088703a 	and	r4,r4,r2
    5e00:	e0bffe17 	ldw	r2,-8(fp)
    5e04:	10800117 	ldw	r2,4(r2)
    5e08:	1085883a 	add	r2,r2,r2
    5e0c:	1080008c 	andi	r2,r2,2
    5e10:	2084b03a 	or	r2,r4,r2
    5e14:	18800035 	stwio	r2,0(r3)
    5e18:	e0bfff17 	ldw	r2,-4(fp)
    5e1c:	10800317 	ldw	r2,12(r2)
    5e20:	10800904 	addi	r2,r2,36
    5e24:	e0fffe17 	ldw	r3,-8(fp)
    5e28:	18c0020b 	ldhu	r3,8(r3)
    5e2c:	18ffffcc 	andi	r3,r3,65535
    5e30:	10c00035 	stwio	r3,0(r2)
    5e34:	e0bfff17 	ldw	r2,-4(fp)
    5e38:	10800317 	ldw	r2,12(r2)
    5e3c:	10800804 	addi	r2,r2,32
    5e40:	e0fffe17 	ldw	r3,-8(fp)
    5e44:	18c0028b 	ldhu	r3,10(r3)
    5e48:	18ffffcc 	andi	r3,r3,65535
    5e4c:	10c00035 	stwio	r3,0(r2)
    5e50:	e0bfff17 	ldw	r2,-4(fp)
    5e54:	10800317 	ldw	r2,12(r2)
    5e58:	10800a04 	addi	r2,r2,40
    5e5c:	e0fffe17 	ldw	r3,-8(fp)
    5e60:	18c0030b 	ldhu	r3,12(r3)
    5e64:	18ffffcc 	andi	r3,r3,65535
    5e68:	10c00035 	stwio	r3,0(r2)
    5e6c:	0001883a 	nop
    5e70:	e037883a 	mov	sp,fp
    5e74:	df000017 	ldw	fp,0(sp)
    5e78:	dec00104 	addi	sp,sp,4
    5e7c:	f800283a 	ret

00005e80 <alt_avalon_i2c_master_config_speed_get>:
    5e80:	defffb04 	addi	sp,sp,-20
    5e84:	dfc00415 	stw	ra,16(sp)
    5e88:	df000315 	stw	fp,12(sp)
    5e8c:	df000304 	addi	fp,sp,12
    5e90:	e13fff15 	stw	r4,-4(fp)
    5e94:	e17ffe15 	stw	r5,-8(fp)
    5e98:	e1bffd15 	stw	r6,-12(fp)
    5e9c:	e0bffe17 	ldw	r2,-8(fp)
    5ea0:	1080028b 	ldhu	r2,10(r2)
    5ea4:	10bfffcc 	andi	r2,r2,65535
    5ea8:	10000426 	beq	r2,zero,5ebc <alt_avalon_i2c_master_config_speed_get+0x3c>
    5eac:	e0bffe17 	ldw	r2,-8(fp)
    5eb0:	1080020b 	ldhu	r2,8(r2)
    5eb4:	10bfffcc 	andi	r2,r2,65535
    5eb8:	1000021e 	bne	r2,zero,5ec4 <alt_avalon_i2c_master_config_speed_get+0x44>
    5ebc:	00bfff44 	movi	r2,-3
    5ec0:	00000f06 	br	5f00 <alt_avalon_i2c_master_config_speed_get+0x80>
    5ec4:	e0bfff17 	ldw	r2,-4(fp)
    5ec8:	11000c17 	ldw	r4,48(r2)
    5ecc:	e0bffe17 	ldw	r2,-8(fp)
    5ed0:	1080028b 	ldhu	r2,10(r2)
    5ed4:	10ffffcc 	andi	r3,r2,65535
    5ed8:	e0bffe17 	ldw	r2,-8(fp)
    5edc:	1080020b 	ldhu	r2,8(r2)
    5ee0:	10bfffcc 	andi	r2,r2,65535
    5ee4:	1885883a 	add	r2,r3,r2
    5ee8:	100b883a 	mov	r5,r2
    5eec:	00034000 	call	3400 <__udivsi3>
    5ef0:	1007883a 	mov	r3,r2
    5ef4:	e0bffd17 	ldw	r2,-12(fp)
    5ef8:	10c00015 	stw	r3,0(r2)
    5efc:	0005883a 	mov	r2,zero
    5f00:	e037883a 	mov	sp,fp
    5f04:	dfc00117 	ldw	ra,4(sp)
    5f08:	df000017 	ldw	fp,0(sp)
    5f0c:	dec00204 	addi	sp,sp,8
    5f10:	f800283a 	ret

00005f14 <alt_avalon_i2c_master_config_speed_set>:
    5f14:	defff904 	addi	sp,sp,-28
    5f18:	dfc00615 	stw	ra,24(sp)
    5f1c:	df000515 	stw	fp,20(sp)
    5f20:	df000504 	addi	fp,sp,20
    5f24:	e13ffd15 	stw	r4,-12(fp)
    5f28:	e17ffc15 	stw	r5,-16(fp)
    5f2c:	e1bffb15 	stw	r6,-20(fp)
    5f30:	e0fffb17 	ldw	r3,-20(fp)
    5f34:	008001b4 	movhi	r2,6
    5f38:	1086a004 	addi	r2,r2,6784
    5f3c:	10c00436 	bltu	r2,r3,5f50 <alt_avalon_i2c_master_config_speed_set+0x3c>
    5f40:	e0bffb17 	ldw	r2,-20(fp)
    5f44:	10000226 	beq	r2,zero,5f50 <alt_avalon_i2c_master_config_speed_set+0x3c>
    5f48:	e0bffb17 	ldw	r2,-20(fp)
    5f4c:	1000021e 	bne	r2,zero,5f58 <alt_avalon_i2c_master_config_speed_set+0x44>
    5f50:	00bfff04 	movi	r2,-4
    5f54:	00002906 	br	5ffc <alt_avalon_i2c_master_config_speed_set+0xe8>
    5f58:	e0bffd17 	ldw	r2,-12(fp)
    5f5c:	10c00c17 	ldw	r3,48(r2)
    5f60:	e0bffb17 	ldw	r2,-20(fp)
    5f64:	1085883a 	add	r2,r2,r2
    5f68:	100b883a 	mov	r5,r2
    5f6c:	1809883a 	mov	r4,r3
    5f70:	00034000 	call	3400 <__udivsi3>
    5f74:	e0bfff15 	stw	r2,-4(fp)
    5f78:	e0bfff17 	ldw	r2,-4(fp)
    5f7c:	10800f04 	addi	r2,r2,60
    5f80:	e0bffe15 	stw	r2,-8(fp)
    5f84:	e0bfff17 	ldw	r2,-4(fp)
    5f88:	10bff104 	addi	r2,r2,-60
    5f8c:	e0bfff15 	stw	r2,-4(fp)
    5f90:	e0fffb17 	ldw	r3,-20(fp)
    5f94:	008000b4 	movhi	r2,2
    5f98:	10a1a804 	addi	r2,r2,-31072
    5f9c:	10c0042e 	bgeu	r2,r3,5fb0 <alt_avalon_i2c_master_config_speed_set+0x9c>
    5fa0:	e0bffc17 	ldw	r2,-16(fp)
    5fa4:	00c00044 	movi	r3,1
    5fa8:	10c00115 	stw	r3,4(r2)
    5fac:	00000206 	br	5fb8 <alt_avalon_i2c_master_config_speed_set+0xa4>
    5fb0:	e0bffc17 	ldw	r2,-16(fp)
    5fb4:	10000115 	stw	zero,4(r2)
    5fb8:	e0bfff17 	ldw	r2,-4(fp)
    5fbc:	1007883a 	mov	r3,r2
    5fc0:	e0bffc17 	ldw	r2,-16(fp)
    5fc4:	10c0028d 	sth	r3,10(r2)
    5fc8:	e0bffe17 	ldw	r2,-8(fp)
    5fcc:	1007883a 	mov	r3,r2
    5fd0:	e0bffc17 	ldw	r2,-16(fp)
    5fd4:	10c0020d 	sth	r3,8(r2)
    5fd8:	e0bfff17 	ldw	r2,-4(fp)
    5fdc:	1007883a 	mov	r3,r2
    5fe0:	e0bfff17 	ldw	r2,-4(fp)
    5fe4:	1004d07a 	srli	r2,r2,1
    5fe8:	1885c83a 	sub	r2,r3,r2
    5fec:	1007883a 	mov	r3,r2
    5ff0:	e0bffc17 	ldw	r2,-16(fp)
    5ff4:	10c0030d 	sth	r3,12(r2)
    5ff8:	0005883a 	mov	r2,zero
    5ffc:	e037883a 	mov	sp,fp
    6000:	dfc00117 	ldw	ra,4(sp)
    6004:	df000017 	ldw	fp,0(sp)
    6008:	dec00204 	addi	sp,sp,8
    600c:	f800283a 	ret

00006010 <alt_avalon_i2c_is_busy>:
    6010:	defffe04 	addi	sp,sp,-8
    6014:	df000115 	stw	fp,4(sp)
    6018:	df000104 	addi	fp,sp,4
    601c:	e13fff15 	stw	r4,-4(fp)
    6020:	e0bfff17 	ldw	r2,-4(fp)
    6024:	10800317 	ldw	r2,12(r2)
    6028:	10800504 	addi	r2,r2,20
    602c:	10800037 	ldwio	r2,0(r2)
    6030:	1080004c 	andi	r2,r2,1
    6034:	10000226 	beq	r2,zero,6040 <alt_avalon_i2c_is_busy+0x30>
    6038:	00800044 	movi	r2,1
    603c:	00000106 	br	6044 <alt_avalon_i2c_is_busy+0x34>
    6040:	0005883a 	mov	r2,zero
    6044:	e037883a 	mov	sp,fp
    6048:	df000017 	ldw	fp,0(sp)
    604c:	dec00104 	addi	sp,sp,4
    6050:	f800283a 	ret

00006054 <alt_avalon_i2c_rx_read_available>:
    6054:	defffb04 	addi	sp,sp,-20
    6058:	df000415 	stw	fp,16(sp)
    605c:	df000404 	addi	fp,sp,16
    6060:	e13fff15 	stw	r4,-4(fp)
    6064:	e17ffe15 	stw	r5,-8(fp)
    6068:	e1bffd15 	stw	r6,-12(fp)
    606c:	e1fffc15 	stw	r7,-16(fp)
    6070:	e0bffc17 	ldw	r2,-16(fp)
    6074:	10000015 	stw	zero,0(r2)
    6078:	00001506 	br	60d0 <alt_avalon_i2c_rx_read_available+0x7c>
    607c:	e0bfff17 	ldw	r2,-4(fp)
    6080:	10800317 	ldw	r2,12(r2)
    6084:	10800104 	addi	r2,r2,4
    6088:	11000037 	ldwio	r4,0(r2)
    608c:	e0bffc17 	ldw	r2,-16(fp)
    6090:	10800017 	ldw	r2,0(r2)
    6094:	e0fffe17 	ldw	r3,-8(fp)
    6098:	1885883a 	add	r2,r3,r2
    609c:	2007883a 	mov	r3,r4
    60a0:	10c00005 	stb	r3,0(r2)
    60a4:	e0bffc17 	ldw	r2,-16(fp)
    60a8:	10800017 	ldw	r2,0(r2)
    60ac:	10c00044 	addi	r3,r2,1
    60b0:	e0bffc17 	ldw	r2,-16(fp)
    60b4:	10c00015 	stw	r3,0(r2)
    60b8:	e0bffc17 	ldw	r2,-16(fp)
    60bc:	10800017 	ldw	r2,0(r2)
    60c0:	e0fffd17 	ldw	r3,-12(fp)
    60c4:	1880021e 	bne	r3,r2,60d0 <alt_avalon_i2c_rx_read_available+0x7c>
    60c8:	e0bffd17 	ldw	r2,-12(fp)
    60cc:	1000061e 	bne	r2,zero,60e8 <alt_avalon_i2c_rx_read_available+0x94>
