
video_app2.elf:     file format elf32-littlenios2
video_app2.elf
architecture: nios2:r1, flags 0x00000112:
EXEC_P, HAS_SYMS, D_PAGED
start address 0x00000238

Program Header:
    LOAD off    0x00001000 vaddr 0x00000000 paddr 0x00000000 align 2**12
         filesz 0x00000020 memsz 0x00000020 flags r-x
    LOAD off    0x00001020 vaddr 0x00000020 paddr 0x00000020 align 2**12
         filesz 0x00006324 memsz 0x00006324 flags r-x
    LOAD off    0x00007344 vaddr 0x00006344 paddr 0x00006668 align 2**12
         filesz 0x00000324 memsz 0x00000324 flags rw-
    LOAD off    0x0000798c vaddr 0x0000698c paddr 0x0000698c align 2**12
         filesz 0x00000000 memsz 0x00001134 flags rw-

Sections:
Idx Name          Size      VMA       LMA       File off  Algn
  0 .entry        00000020  00000000  00000000  00001000  2**5
                  CONTENTS, ALLOC, LOAD, READONLY, CODE
  1 .exceptions   00000218  00000020  00000020  00001020  2**2
                  CONTENTS, ALLOC, LOAD, READONLY, CODE
  2 .text         00005a2c  00000238  00000238  00001238  2**2
                  CONTENTS, ALLOC, LOAD, READONLY, CODE
  3 .rodata       000006e0  00005c64  00005c64  00006c64  2**2
                  CONTENTS, ALLOC, LOAD, READONLY, DATA
  4 .rwdata       00000324  00006344  00006668  00007344  2**2
                  CONTENTS, ALLOC, LOAD, DATA, SMALL_DATA
  5 .bss          00001134  0000698c  0000698c  0000798c  2**5
                  ALLOC, SMALL_DATA
  6 .onchip_memory2_0 00000000  00007ac0  00007ac0  00007668  2**0
                  CONTENTS
  7 .comment      0000002d  00000000  00000000  00007668  2**0
                  CONTENTS, READONLY
  8 .debug_aranges 00000780  00000000  00000000  00007698  2**3
                  CONTENTS, READONLY, DEBUGGING, OCTETS
  9 .debug_info   0000b8ed  00000000  00000000  00007e18  2**0
                  CONTENTS, READONLY, DEBUGGING, OCTETS
 10 .debug_abbrev 00003d0b  00000000  00000000  00013705  2**0
                  CONTENTS, READONLY, DEBUGGING, OCTETS
 11 .debug_line   000052f9  00000000  00000000  00017410  2**0
                  CONTENTS, READONLY, DEBUGGING, OCTETS
 12 .debug_frame  00001334  00000000  00000000  0001c70c  2**2
                  CONTENTS, READONLY, DEBUGGING, OCTETS
 13 .debug_str    00002b84  00000000  00000000  0001da40  2**0
                  CONTENTS, READONLY, DEBUGGING, OCTETS
 14 .debug_loc    0000307c  00000000  00000000  000205c4  2**0
                  CONTENTS, READONLY, DEBUGGING, OCTETS
 15 .debug_alt_sim_info 00000060  00000000  00000000  00023640  2**2
                  CONTENTS, READONLY, DEBUGGING, OCTETS
 16 .debug_ranges 00000508  00000000  00000000  000236a0  2**3
                  CONTENTS, READONLY, DEBUGGING, OCTETS
 17 .thread_model 00000003  00000000  00000000  00026138  2**0
                  CONTENTS, READONLY
 18 .cpu          0000000c  00000000  00000000  0002613b  2**0
                  CONTENTS, READONLY
 19 .qsys         00000001  00000000  00000000  00026147  2**0
                  CONTENTS, READONLY
 20 .simulation_enabled 00000001  00000000  00000000  00026148  2**0
                  CONTENTS, READONLY
 21 .stderr_dev   00000009  00000000  00000000  00026149  2**0
                  CONTENTS, READONLY
 22 .stdin_dev    00000009  00000000  00000000  00026152  2**0
                  CONTENTS, READONLY
 23 .stdout_dev   00000009  00000000  00000000  0002615b  2**0
                  CONTENTS, READONLY
 24 .sopc_system_name 0000000a  00000000  00000000  00026164  2**0
                  CONTENTS, READONLY
 25 .sopcinfo     00318b5d  00000000  00000000  0002616e  2**0
                  CONTENTS, READONLY
SYMBOL TABLE:
00000000 l    d  .entry	00000000 .entry
00000020 l    d  .exceptions	00000000 .exceptions
00000238 l    d  .text	00000000 .text
00005c64 l    d  .rodata	00000000 .rodata
00006344 l    d  .rwdata	00000000 .rwdata
0000698c l    d  .bss	00000000 .bss
00007ac0 l    d  .onchip_memory2_0	00000000 .onchip_memory2_0
00000000 l    d  .comment	00000000 .comment
00000000 l    d  .debug_aranges	00000000 .debug_aranges
00000000 l    d  .debug_info	00000000 .debug_info
00000000 l    d  .debug_abbrev	00000000 .debug_abbrev
00000000 l    d  .debug_line	00000000 .debug_line
00000000 l    d  .debug_frame	00000000 .debug_frame
00000000 l    d  .debug_str	00000000 .debug_str
00000000 l    d  .debug_loc	00000000 .debug_loc
00000000 l    d  .debug_alt_sim_info	00000000 .debug_alt_sim_info
00000000 l    d  .debug_ranges	00000000 .debug_ranges
00000000 l    df *ABS*	00000000 c:/Workspace/quartus/video_processing/nios_software/nios_ddr3_test_bsp//obj/HAL/src/crt0.o
00000280 l       .text	00000000 alt_after_alt_main
00000000 l    df *ABS*	00000000 alt_irq_handler.c
00000000 l    df *ABS*	00000000 alt_instruction_exception_entry.c
00000000 l    df *ABS*	00000000 hdmi_config.c
0000698c l     O .bss	00000004 i2c_dev
00000000 l    df *ABS*	00000000 main.c
000069c0 l     O .bss	00001000 ocm_src_buffer
00000000 l    df *ABS*	00000000 mem_verify.c
00000000 l    df *ABS*	00000000 libgcc2.c
00000000 l    df *ABS*	00000000 libgcc2.c
00000000 l    df *ABS*	00000000 lib2-divmod.c
00000000 l    df *ABS*	00000000 libgcc2.c
00000000 l    df *ABS*	00000000 printf.c
00000000 l    df *ABS*	00000000 puts.c
00000000 l    df *ABS*	00000000 strlen.c
00000000 l    df *ABS*	00000000 vfprintf.c
00001c54 l     F .text	0000006c print_repeat
00000000 l    df *ABS*	00000000 fvwrite_small_dev.c
00000000 l    df *ABS*	00000000 impure.c
00006344 l     O .rwdata	000000e4 impure_data
00000000 l    df *ABS*	00000000 writer.c
00000000 l    df *ABS*	00000000 int_errno.c
00000000 l    df *ABS*	00000000 alt_dcache_flush_all.c
00000000 l    df *ABS*	00000000 alt_load.c
00002308 l     F .text	00000068 alt_load_section
00000000 l    df *ABS*	00000000 alt_main.c
00000000 l    df *ABS*	00000000 alt_tick.c
00000000 l    df *ABS*	00000000 alt_usleep.c
00000000 l    df *ABS*	00000000 alt_write.c
0000264c l     F .text	00000048 alt_get_errno
00000000 l    df *ABS*	00000000 alt_sys_init.c
0000278c l     F .text	00000038 alt_dev_reg
00006428 l     O .rwdata	00000038 i2c_hdmi
00006460 l     O .rwdata	0000002c jtag_uart
00000000 l    df *ABS*	00000000 altera_avalon_i2c.c
00002858 l     F .text	00000110 optional_irq_callback
000029b8 l     F .text	000000a0 alt_avalon_i2c_irq
00000000 l    df *ABS*	00000000 altera_avalon_jtag_uart_fd.c
00000000 l    df *ABS*	00000000 altera_avalon_jtag_uart_read.c
00000000 l    df *ABS*	00000000 altera_avalon_jtag_uart_write.c
00000000 l    df *ABS*	00000000 altera_avalon_timer_sc.c
000046ac l     F .text	0000007c alt_avalon_timer_sc_irq
00000000 l    df *ABS*	00000000 alt_busy_sleep.c
00000000 l    df *ABS*	00000000 alt_close.c
0000490c l     F .text	00000048 alt_get_errno
00000000 l    df *ABS*	00000000 alt_dev.c
00004a24 l     F .text	0000002c alt_dev_null_write
00000000 l    df *ABS*	00000000 alt_dev_llist_insert.c
00004a50 l     F .text	00000048 alt_get_errno
00000000 l    df *ABS*	00000000 alt_do_ctors.c
00000000 l    df *ABS*	00000000 alt_do_dtors.c
00000000 l    df *ABS*	00000000 alt_errno.c
00000000 l    df *ABS*	00000000 alt_find_dev.c
00000000 l    df *ABS*	00000000 alt_icache_flush_all.c
00000000 l    df *ABS*	00000000 alt_iic.c
00000000 l    df *ABS*	00000000 alt_iic_isr_register.c
00000000 l    df *ABS*	00000000 alt_io_redirect.c
00004f7c l     F .text	000000b0 alt_open_fd
00000000 l    df *ABS*	00000000 alt_irq_vars.c
00000000 l    df *ABS*	00000000 alt_open.c
000050a8 l     F .text	00000048 alt_get_errno
000050f0 l     F .text	000000bc alt_file_locked
00000000 l    df *ABS*	00000000 alt_printf.c
00000000 l    df *ABS*	00000000 alt_putchar.c
00000000 l    df *ABS*	00000000 alt_release_fd.c
00000000 l    df *ABS*	00000000 altera_nios2_gen2_irq.c
00000000 l    df *ABS*	00000000 alt_find_file.c
00000000 l    df *ABS*	00000000 alt_get_fd.c
00000000 l    df *ABS*	00000000 alt_icache_flush.c
00000000 l    df *ABS*	00000000 atexit.c
00000000 l    df *ABS*	00000000 exit.c
00000000 l    df *ABS*	00000000 memcmp.c
00000000 l    df *ABS*	00000000 putchar.c
00000000 l    df *ABS*	00000000 __atexit.c
00000000 l    df *ABS*	00000000 __call_atexit.c
00000000 l    df *ABS*	00000000 putc.c
00000000 l    df *ABS*	00000000 alt_exit.c
000069ac g     O .bss	00000004 alt_instruction_exception_handler
00005928 g     F .text	00000018 putchar
000023f4 g     F .text	0000007c alt_main
00001ba8 g     F .text	00000080 _puts_r
000079c0 g     O .bss	00000100 alt_irq
00006668 g       *ABS*	00000000 __flash_rwdata_start
00001b60 g     F .text	00000048 printf
00000620 g     F .text	0000044c run_ocm_to_ddr_test
000030b8 g     F .text	000000a8 alt_avalon_i2c_rx_read
000042c8 g     F .text	00000044 alt_avalon_i2c_enabled_ints_get
00002e38 g     F .text	00000094 alt_avalon_i2c_master_config_speed_get
00003b1c g     F .text	00000208 alt_avalon_i2c_master_transmit_using_interrupts
000055b8 g     F .text	00000024 altera_nios2_gen2_irq_init
00000000 g     F .entry	0000001c __reset
00000020 g       *ABS*	00000000 __flash_exceptions_start
00006990 g     O .bss	00000004 errno
00006998 g     O .bss	00000004 alt_argv
0000e634 g       *ABS*	00000000 _gp
0000261c g     F .text	00000030 usleep
0000430c g     F .text	0000004c alt_avalon_i2c_rx_fifo_threshold_get
00002fc8 g     F .text	00000044 alt_avalon_i2c_is_busy
000064b4 g     O .rwdata	00000180 alt_fd_list
00005920 g     F .text	00000008 _putchar_r
00002d6c g     F .text	000000cc alt_avalon_i2c_master_config_set
00004c08 g     F .text	00000090 alt_find_dev
00000f80 g     F .text	00000160 generate_color_bar_pattern
0000502c g     F .text	0000007c alt_io_redirect
00005c64 g       *ABS*	00000000 __DTOR_END__
00003960 g     F .text	000001bc alt_avalon_i2c_master_transmit
00001c28 g     F .text	00000010 puts
00005824 g     F .text	00000098 alt_exception_cause_generated_bad_addr
0000452c g     F .text	000000ec altera_avalon_jtag_uart_read
00001b24 g     F .text	0000003c _printf_r
00000000 g       *ABS*	00000000 __alt_mem_onchip_memory2_0
00001a64 g     F .text	00000064 .hidden __udivsi3
00005794 g     F .text	00000090 alt_icache_flush
00002bd8 g     F .text	00000098 alt_avalon_i2c_enable
000041f4 g     F .text	0000006c alt_avalon_i2c_int_disable
0000665c g     O .rwdata	00000004 alt_max_fd
00000a6c g     F .text	00000514 run_ddr_to_ddr_test
00003d24 g     F .text	0000020c alt_avalon_i2c_master_receive
00004260 g     F .text	00000068 alt_avalon_i2c_int_enable
00006634 g     O .rwdata	00000004 _global_impure_ptr
00007ac0 g       *ABS*	00000000 __bss_end
00004e94 g     F .text	000000e8 alt_iic_isr_register
00001168 g     F .text	000000f4 run_interactive_menu
00002514 g     F .text	00000108 alt_tick
000013e0 g     F .text	00000590 .hidden __udivdi3
0000411c g     F .text	00000058 alt_avalon_i2c_int_status_get
00004e48 g     F .text	0000004c alt_ic_irq_enabled
00002470 g     F .text	000000a4 alt_alarm_stop
00002a58 g     F .text	00000054 alt_avalon_i2c_register_callback
000069a8 g     O .bss	00000004 alt_irq_active
00002aac g     F .text	000000ec alt_avalon_i2c_init
000000fc g     F .exceptions	000000c8 alt_irq_handler
0000648c g     O .rwdata	00000028 alt_dev_null
00000510 g     F .text	00000110 get_total_cycles
000022bc g     F .text	0000004c alt_dcache_flush_all
00006668 g       *ABS*	00000000 __ram_rwdata_end
00006654 g     O .rwdata	00000008 alt_dev_list
00002694 g     F .text	000000f8 write
00005bd8 g     F .text	00000054 _putc_r
000033f4 g     F .text	0000004c alt_avalon_i2c_check_arblost
000041b8 g     F .text	0000003c alt_avalon_i2c_int_clear
00006344 g       *ABS*	00000000 __ram_rodata_end
00006644 g     O .rwdata	00000008 alt_avalon_i2c_list
00001ac8 g     F .text	0000005c .hidden __umodsi3
00007ac0 g       *ABS*	00000000 end
000004d0 g     F .text	00000040 get_char_async
000001c4 g     F .exceptions	00000074 alt_instruction_exception_entry
00002b98 g     F .text	00000040 alt_avalon_i2c_open
00005c64 g       *ABS*	00000000 __CTOR_LIST__
000186a0 g       *ABS*	00000000 __alt_stack_pointer
00003574 g     F .text	000000e8 alt_avalon_i2c_master_tx
00004728 g     F .text	0000008c alt_avalon_timer_sc_init
00004618 g     F .text	00000094 altera_avalon_jtag_uart_write
00001cc0 g     F .text	000004ec ___vfprintf_internal_r
00005304 g     F .text	0000022c alt_printf
000010e0 g     F .text	00000088 print_menu
00005a5c g     F .text	0000012c __call_exitprocs
00002968 g     F .text	00000050 alt_avalon_i2c_register_optional_irq_handler
00000238 g     F .text	0000004c _start
000069a0 g     O .bss	00000004 _alt_tick_rate
00003f30 g     F .text	000001ec alt_avalon_i2c_master_receive_using_interrupts
00004358 g     F .text	00000064 alt_avalon_i2c_rx_fifo_threshold_set
000069a4 g     O .bss	00000004 _alt_nticks
00002800 g     F .text	00000058 alt_sys_init
00005940 g     F .text	0000011c __register_exitproc
00003798 g     F .text	000001c8 alt_avalon_i2c_master_tx_rx
00006344 g       *ABS*	00000000 __ram_rwdata_start
00005c64 g       *ABS*	00000000 __ram_rodata_start
0000446c g     F .text	00000060 altera_avalon_jtag_uart_read_fd
000056ec g     F .text	000000a8 alt_get_fd
000047b4 g     F .text	00000158 alt_busy_sleep
000058f0 g     F .text	00000030 memcmp
0000300c g     F .text	000000ac alt_avalon_i2c_rx_read_available
00007ac0 g       *ABS*	00000000 __alt_stack_base
000055dc g     F .text	00000110 alt_find_file
00004a98 g     F .text	000000a8 alt_dev_llist_insert
00003440 g     F .text	00000134 alt_avalon_i2c_interrupt_transaction_status
000033a8 g     F .text	0000004c alt_avalon_i2c_check_nack
000021c4 g     F .text	000000a8 __sfvwrite_small_dev
0000698c g       *ABS*	00000000 __bss_start
0000125c g     F .text	00000124 main
00003374 g     F .text	00000034 alt_avalon_i2c_master_target_set
0000699c g     O .bss	00000004 alt_envp
000044cc g     F .text	00000060 altera_avalon_jtag_uart_write_fd
00004174 g     F .text	00000044 alt_avalon_i2c_int_raw_status_get
00006660 g     O .rwdata	00000004 alt_errno
00005b88 g     F .text	00000050 putc
00001970 g     F .text	00000080 .hidden __divsi3
00005c64 g       *ABS*	00000000 __CTOR_END__
00000498 g     F .text	00000038 get_char_polled
00005c64 g       *ABS*	00000000 __flash_rodata_start
00005c64 g       *ABS*	00000000 __DTOR_LIST__
000027c4 g     F .text	0000003c alt_irq_init
00005560 g     F .text	00000058 alt_release_fd
000061e4 g     O .rodata	00000100 .hidden __clz_tab
000058bc g     F .text	00000014 atexit
0000226c g     F .text	00000050 _write_r
00006638 g     O .rwdata	00000004 _impure_ptr
00006994 g     O .bss	00000004 alt_argc
00004ba4 g     F .text	00000064 _do_dtors
0000333c g     F .text	00000038 alt_avalon_i2c_master_target_get
0000324c g     F .text	000000f0 alt_avalon_i2c_send_address
00000020 g       .exceptions	00000000 alt_irq_entry
0000664c g     O .rwdata	00000008 alt_fs_list
00000284 g     F .text	00000078 hdmi_i2c_write
00000020 g       *ABS*	00000000 __ram_exceptions_start
000002fc g     F .text	0000019c hdmi_init
00004408 g     F .text	00000064 alt_avalon_i2c_tfr_cmd_fifo_threshold_set
00004ccc g     F .text	00000050 alt_ic_isr_register
00002c70 g     F .text	0000004c alt_avalon_i2c_disable
00006668 g       *ABS*	00000000 _edata
00007ac0 g       *ABS*	00000000 _end
00000238 g       *ABS*	00000000 __ram_exceptions_end
00002cbc g     F .text	000000b0 alt_avalon_i2c_master_config_get
00004db0 g     F .text	00000098 alt_ic_irq_disable
000058d0 g     F .text	00000020 exit
000019f0 g     F .text	00000074 .hidden __modsi3
000186a0 g       *ABS*	00000000 __alt_data_end
00000020 g     F .exceptions	00000000 alt_exception
00002ecc g     F .text	000000fc alt_avalon_i2c_master_config_speed_set
00003160 g     F .text	000000ec alt_avalon_i2c_cmd_write
00005c2c g     F .text	00000038 _exit
00001380 g     F .text	00000060 .hidden __muldi3
00001c38 g     F .text	0000001c strlen
000051ac g     F .text	00000158 open
00005530 g     F .text	00000030 alt_putchar
00004c98 g     F .text	00000034 alt_icache_flush_all
00006664 g     O .rwdata	00000004 alt_priority_mask
00004d1c g     F .text	00000094 alt_ic_irq_enable
000021ac g     F .text	00000018 __vfprintf_internal
0000663c g     O .rwdata	00000008 alt_alarm_list
00004b40 g     F .text	00000064 _do_ctors
00004954 g     F .text	000000d0 close
000043bc g     F .text	0000004c alt_avalon_i2c_tfr_cmd_fifo_threshold_get
00002370 g     F .text	00000084 alt_load
0000365c g     F .text	0000013c alt_avalon_i2c_master_rx



Disassembly of section .entry:

00000000 <__reset>:
   0:	00840014 	movui	r2,4096
   4:	1001483a 	initi	r2
   8:	10bff804 	addi	r2,r2,-32
   c:	00bffd16 	blt	zero,r2,4 <__reset+0x4>
  10:	00400034 	movhi	at,0
  14:	08408e14 	ori	at,at,568
  18:	0800683a 	jmp	at
  1c:	00000000 	call	0 <__reset>

Disassembly of section .exceptions:

00000020 <alt_exception>:
  20:	deffed04 	addi	sp,sp,-76
  24:	dfc00015 	stw	ra,0(sp)
  28:	d8400215 	stw	at,8(sp)
  2c:	d8800315 	stw	r2,12(sp)
  30:	d8c00415 	stw	r3,16(sp)
  34:	d9000515 	stw	r4,20(sp)
  38:	d9400615 	stw	r5,24(sp)
  3c:	d9800715 	stw	r6,28(sp)
  40:	d9c00815 	stw	r7,32(sp)
  44:	000b307a 	rdctl	r5,estatus
  48:	da000915 	stw	r8,36(sp)
  4c:	da400a15 	stw	r9,40(sp)
  50:	da800b15 	stw	r10,44(sp)
  54:	dac00c15 	stw	r11,48(sp)
  58:	db000d15 	stw	r12,52(sp)
  5c:	db400e15 	stw	r13,56(sp)
  60:	db800f15 	stw	r14,60(sp)
  64:	dbc01015 	stw	r15,64(sp)
  68:	d9401115 	stw	r5,68(sp)
  6c:	ebffff04 	addi	r15,ea,-4
  70:	dbc01215 	stw	r15,72(sp)
  74:	0009313a 	rdctl	r4,ipending
  78:	2880004c 	andi	r2,r5,1
  7c:	10000326 	beq	r2,zero,8c <alt_exception+0x6c>
  80:	20000226 	beq	r4,zero,8c <alt_exception+0x6c>
  84:	00000fc0 	call	fc <alt_irq_handler>
  88:	00000706 	br	a8 <alt_exception+0x88>
  8c:	df401215 	stw	ea,72(sp)
  90:	e8bfff17 	ldw	r2,-4(ea)
  94:	e93fff04 	addi	r4,ea,-4
  98:	00001c40 	call	1c4 <alt_instruction_exception_entry>
  9c:	1000021e 	bne	r2,zero,a8 <alt_exception+0x88>
  a0:	ebffff04 	addi	r15,ea,-4
  a4:	dbc01215 	stw	r15,72(sp)
  a8:	d9401117 	ldw	r5,68(sp)
  ac:	df401217 	ldw	ea,72(sp)
  b0:	dfc00017 	ldw	ra,0(sp)
  b4:	2801707a 	wrctl	estatus,r5
  b8:	d8400217 	ldw	at,8(sp)
  bc:	d8800317 	ldw	r2,12(sp)
  c0:	d8c00417 	ldw	r3,16(sp)
  c4:	d9000517 	ldw	r4,20(sp)
  c8:	d9400617 	ldw	r5,24(sp)
  cc:	d9800717 	ldw	r6,28(sp)
  d0:	d9c00817 	ldw	r7,32(sp)
  d4:	da000917 	ldw	r8,36(sp)
  d8:	da400a17 	ldw	r9,40(sp)
  dc:	da800b17 	ldw	r10,44(sp)
  e0:	dac00c17 	ldw	r11,48(sp)
  e4:	db000d17 	ldw	r12,52(sp)
  e8:	db400e17 	ldw	r13,56(sp)
  ec:	db800f17 	ldw	r14,60(sp)
  f0:	dbc01017 	ldw	r15,64(sp)
  f4:	dec01304 	addi	sp,sp,76
  f8:	ef80083a 	eret

000000fc <alt_irq_handler>:
  fc:	defff904 	addi	sp,sp,-28
 100:	dfc00615 	stw	ra,24(sp)
 104:	df000515 	stw	fp,20(sp)
 108:	df000504 	addi	fp,sp,20
 10c:	0001883a 	nop
 110:	0005313a 	rdctl	r2,ipending
 114:	e0bffc15 	stw	r2,-16(fp)
 118:	e0bffc17 	ldw	r2,-16(fp)
 11c:	e0bfff15 	stw	r2,-4(fp)
 120:	e03ffd15 	stw	zero,-12(fp)
 124:	00800044 	movi	r2,1
 128:	e0bffe15 	stw	r2,-8(fp)
 12c:	e0ffff17 	ldw	r3,-4(fp)
 130:	e0bffe17 	ldw	r2,-8(fp)
 134:	1884703a 	and	r2,r3,r2
 138:	10001126 	beq	r2,zero,180 <alt_irq_handler+0x84>
 13c:	e0bffd17 	ldw	r2,-12(fp)
 140:	100690fa 	slli	r3,r2,3
 144:	00800034 	movhi	r2,0
 148:	1885883a 	add	r2,r3,r2
 14c:	10de7017 	ldw	r3,31168(r2)
 150:	e0bffd17 	ldw	r2,-12(fp)
 154:	100890fa 	slli	r4,r2,3
 158:	00800034 	movhi	r2,0
 15c:	2085883a 	add	r2,r4,r2
 160:	109e7117 	ldw	r2,31172(r2)
 164:	1009883a 	mov	r4,r2
 168:	183ee83a 	callr	r3
 16c:	0001883a 	nop
 170:	0005313a 	rdctl	r2,ipending
 174:	e0bffb15 	stw	r2,-20(fp)
 178:	e0bffb17 	ldw	r2,-20(fp)
 17c:	00000706 	br	19c <alt_irq_handler+0xa0>
 180:	e0bffe17 	ldw	r2,-8(fp)
 184:	1085883a 	add	r2,r2,r2
 188:	e0bffe15 	stw	r2,-8(fp)
 18c:	e0bffd17 	ldw	r2,-12(fp)
 190:	10800044 	addi	r2,r2,1
 194:	e0bffd15 	stw	r2,-12(fp)
 198:	003fe406 	br	12c <alt_irq_handler+0x30>
 19c:	e0bfff15 	stw	r2,-4(fp)
 1a0:	e0bfff17 	ldw	r2,-4(fp)
 1a4:	103fde1e 	bne	r2,zero,120 <alt_irq_handler+0x24>
 1a8:	0001883a 	nop
 1ac:	0001883a 	nop
 1b0:	e037883a 	mov	sp,fp
 1b4:	dfc00117 	ldw	ra,4(sp)
 1b8:	df000017 	ldw	fp,0(sp)
 1bc:	dec00204 	addi	sp,sp,8
 1c0:	f800283a 	ret

000001c4 <alt_instruction_exception_entry>:
 1c4:	defffb04 	addi	sp,sp,-20
 1c8:	dfc00415 	stw	ra,16(sp)
 1cc:	df000315 	stw	fp,12(sp)
 1d0:	df000304 	addi	fp,sp,12
 1d4:	e13ffd15 	stw	r4,-12(fp)
 1d8:	000531fa 	rdctl	r2,exception
 1dc:	e0bfff15 	stw	r2,-4(fp)
 1e0:	e0bfff17 	ldw	r2,-4(fp)
 1e4:	1004d0ba 	srli	r2,r2,2
 1e8:	108007cc 	andi	r2,r2,31
 1ec:	e0bfff15 	stw	r2,-4(fp)
 1f0:	0005333a 	rdctl	r2,badaddr
 1f4:	e0bffe15 	stw	r2,-8(fp)
 1f8:	d0a0de17 	ldw	r2,-31880(gp)
 1fc:	10000726 	beq	r2,zero,21c <alt_instruction_exception_entry+0x58>
 200:	d0a0de17 	ldw	r2,-31880(gp)
 204:	e0ffff17 	ldw	r3,-4(fp)
 208:	e1bffe17 	ldw	r6,-8(fp)
 20c:	e17ffd17 	ldw	r5,-12(fp)
 210:	1809883a 	mov	r4,r3
 214:	103ee83a 	callr	r2
 218:	00000206 	br	224 <alt_instruction_exception_entry+0x60>
 21c:	003da03a 	break	0
 220:	0005883a 	mov	r2,zero
 224:	e037883a 	mov	sp,fp
 228:	dfc00117 	ldw	ra,4(sp)
 22c:	df000017 	ldw	fp,0(sp)
 230:	dec00204 	addi	sp,sp,8
 234:	f800283a 	ret

Disassembly of section .text:

00000238 <_start>:
     238:	00820014 	movui	r2,2048
     23c:	10000033 	initd	0(r2)
     240:	10bff804 	addi	r2,r2,-32
     244:	00bffd16 	blt	zero,r2,23c <_start+0x4>
     248:	06c00074 	movhi	sp,1
     24c:	dee1a814 	ori	sp,sp,34464
     250:	06800034 	movhi	gp,0
     254:	d6b98d14 	ori	gp,gp,58932
     258:	00800034 	movhi	r2,0
     25c:	109a6314 	ori	r2,r2,27020
     260:	00c00034 	movhi	r3,0
     264:	18deb014 	ori	r3,r3,31424
     268:	10c00326 	beq	r2,r3,278 <_start+0x40>
     26c:	10000015 	stw	zero,0(r2)
     270:	10800104 	addi	r2,r2,4
     274:	10fffd36 	bltu	r2,r3,26c <_start+0x34>
     278:	00023700 	call	2370 <alt_load>
     27c:	00023f40 	call	23f4 <alt_main>

00000280 <alt_after_alt_main>:
     280:	003fff06 	br	280 <alt_after_alt_main>

00000284 <hdmi_i2c_write>:
     284:	defffb04 	addi	sp,sp,-20
     288:	dfc00415 	stw	ra,16(sp)
     28c:	df000315 	stw	fp,12(sp)
     290:	df000304 	addi	fp,sp,12
     294:	2005883a 	mov	r2,r4
     298:	2807883a 	mov	r3,r5
     29c:	e0bffe05 	stb	r2,-8(fp)
     2a0:	1805883a 	mov	r2,r3
     2a4:	e0bffd05 	stb	r2,-12(fp)
     2a8:	e0bffe03 	ldbu	r2,-8(fp)
     2ac:	e0bfff85 	stb	r2,-2(fp)
     2b0:	e0bffd03 	ldbu	r2,-12(fp)
     2b4:	e0bfffc5 	stb	r2,-1(fp)
     2b8:	d0a0d617 	ldw	r2,-31912(gp)
     2bc:	01400e44 	movi	r5,57
     2c0:	1009883a 	mov	r4,r2
     2c4:	00033740 	call	3374 <alt_avalon_i2c_master_target_set>
     2c8:	d0a0d617 	ldw	r2,-31912(gp)
     2cc:	e0ffff84 	addi	r3,fp,-2
     2d0:	000f883a 	mov	r7,zero
     2d4:	01800084 	movi	r6,2
     2d8:	180b883a 	mov	r5,r3
     2dc:	1009883a 	mov	r4,r2
     2e0:	00035740 	call	3574 <alt_avalon_i2c_master_tx>
     2e4:	0001883a 	nop
     2e8:	e037883a 	mov	sp,fp
     2ec:	dfc00117 	ldw	ra,4(sp)
     2f0:	df000017 	ldw	fp,0(sp)
     2f4:	dec00204 	addi	sp,sp,8
     2f8:	f800283a 	ret

000002fc <hdmi_init>:
     2fc:	defff904 	addi	sp,sp,-28
     300:	dfc00615 	stw	ra,24(sp)
     304:	df000515 	stw	fp,20(sp)
     308:	df000504 	addi	fp,sp,20
     30c:	0080fa04 	movi	r2,1000
     310:	e0bfff15 	stw	r2,-4(fp)
     314:	01000034 	movhi	r4,0
     318:	21171904 	addi	r4,r4,23652
     31c:	0001c280 	call	1c28 <puts>
     320:	00000c06 	br	354 <hdmi_init+0x58>
     324:	0100fa04 	movi	r4,1000
     328:	000261c0 	call	261c <usleep>
     32c:	e0bfff17 	ldw	r2,-4(fp)
     330:	10bfffc4 	addi	r2,r2,-1
     334:	e0bfff15 	stw	r2,-4(fp)
     338:	e0bfff17 	ldw	r2,-4(fp)
     33c:	1000051e 	bne	r2,zero,354 <hdmi_init+0x58>
     340:	01000034 	movhi	r4,0
     344:	21172204 	addi	r4,r4,23688
     348:	0001c280 	call	1c28 <puts>
     34c:	00bfffc4 	movi	r2,-1
     350:	00004c06 	br	484 <hdmi_init+0x188>
     354:	008000b4 	movhi	r2,2
     358:	10800437 	ldwio	r2,16(r2)
     35c:	103ff126 	beq	r2,zero,324 <hdmi_init+0x28>
     360:	01000034 	movhi	r4,0
     364:	21172e04 	addi	r4,r4,23736
     368:	0001c280 	call	1c28 <puts>
     36c:	01000034 	movhi	r4,0
     370:	21173c04 	addi	r4,r4,23792
     374:	0002b980 	call	2b98 <alt_avalon_i2c_open>
     378:	d0a0d615 	stw	r2,-31912(gp)
     37c:	d0a0d617 	ldw	r2,-31912(gp)
     380:	1000071e 	bne	r2,zero,3a0 <hdmi_init+0xa4>
     384:	01400034 	movhi	r5,0
     388:	29573c04 	addi	r5,r5,23792
     38c:	01000034 	movhi	r4,0
     390:	21174004 	addi	r4,r4,23808
     394:	0001b600 	call	1b60 <printf>
     398:	00bfff84 	movi	r2,-2
     39c:	00003906 	br	484 <hdmi_init+0x188>
     3a0:	d0a0d617 	ldw	r2,-31912(gp)
     3a4:	e0fffb04 	addi	r3,fp,-20
     3a8:	180b883a 	mov	r5,r3
     3ac:	1009883a 	mov	r4,r2
     3b0:	0002cbc0 	call	2cbc <alt_avalon_i2c_master_config_get>
     3b4:	d0a0d617 	ldw	r2,-31912(gp)
     3b8:	e0fffb04 	addi	r3,fp,-20
     3bc:	018000b4 	movhi	r6,2
     3c0:	31a1a804 	addi	r6,r6,-31072
     3c4:	180b883a 	mov	r5,r3
     3c8:	1009883a 	mov	r4,r2
     3cc:	0002ecc0 	call	2ecc <alt_avalon_i2c_master_config_speed_set>
     3d0:	d0a0d617 	ldw	r2,-31912(gp)
     3d4:	e0fffb04 	addi	r3,fp,-20
     3d8:	180b883a 	mov	r5,r3
     3dc:	1009883a 	mov	r4,r2
     3e0:	0002d6c0 	call	2d6c <alt_avalon_i2c_master_config_set>
     3e4:	01400404 	movi	r5,16
     3e8:	01001044 	movi	r4,65
     3ec:	00002840 	call	284 <hdmi_i2c_write>
     3f0:	000b883a 	mov	r5,zero
     3f4:	01000584 	movi	r4,22
     3f8:	00002840 	call	284 <hdmi_i2c_write>
     3fc:	01400184 	movi	r5,6
     400:	01002bc4 	movi	r4,175
     404:	00002840 	call	284 <hdmi_i2c_write>
     408:	01400604 	movi	r5,24
     40c:	01000f04 	movi	r4,60
     410:	00002840 	call	284 <hdmi_i2c_write>
     414:	014000c4 	movi	r5,3
     418:	01002604 	movi	r4,152
     41c:	00002840 	call	284 <hdmi_i2c_write>
     420:	01403804 	movi	r5,224
     424:	01002684 	movi	r4,154
     428:	00002840 	call	284 <hdmi_i2c_write>
     42c:	01400c04 	movi	r5,48
     430:	01002704 	movi	r4,156
     434:	00002840 	call	284 <hdmi_i2c_write>
     438:	01401844 	movi	r5,97
     43c:	01002744 	movi	r4,157
     440:	00002840 	call	284 <hdmi_i2c_write>
     444:	01402904 	movi	r5,164
     448:	01002884 	movi	r4,162
     44c:	00002840 	call	284 <hdmi_i2c_write>
     450:	01402904 	movi	r5,164
     454:	010028c4 	movi	r4,163
     458:	00002840 	call	284 <hdmi_i2c_write>
     45c:	01403404 	movi	r5,208
     460:	01003804 	movi	r4,224
     464:	00002840 	call	284 <hdmi_i2c_write>
     468:	000b883a 	mov	r5,zero
     46c:	01003e44 	movi	r4,249
     470:	00002840 	call	284 <hdmi_i2c_write>
     474:	01000034 	movhi	r4,0
     478:	21174a04 	addi	r4,r4,23848
     47c:	0001c280 	call	1c28 <puts>
     480:	0005883a 	mov	r2,zero
     484:	e037883a 	mov	sp,fp
     488:	dfc00117 	ldw	ra,4(sp)
     48c:	df000017 	ldw	fp,0(sp)
     490:	dec00204 	addi	sp,sp,8
     494:	f800283a 	ret

00000498 <get_char_polled>:
     498:	defffe04 	addi	sp,sp,-8
     49c:	df000115 	stw	fp,4(sp)
     4a0:	df000104 	addi	fp,sp,4
     4a4:	008000b4 	movhi	r2,2
     4a8:	10800037 	ldwio	r2,0(r2)
     4ac:	e0bfff15 	stw	r2,-4(fp)
     4b0:	e0bfff17 	ldw	r2,-4(fp)
     4b4:	10a0000c 	andi	r2,r2,32768
     4b8:	103ffa26 	beq	r2,zero,4a4 <get_char_polled+0xc>
     4bc:	e0bfff17 	ldw	r2,-4(fp)
     4c0:	e037883a 	mov	sp,fp
     4c4:	df000017 	ldw	fp,0(sp)
     4c8:	dec00104 	addi	sp,sp,4
     4cc:	f800283a 	ret

000004d0 <get_char_async>:
     4d0:	defffe04 	addi	sp,sp,-8
     4d4:	df000115 	stw	fp,4(sp)
     4d8:	df000104 	addi	fp,sp,4
     4dc:	008000b4 	movhi	r2,2
     4e0:	10800037 	ldwio	r2,0(r2)
     4e4:	e0bfff15 	stw	r2,-4(fp)
     4e8:	e0bfff17 	ldw	r2,-4(fp)
     4ec:	10a0000c 	andi	r2,r2,32768
     4f0:	10000226 	beq	r2,zero,4fc <get_char_async+0x2c>
     4f4:	e0bfff17 	ldw	r2,-4(fp)
     4f8:	00000106 	br	500 <get_char_async+0x30>
     4fc:	0005883a 	mov	r2,zero
     500:	e037883a 	mov	sp,fp
     504:	df000017 	ldw	fp,0(sp)
     508:	dec00104 	addi	sp,sp,4
     50c:	f800283a 	ret

00000510 <get_total_cycles>:
     510:	defff504 	addi	sp,sp,-44
     514:	dfc00a15 	stw	ra,40(sp)
     518:	df000915 	stw	fp,36(sp)
     51c:	dc400815 	stw	r17,32(sp)
     520:	dc000715 	stw	r16,28(sp)
     524:	df000904 	addi	fp,sp,36
     528:	01000034 	movhi	r4,0
     52c:	211a6917 	ldw	r4,27044(r4)
     530:	e13ffd15 	stw	r4,-12(fp)
     534:	000b883a 	mov	r5,zero
     538:	010000b4 	movhi	r4,2
     53c:	21400c35 	stwio	r5,48(r4)
     540:	010000b4 	movhi	r4,2
     544:	21000c37 	ldwio	r4,48(r4)
     548:	e13ffc15 	stw	r4,-16(fp)
     54c:	010000b4 	movhi	r4,2
     550:	21000d37 	ldwio	r4,52(r4)
     554:	e13ffb15 	stw	r4,-20(fp)
     558:	e13ffb17 	ldw	r4,-20(fp)
     55c:	2008943a 	slli	r4,r4,16
     560:	e17ffc17 	ldw	r5,-16(fp)
     564:	2908b03a 	or	r4,r5,r4
     568:	e13ffa15 	stw	r4,-24(fp)
     56c:	01000034 	movhi	r4,0
     570:	211a6917 	ldw	r4,27044(r4)
     574:	e13ff915 	stw	r4,-28(fp)
     578:	e17ffd17 	ldw	r5,-12(fp)
     57c:	e13ff917 	ldw	r4,-28(fp)
     580:	293fe91e 	bne	r5,r4,528 <get_total_cycles+0x18>
     584:	e13ffd17 	ldw	r4,-12(fp)
     588:	2005883a 	mov	r2,r4
     58c:	0007883a 	mov	r3,zero
     590:	01b0d414 	movui	r6,50000
     594:	000f883a 	mov	r7,zero
     598:	1009883a 	mov	r4,r2
     59c:	180b883a 	mov	r5,r3
     5a0:	00013800 	call	1380 <__muldi3>
     5a4:	1009883a 	mov	r4,r2
     5a8:	180b883a 	mov	r5,r3
     5ac:	e13ff715 	stw	r4,-36(fp)
     5b0:	e17ff815 	stw	r5,-32(fp)
     5b4:	00f0d3d4 	movui	r3,49999
     5b8:	e0bffa17 	ldw	r2,-24(fp)
     5bc:	1885c83a 	sub	r2,r3,r2
     5c0:	1021883a 	mov	r16,r2
     5c4:	0023883a 	mov	r17,zero
     5c8:	e13ff717 	ldw	r4,-36(fp)
     5cc:	e17ff817 	ldw	r5,-32(fp)
     5d0:	2405883a 	add	r2,r4,r16
     5d4:	110d803a 	cmpltu	r6,r2,r4
     5d8:	2c47883a 	add	r3,r5,r17
     5dc:	30c9883a 	add	r4,r6,r3
     5e0:	2007883a 	mov	r3,r4
     5e4:	e0bff715 	stw	r2,-36(fp)
     5e8:	e0fff815 	stw	r3,-32(fp)
     5ec:	e0bff717 	ldw	r2,-36(fp)
     5f0:	e0fff817 	ldw	r3,-32(fp)
     5f4:	1009883a 	mov	r4,r2
     5f8:	180b883a 	mov	r5,r3
     5fc:	2005883a 	mov	r2,r4
     600:	2807883a 	mov	r3,r5
     604:	e6fffe04 	addi	sp,fp,-8
     608:	dfc00317 	ldw	ra,12(sp)
     60c:	df000217 	ldw	fp,8(sp)
     610:	dc400117 	ldw	r17,4(sp)
     614:	dc000017 	ldw	r16,0(sp)
     618:	dec00404 	addi	sp,sp,16
     61c:	f800283a 	ret

00000620 <run_ocm_to_ddr_test>:
     620:	deffe104 	addi	sp,sp,-124
     624:	dfc01e15 	stw	ra,120(sp)
     628:	df001d15 	stw	fp,116(sp)
     62c:	dcc01c15 	stw	r19,112(sp)
     630:	dc801b15 	stw	r18,108(sp)
     634:	dc401a15 	stw	r17,104(sp)
     638:	dc001915 	stw	r16,100(sp)
     63c:	df001d04 	addi	fp,sp,116
     640:	e13fe315 	stw	r4,-116(fp)
     644:	01000034 	movhi	r4,0
     648:	21175604 	addi	r4,r4,23896
     64c:	0001c280 	call	1c28 <puts>
     650:	00800034 	movhi	r2,0
     654:	109a7004 	addi	r2,r2,27072
     658:	e0bff315 	stw	r2,-52(fp)
     65c:	00a20034 	movhi	r2,34816
     660:	e0bff215 	stw	r2,-56(fp)
     664:	e0fff317 	ldw	r3,-52(fp)
     668:	00a00034 	movhi	r2,32768
     66c:	10bfffc4 	addi	r2,r2,-1
     670:	1884703a 	and	r2,r3,r2
     674:	e0bff115 	stw	r2,-60(fp)
     678:	e03ffb15 	stw	zero,-20(fp)
     67c:	00001106 	br	6c4 <run_ocm_to_ddr_test+0xa4>
     680:	e0fffb17 	ldw	r3,-20(fp)
     684:	00844474 	movhi	r2,4369
     688:	1889883a 	add	r4,r3,r2
     68c:	e0bffb17 	ldw	r2,-20(fp)
     690:	100490ba 	slli	r2,r2,2
     694:	e0fff317 	ldw	r3,-52(fp)
     698:	1885883a 	add	r2,r3,r2
     69c:	2007883a 	mov	r3,r4
     6a0:	10c00015 	stw	r3,0(r2)
     6a4:	e0bffb17 	ldw	r2,-20(fp)
     6a8:	100490ba 	slli	r2,r2,2
     6ac:	e0fff217 	ldw	r3,-56(fp)
     6b0:	1885883a 	add	r2,r3,r2
     6b4:	10000015 	stw	zero,0(r2)
     6b8:	e0bffb17 	ldw	r2,-20(fp)
     6bc:	10800044 	addi	r2,r2,1
     6c0:	e0bffb15 	stw	r2,-20(fp)
     6c4:	e0bffb17 	ldw	r2,-20(fp)
     6c8:	10810010 	cmplti	r2,r2,1024
     6cc:	103fec1e 	bne	r2,zero,680 <run_ocm_to_ddr_test+0x60>
     6d0:	00022bc0 	call	22bc <alt_dcache_flush_all>
     6d4:	01000034 	movhi	r4,0
     6d8:	21176304 	addi	r4,r4,23948
     6dc:	0001b600 	call	1b60 <printf>
     6e0:	00005100 	call	510 <get_total_cycles>
     6e4:	e0bfef15 	stw	r2,-68(fp)
     6e8:	e0fff015 	stw	r3,-64(fp)
     6ec:	e03ffa15 	stw	zero,-24(fp)
     6f0:	00001506 	br	748 <run_ocm_to_ddr_test+0x128>
     6f4:	e03ff915 	stw	zero,-28(fp)
     6f8:	00000d06 	br	730 <run_ocm_to_ddr_test+0x110>
     6fc:	e0bff917 	ldw	r2,-28(fp)
     700:	100490ba 	slli	r2,r2,2
     704:	e0fff317 	ldw	r3,-52(fp)
     708:	1887883a 	add	r3,r3,r2
     70c:	e0bff917 	ldw	r2,-28(fp)
     710:	100490ba 	slli	r2,r2,2
     714:	e13ff217 	ldw	r4,-56(fp)
     718:	2085883a 	add	r2,r4,r2
     71c:	18c00017 	ldw	r3,0(r3)
     720:	10c00015 	stw	r3,0(r2)
     724:	e0bff917 	ldw	r2,-28(fp)
     728:	10800044 	addi	r2,r2,1
     72c:	e0bff915 	stw	r2,-28(fp)
     730:	e0bff917 	ldw	r2,-28(fp)
     734:	10810010 	cmplti	r2,r2,1024
     738:	103ff01e 	bne	r2,zero,6fc <run_ocm_to_ddr_test+0xdc>
     73c:	e0bffa17 	ldw	r2,-24(fp)
     740:	10800044 	addi	r2,r2,1
     744:	e0bffa15 	stw	r2,-24(fp)
     748:	e0bffa17 	ldw	r2,-24(fp)
     74c:	10801910 	cmplti	r2,r2,100
     750:	103fe81e 	bne	r2,zero,6f4 <run_ocm_to_ddr_test+0xd4>
     754:	00005100 	call	510 <get_total_cycles>
     758:	e0bfed15 	stw	r2,-76(fp)
     75c:	e0ffee15 	stw	r3,-72(fp)
     760:	e0ffed17 	ldw	r3,-76(fp)
     764:	e0bfef17 	ldw	r2,-68(fp)
     768:	1885c83a 	sub	r2,r3,r2
     76c:	e0bff815 	stw	r2,-32(fp)
     770:	e0bff817 	ldw	r2,-32(fp)
     774:	1000021e 	bne	r2,zero,780 <run_ocm_to_ddr_test+0x160>
     778:	00800044 	movi	r2,1
     77c:	e0bff815 	stw	r2,-32(fp)
     780:	e0bff817 	ldw	r2,-32(fp)
     784:	1025883a 	mov	r18,r2
     788:	0027883a 	mov	r19,zero
     78c:	900d883a 	mov	r6,r18
     790:	980f883a 	mov	r7,r19
     794:	0102e934 	movhi	r4,2980
     798:	210edd04 	addi	r4,r4,15220
     79c:	000b883a 	mov	r5,zero
     7a0:	00013e00 	call	13e0 <__udivdi3>
     7a4:	1009883a 	mov	r4,r2
     7a8:	180b883a 	mov	r5,r3
     7ac:	2005883a 	mov	r2,r4
     7b0:	2807883a 	mov	r3,r5
     7b4:	e0bfec15 	stw	r2,-80(fp)
     7b8:	e0bfec17 	ldw	r2,-80(fp)
     7bc:	01400284 	movi	r5,10
     7c0:	1009883a 	mov	r4,r2
     7c4:	0001a640 	call	1a64 <__udivsi3>
     7c8:	1025883a 	mov	r18,r2
     7cc:	e0bfec17 	ldw	r2,-80(fp)
     7d0:	01400284 	movi	r5,10
     7d4:	1009883a 	mov	r4,r2
     7d8:	0001ac80 	call	1ac8 <__umodsi3>
     7dc:	100f883a 	mov	r7,r2
     7e0:	900d883a 	mov	r6,r18
     7e4:	e17ff817 	ldw	r5,-32(fp)
     7e8:	01000034 	movhi	r4,0
     7ec:	21176c04 	addi	r4,r4,23984
     7f0:	0001b600 	call	1b60 <printf>
     7f4:	00022bc0 	call	22bc <alt_dcache_flush_all>
     7f8:	01000034 	movhi	r4,0
     7fc:	21177404 	addi	r4,r4,24016
     800:	0001b600 	call	1b60 <printf>
     804:	00005100 	call	510 <get_total_cycles>
     808:	e0bfea15 	stw	r2,-88(fp)
     80c:	e0ffeb15 	stw	r3,-84(fp)
     810:	00880034 	movhi	r2,8192
     814:	e0bfe915 	stw	r2,-92(fp)
     818:	e03ff715 	stw	zero,-36(fp)
     81c:	00002a06 	br	8c8 <run_ocm_to_ddr_test+0x2a8>
     820:	e0bfe317 	ldw	r2,-116(fp)
     824:	10800204 	addi	r2,r2,8
     828:	1007883a 	mov	r3,r2
     82c:	e0bff117 	ldw	r2,-60(fp)
     830:	18800035 	stwio	r2,0(r3)
     834:	e0bfe317 	ldw	r2,-116(fp)
     838:	10800304 	addi	r2,r2,12
     83c:	1007883a 	mov	r3,r2
     840:	e0bfe917 	ldw	r2,-92(fp)
     844:	18800035 	stwio	r2,0(r3)
     848:	e0bfe317 	ldw	r2,-116(fp)
     84c:	10800404 	addi	r2,r2,16
     850:	1007883a 	mov	r3,r2
     854:	00840004 	movi	r2,4096
     858:	18800035 	stwio	r2,0(r3)
     85c:	e0bfe317 	ldw	r2,-116(fp)
     860:	10800504 	addi	r2,r2,20
     864:	1007883a 	mov	r3,r2
     868:	00800804 	movi	r2,32
     86c:	18800035 	stwio	r2,0(r3)
     870:	e0bfe317 	ldw	r2,-116(fp)
     874:	10800604 	addi	r2,r2,24
     878:	1007883a 	mov	r3,r2
     87c:	00800804 	movi	r2,32
     880:	18800035 	stwio	r2,0(r3)
     884:	e0bfe317 	ldw	r2,-116(fp)
     888:	00c00044 	movi	r3,1
     88c:	10c00035 	stwio	r3,0(r2)
     890:	0001883a 	nop
     894:	e0bfe317 	ldw	r2,-116(fp)
     898:	10800104 	addi	r2,r2,4
     89c:	10800037 	ldwio	r2,0(r2)
     8a0:	1080004c 	andi	r2,r2,1
     8a4:	103ffb26 	beq	r2,zero,894 <run_ocm_to_ddr_test+0x274>
     8a8:	e0bfe317 	ldw	r2,-116(fp)
     8ac:	10800104 	addi	r2,r2,4
     8b0:	1007883a 	mov	r3,r2
     8b4:	00800044 	movi	r2,1
     8b8:	18800035 	stwio	r2,0(r3)
     8bc:	e0bff717 	ldw	r2,-36(fp)
     8c0:	10800044 	addi	r2,r2,1
     8c4:	e0bff715 	stw	r2,-36(fp)
     8c8:	e0bff717 	ldw	r2,-36(fp)
     8cc:	10801910 	cmplti	r2,r2,100
     8d0:	103fd31e 	bne	r2,zero,820 <run_ocm_to_ddr_test+0x200>
     8d4:	00005100 	call	510 <get_total_cycles>
     8d8:	e0bfe715 	stw	r2,-100(fp)
     8dc:	e0ffe815 	stw	r3,-96(fp)
     8e0:	e0ffe717 	ldw	r3,-100(fp)
     8e4:	e0bfea17 	ldw	r2,-88(fp)
     8e8:	1885c83a 	sub	r2,r3,r2
     8ec:	e0bff615 	stw	r2,-40(fp)
     8f0:	e0bff617 	ldw	r2,-40(fp)
     8f4:	1000021e 	bne	r2,zero,900 <run_ocm_to_ddr_test+0x2e0>
     8f8:	00800044 	movi	r2,1
     8fc:	e0bff615 	stw	r2,-40(fp)
     900:	e0bff617 	ldw	r2,-40(fp)
     904:	1021883a 	mov	r16,r2
     908:	0023883a 	mov	r17,zero
     90c:	800d883a 	mov	r6,r16
     910:	880f883a 	mov	r7,r17
     914:	0102e934 	movhi	r4,2980
     918:	210edd04 	addi	r4,r4,15220
     91c:	000b883a 	mov	r5,zero
     920:	00013e00 	call	13e0 <__udivdi3>
     924:	1009883a 	mov	r4,r2
     928:	180b883a 	mov	r5,r3
     92c:	2005883a 	mov	r2,r4
     930:	2807883a 	mov	r3,r5
     934:	e0bfe615 	stw	r2,-104(fp)
     938:	e0bfe617 	ldw	r2,-104(fp)
     93c:	01400284 	movi	r5,10
     940:	1009883a 	mov	r4,r2
     944:	0001a640 	call	1a64 <__udivsi3>
     948:	1021883a 	mov	r16,r2
     94c:	e0bfe617 	ldw	r2,-104(fp)
     950:	01400284 	movi	r5,10
     954:	1009883a 	mov	r4,r2
     958:	0001ac80 	call	1ac8 <__umodsi3>
     95c:	100f883a 	mov	r7,r2
     960:	800d883a 	mov	r6,r16
     964:	e17ff617 	ldw	r5,-40(fp)
     968:	01000034 	movhi	r4,0
     96c:	21176c04 	addi	r4,r4,23984
     970:	0001b600 	call	1b60 <printf>
     974:	e17ff617 	ldw	r5,-40(fp)
     978:	e13ff817 	ldw	r4,-32(fp)
     97c:	0001a640 	call	1a64 <__udivsi3>
     980:	100b883a 	mov	r5,r2
     984:	01000034 	movhi	r4,0
     988:	21177c04 	addi	r4,r4,24048
     98c:	0001b600 	call	1b60 <printf>
     990:	00022bc0 	call	22bc <alt_dcache_flush_all>
     994:	e03ff515 	stw	zero,-44(fp)
     998:	e03ff415 	stw	zero,-48(fp)
     99c:	00001c06 	br	a10 <run_ocm_to_ddr_test+0x3f0>
     9a0:	e0bff417 	ldw	r2,-48(fp)
     9a4:	100490ba 	slli	r2,r2,2
     9a8:	e0fff217 	ldw	r3,-56(fp)
     9ac:	1885883a 	add	r2,r3,r2
     9b0:	10800017 	ldw	r2,0(r2)
     9b4:	e0bfe515 	stw	r2,-108(fp)
     9b8:	e0fff417 	ldw	r3,-48(fp)
     9bc:	00844474 	movhi	r2,4369
     9c0:	1885883a 	add	r2,r3,r2
     9c4:	e0bfe415 	stw	r2,-112(fp)
     9c8:	e0ffe517 	ldw	r3,-108(fp)
     9cc:	e0bfe417 	ldw	r2,-112(fp)
     9d0:	18800c26 	beq	r3,r2,a04 <run_ocm_to_ddr_test+0x3e4>
     9d4:	e0bff517 	ldw	r2,-44(fp)
     9d8:	10800148 	cmpgei	r2,r2,5
     9dc:	1000061e 	bne	r2,zero,9f8 <run_ocm_to_ddr_test+0x3d8>
     9e0:	e1ffe517 	ldw	r7,-108(fp)
     9e4:	e1bfe417 	ldw	r6,-112(fp)
     9e8:	e17ff417 	ldw	r5,-48(fp)
     9ec:	01000034 	movhi	r4,0
     9f0:	21178004 	addi	r4,r4,24064
     9f4:	0001b600 	call	1b60 <printf>
     9f8:	e0bff517 	ldw	r2,-44(fp)
     9fc:	10800044 	addi	r2,r2,1
     a00:	e0bff515 	stw	r2,-44(fp)
     a04:	e0bff417 	ldw	r2,-48(fp)
     a08:	10800044 	addi	r2,r2,1
     a0c:	e0bff415 	stw	r2,-48(fp)
     a10:	e0bff417 	ldw	r2,-48(fp)
     a14:	10810010 	cmplti	r2,r2,1024
     a18:	103fe11e 	bne	r2,zero,9a0 <run_ocm_to_ddr_test+0x380>
     a1c:	e0bff517 	ldw	r2,-44(fp)
     a20:	1000041e 	bne	r2,zero,a34 <run_ocm_to_ddr_test+0x414>
     a24:	01000034 	movhi	r4,0
     a28:	21178a04 	addi	r4,r4,24104
     a2c:	0001c280 	call	1c28 <puts>
     a30:	00000406 	br	a44 <run_ocm_to_ddr_test+0x424>
     a34:	e17ff517 	ldw	r5,-44(fp)
     a38:	01000034 	movhi	r4,0
     a3c:	21179204 	addi	r4,r4,24136
     a40:	0001b600 	call	1b60 <printf>
     a44:	0001883a 	nop
     a48:	e6fffc04 	addi	sp,fp,-16
     a4c:	dfc00517 	ldw	ra,20(sp)
     a50:	df000417 	ldw	fp,16(sp)
     a54:	dcc00317 	ldw	r19,12(sp)
     a58:	dc800217 	ldw	r18,8(sp)
     a5c:	dc400117 	ldw	r17,4(sp)
     a60:	dc000017 	ldw	r16,0(sp)
     a64:	dec00604 	addi	sp,sp,24
     a68:	f800283a 	ret

00000a6c <run_ddr_to_ddr_test>:
     a6c:	deffda04 	addi	sp,sp,-152
     a70:	dfc02515 	stw	ra,148(sp)
     a74:	df002415 	stw	fp,144(sp)
     a78:	ddc02315 	stw	r23,140(sp)
     a7c:	dd802215 	stw	r22,136(sp)
     a80:	dd402115 	stw	r21,132(sp)
     a84:	dd002015 	stw	r20,128(sp)
     a88:	dcc01f15 	stw	r19,124(sp)
     a8c:	dc801e15 	stw	r18,120(sp)
     a90:	dc401d15 	stw	r17,116(sp)
     a94:	dc001c15 	stw	r16,112(sp)
     a98:	df002404 	addi	fp,sp,144
     a9c:	e13fdc15 	stw	r4,-144(fp)
     aa0:	01000034 	movhi	r4,0
     aa4:	21179b04 	addi	r4,r4,24172
     aa8:	0001c280 	call	1c28 <puts>
     aac:	01000034 	movhi	r4,0
     ab0:	2117a804 	addi	r4,r4,24224
     ab4:	0001c280 	call	1c28 <puts>
     ab8:	00804034 	movhi	r2,256
     abc:	e0bff115 	stw	r2,-60(fp)
     ac0:	00808034 	movhi	r2,512
     ac4:	e0bff015 	stw	r2,-64(fp)
     ac8:	0080c034 	movhi	r2,768
     acc:	e0bfef15 	stw	r2,-68(fp)
     ad0:	e0fff117 	ldw	r3,-60(fp)
     ad4:	00a20034 	movhi	r2,34816
     ad8:	1885883a 	add	r2,r3,r2
     adc:	e0bfee15 	stw	r2,-72(fp)
     ae0:	e0fff017 	ldw	r3,-64(fp)
     ae4:	00a20034 	movhi	r2,34816
     ae8:	1885883a 	add	r2,r3,r2
     aec:	e0bfed15 	stw	r2,-76(fp)
     af0:	e0ffef17 	ldw	r3,-68(fp)
     af4:	00a20034 	movhi	r2,34816
     af8:	1885883a 	add	r2,r3,r2
     afc:	e0bfec15 	stw	r2,-80(fp)
     b00:	01000034 	movhi	r4,0
     b04:	2117ad04 	addi	r4,r4,24244
     b08:	0001b600 	call	1b60 <printf>
     b0c:	e03ff715 	stw	zero,-36(fp)
     b10:	00001506 	br	b68 <run_ddr_to_ddr_test+0xfc>
     b14:	e0bff717 	ldw	r2,-36(fp)
     b18:	1100ffc4 	addi	r4,r2,1023
     b1c:	e0bff717 	ldw	r2,-36(fp)
     b20:	100490ba 	slli	r2,r2,2
     b24:	e0ffee17 	ldw	r3,-72(fp)
     b28:	1885883a 	add	r2,r3,r2
     b2c:	2007883a 	mov	r3,r4
     b30:	10c00015 	stw	r3,0(r2)
     b34:	e0bff717 	ldw	r2,-36(fp)
     b38:	100490ba 	slli	r2,r2,2
     b3c:	e0ffed17 	ldw	r3,-76(fp)
     b40:	1885883a 	add	r2,r3,r2
     b44:	10000015 	stw	zero,0(r2)
     b48:	e0bff717 	ldw	r2,-36(fp)
     b4c:	100490ba 	slli	r2,r2,2
     b50:	e0ffec17 	ldw	r3,-80(fp)
     b54:	1885883a 	add	r2,r3,r2
     b58:	10000015 	stw	zero,0(r2)
     b5c:	e0bff717 	ldw	r2,-36(fp)
     b60:	10800044 	addi	r2,r2,1
     b64:	e0bff715 	stw	r2,-36(fp)
     b68:	e0fff717 	ldw	r3,-36(fp)
     b6c:	00800134 	movhi	r2,4
     b70:	18bfe816 	blt	r3,r2,b14 <run_ddr_to_ddr_test+0xa8>
     b74:	00022bc0 	call	22bc <alt_dcache_flush_all>
     b78:	01000034 	movhi	r4,0
     b7c:	2117b404 	addi	r4,r4,24272
     b80:	0001c280 	call	1c28 <puts>
     b84:	0080c804 	movi	r2,800
     b88:	e0bfeb15 	stw	r2,-84(fp)
     b8c:	01000034 	movhi	r4,0
     b90:	2117b604 	addi	r4,r4,24280
     b94:	0001b600 	call	1b60 <printf>
     b98:	00005100 	call	510 <get_total_cycles>
     b9c:	e0bfe915 	stw	r2,-92(fp)
     ba0:	e0ffea15 	stw	r3,-88(fp)
     ba4:	e03ff615 	stw	zero,-40(fp)
     ba8:	00002406 	br	c3c <run_ddr_to_ddr_test+0x1d0>
     bac:	e0bff617 	ldw	r2,-40(fp)
     bb0:	100490ba 	slli	r2,r2,2
     bb4:	e0ffee17 	ldw	r3,-72(fp)
     bb8:	1885883a 	add	r2,r3,r2
     bbc:	10800017 	ldw	r2,0(r2)
     bc0:	1029883a 	mov	r20,r2
     bc4:	002b883a 	mov	r21,zero
     bc8:	e0bfeb17 	ldw	r2,-84(fp)
     bcc:	102d883a 	mov	r22,r2
     bd0:	002f883a 	mov	r23,zero
     bd4:	b00d883a 	mov	r6,r22
     bd8:	b80f883a 	mov	r7,r23
     bdc:	a009883a 	mov	r4,r20
     be0:	a80b883a 	mov	r5,r21
     be4:	00013800 	call	1380 <__muldi3>
     be8:	1009883a 	mov	r4,r2
     bec:	180b883a 	mov	r5,r3
     bf0:	2005883a 	mov	r2,r4
     bf4:	2807883a 	mov	r3,r5
     bf8:	01806404 	movi	r6,400
     bfc:	000f883a 	mov	r7,zero
     c00:	1009883a 	mov	r4,r2
     c04:	180b883a 	mov	r5,r3
     c08:	00013e00 	call	13e0 <__udivdi3>
     c0c:	1009883a 	mov	r4,r2
     c10:	180b883a 	mov	r5,r3
     c14:	2005883a 	mov	r2,r4
     c18:	2807883a 	mov	r3,r5
     c1c:	e13ff617 	ldw	r4,-40(fp)
     c20:	200890ba 	slli	r4,r4,2
     c24:	e17fed17 	ldw	r5,-76(fp)
     c28:	2909883a 	add	r4,r5,r4
     c2c:	20800015 	stw	r2,0(r4)
     c30:	e0bff617 	ldw	r2,-40(fp)
     c34:	10800044 	addi	r2,r2,1
     c38:	e0bff615 	stw	r2,-40(fp)
     c3c:	e0fff617 	ldw	r3,-40(fp)
     c40:	00800134 	movhi	r2,4
     c44:	18bfd916 	blt	r3,r2,bac <run_ddr_to_ddr_test+0x140>
     c48:	00005100 	call	510 <get_total_cycles>
     c4c:	e0bfe715 	stw	r2,-100(fp)
     c50:	e0ffe815 	stw	r3,-96(fp)
     c54:	e0ffe717 	ldw	r3,-100(fp)
     c58:	e0bfe917 	ldw	r2,-92(fp)
     c5c:	1885c83a 	sub	r2,r3,r2
     c60:	e0bff515 	stw	r2,-44(fp)
     c64:	e0bff517 	ldw	r2,-44(fp)
     c68:	1000021e 	bne	r2,zero,c74 <run_ddr_to_ddr_test+0x208>
     c6c:	00800044 	movi	r2,1
     c70:	e0bff515 	stw	r2,-44(fp)
     c74:	e0bff517 	ldw	r2,-44(fp)
     c78:	1025883a 	mov	r18,r2
     c7c:	0027883a 	mov	r19,zero
     c80:	900d883a 	mov	r6,r18
     c84:	980f883a 	mov	r7,r19
     c88:	01077374 	movhi	r4,7629
     c8c:	21194004 	addi	r4,r4,25856
     c90:	000b883a 	mov	r5,zero
     c94:	00013e00 	call	13e0 <__udivdi3>
     c98:	1009883a 	mov	r4,r2
     c9c:	180b883a 	mov	r5,r3
     ca0:	2005883a 	mov	r2,r4
     ca4:	2807883a 	mov	r3,r5
     ca8:	e0bfe615 	stw	r2,-104(fp)
     cac:	e0bfe617 	ldw	r2,-104(fp)
     cb0:	01400284 	movi	r5,10
     cb4:	1009883a 	mov	r4,r2
     cb8:	0001a640 	call	1a64 <__udivsi3>
     cbc:	1025883a 	mov	r18,r2
     cc0:	e0bfe617 	ldw	r2,-104(fp)
     cc4:	01400284 	movi	r5,10
     cc8:	1009883a 	mov	r4,r2
     ccc:	0001ac80 	call	1ac8 <__umodsi3>
     cd0:	100f883a 	mov	r7,r2
     cd4:	900d883a 	mov	r6,r18
     cd8:	e17ff517 	ldw	r5,-44(fp)
     cdc:	01000034 	movhi	r4,0
     ce0:	21176c04 	addi	r4,r4,23984
     ce4:	0001b600 	call	1b60 <printf>
     ce8:	00022bc0 	call	22bc <alt_dcache_flush_all>
     cec:	e0bfdc17 	ldw	r2,-144(fp)
     cf0:	10800504 	addi	r2,r2,20
     cf4:	1007883a 	mov	r3,r2
     cf8:	00804004 	movi	r2,256
     cfc:	18800035 	stwio	r2,0(r3)
     d00:	e0bfdc17 	ldw	r2,-144(fp)
     d04:	10800604 	addi	r2,r2,24
     d08:	1007883a 	mov	r3,r2
     d0c:	00804004 	movi	r2,256
     d10:	18800035 	stwio	r2,0(r3)
     d14:	e0bfdc17 	ldw	r2,-144(fp)
     d18:	10800704 	addi	r2,r2,28
     d1c:	1007883a 	mov	r3,r2
     d20:	e0bfeb17 	ldw	r2,-84(fp)
     d24:	18800035 	stwio	r2,0(r3)
     d28:	01000034 	movhi	r4,0
     d2c:	2117bd04 	addi	r4,r4,24308
     d30:	0001b600 	call	1b60 <printf>
     d34:	00005100 	call	510 <get_total_cycles>
     d38:	e0bfe415 	stw	r2,-112(fp)
     d3c:	e0ffe515 	stw	r3,-108(fp)
     d40:	00880034 	movhi	r2,8192
     d44:	e0bfe315 	stw	r2,-116(fp)
     d48:	e0bfdc17 	ldw	r2,-144(fp)
     d4c:	10800204 	addi	r2,r2,8
     d50:	1009883a 	mov	r4,r2
     d54:	e0ffe317 	ldw	r3,-116(fp)
     d58:	e0bff117 	ldw	r2,-60(fp)
     d5c:	1885883a 	add	r2,r3,r2
     d60:	20800035 	stwio	r2,0(r4)
     d64:	e0bfdc17 	ldw	r2,-144(fp)
     d68:	10800304 	addi	r2,r2,12
     d6c:	1009883a 	mov	r4,r2
     d70:	e0ffe317 	ldw	r3,-116(fp)
     d74:	e0bfef17 	ldw	r2,-68(fp)
     d78:	1885883a 	add	r2,r3,r2
     d7c:	20800035 	stwio	r2,0(r4)
     d80:	e0bfdc17 	ldw	r2,-144(fp)
     d84:	10800404 	addi	r2,r2,16
     d88:	1007883a 	mov	r3,r2
     d8c:	00800434 	movhi	r2,16
     d90:	18800035 	stwio	r2,0(r3)
     d94:	e0bfdc17 	ldw	r2,-144(fp)
     d98:	00c00044 	movi	r3,1
     d9c:	10c00035 	stwio	r3,0(r2)
     da0:	0001883a 	nop
     da4:	e0bfdc17 	ldw	r2,-144(fp)
     da8:	10800104 	addi	r2,r2,4
     dac:	10800037 	ldwio	r2,0(r2)
     db0:	1080004c 	andi	r2,r2,1
     db4:	103ffb26 	beq	r2,zero,da4 <run_ddr_to_ddr_test+0x338>
     db8:	e0bfdc17 	ldw	r2,-144(fp)
     dbc:	10800104 	addi	r2,r2,4
     dc0:	1007883a 	mov	r3,r2
     dc4:	00800044 	movi	r2,1
     dc8:	18800035 	stwio	r2,0(r3)
     dcc:	00005100 	call	510 <get_total_cycles>
     dd0:	e0bfe115 	stw	r2,-124(fp)
     dd4:	e0ffe215 	stw	r3,-120(fp)
     dd8:	e0ffe117 	ldw	r3,-124(fp)
     ddc:	e0bfe417 	ldw	r2,-112(fp)
     de0:	1885c83a 	sub	r2,r3,r2
     de4:	e0bff415 	stw	r2,-48(fp)
     de8:	e0bff417 	ldw	r2,-48(fp)
     dec:	1000021e 	bne	r2,zero,df8 <run_ddr_to_ddr_test+0x38c>
     df0:	00800044 	movi	r2,1
     df4:	e0bff415 	stw	r2,-48(fp)
     df8:	e0bff417 	ldw	r2,-48(fp)
     dfc:	1021883a 	mov	r16,r2
     e00:	0023883a 	mov	r17,zero
     e04:	800d883a 	mov	r6,r16
     e08:	880f883a 	mov	r7,r17
     e0c:	01077374 	movhi	r4,7629
     e10:	21194004 	addi	r4,r4,25856
     e14:	000b883a 	mov	r5,zero
     e18:	00013e00 	call	13e0 <__udivdi3>
     e1c:	1009883a 	mov	r4,r2
     e20:	180b883a 	mov	r5,r3
     e24:	2005883a 	mov	r2,r4
     e28:	2807883a 	mov	r3,r5
     e2c:	e0bfe015 	stw	r2,-128(fp)
     e30:	e0bfe017 	ldw	r2,-128(fp)
     e34:	01400284 	movi	r5,10
     e38:	1009883a 	mov	r4,r2
     e3c:	0001a640 	call	1a64 <__udivsi3>
     e40:	1021883a 	mov	r16,r2
     e44:	e0bfe017 	ldw	r2,-128(fp)
     e48:	01400284 	movi	r5,10
     e4c:	1009883a 	mov	r4,r2
     e50:	0001ac80 	call	1ac8 <__umodsi3>
     e54:	100f883a 	mov	r7,r2
     e58:	800d883a 	mov	r6,r16
     e5c:	e17ff417 	ldw	r5,-48(fp)
     e60:	01000034 	movhi	r4,0
     e64:	21176c04 	addi	r4,r4,23984
     e68:	0001b600 	call	1b60 <printf>
     e6c:	e17ff417 	ldw	r5,-48(fp)
     e70:	e13ff517 	ldw	r4,-44(fp)
     e74:	0001a640 	call	1a64 <__udivsi3>
     e78:	100b883a 	mov	r5,r2
     e7c:	01000034 	movhi	r4,0
     e80:	21177c04 	addi	r4,r4,24048
     e84:	0001b600 	call	1b60 <printf>
     e88:	01000034 	movhi	r4,0
     e8c:	2117c404 	addi	r4,r4,24336
     e90:	0001c280 	call	1c28 <puts>
     e94:	e03ff315 	stw	zero,-52(fp)
     e98:	e03ff215 	stw	zero,-56(fp)
     e9c:	00001c06 	br	f10 <run_ddr_to_ddr_test+0x4a4>
     ea0:	e0bff217 	ldw	r2,-56(fp)
     ea4:	100490ba 	slli	r2,r2,2
     ea8:	e0ffed17 	ldw	r3,-76(fp)
     eac:	1885883a 	add	r2,r3,r2
     eb0:	10800017 	ldw	r2,0(r2)
     eb4:	e0bfdf15 	stw	r2,-132(fp)
     eb8:	e0bff217 	ldw	r2,-56(fp)
     ebc:	100490ba 	slli	r2,r2,2
     ec0:	e0ffec17 	ldw	r3,-80(fp)
     ec4:	1885883a 	add	r2,r3,r2
     ec8:	10800017 	ldw	r2,0(r2)
     ecc:	e0bfde15 	stw	r2,-136(fp)
     ed0:	e0ffde17 	ldw	r3,-136(fp)
     ed4:	e0bfdf17 	ldw	r2,-132(fp)
     ed8:	1885c83a 	sub	r2,r3,r2
     edc:	e0bfdd15 	stw	r2,-140(fp)
     ee0:	e0bfdd17 	ldw	r2,-140(fp)
     ee4:	10800088 	cmpgei	r2,r2,2
     ee8:	1000031e 	bne	r2,zero,ef8 <run_ddr_to_ddr_test+0x48c>
     eec:	e0bfdd17 	ldw	r2,-140(fp)
     ef0:	10bfffc8 	cmpgei	r2,r2,-1
     ef4:	1000031e 	bne	r2,zero,f04 <run_ddr_to_ddr_test+0x498>
     ef8:	e0bff317 	ldw	r2,-52(fp)
     efc:	10800044 	addi	r2,r2,1
     f00:	e0bff315 	stw	r2,-52(fp)
     f04:	e0bff217 	ldw	r2,-56(fp)
     f08:	10800044 	addi	r2,r2,1
     f0c:	e0bff215 	stw	r2,-56(fp)
     f10:	e0bff217 	ldw	r2,-56(fp)
     f14:	10810010 	cmplti	r2,r2,1024
     f18:	103fe11e 	bne	r2,zero,ea0 <run_ddr_to_ddr_test+0x434>
     f1c:	e0bff317 	ldw	r2,-52(fp)
     f20:	1000051e 	bne	r2,zero,f38 <run_ddr_to_ddr_test+0x4cc>
     f24:	e17feb17 	ldw	r5,-84(fp)
     f28:	01000034 	movhi	r4,0
     f2c:	2117ca04 	addi	r4,r4,24360
     f30:	0001b600 	call	1b60 <printf>
     f34:	00000406 	br	f48 <run_ddr_to_ddr_test+0x4dc>
     f38:	e17ff317 	ldw	r5,-52(fp)
     f3c:	01000034 	movhi	r4,0
     f40:	2117d504 	addi	r4,r4,24404
     f44:	0001b600 	call	1b60 <printf>
     f48:	0001883a 	nop
     f4c:	e6fff804 	addi	sp,fp,-32
     f50:	dfc00917 	ldw	ra,36(sp)
     f54:	df000817 	ldw	fp,32(sp)
     f58:	ddc00717 	ldw	r23,28(sp)
     f5c:	dd800617 	ldw	r22,24(sp)
     f60:	dd400517 	ldw	r21,20(sp)
     f64:	dd000417 	ldw	r20,16(sp)
     f68:	dcc00317 	ldw	r19,12(sp)
     f6c:	dc800217 	ldw	r18,8(sp)
     f70:	dc400117 	ldw	r17,4(sp)
     f74:	dc000017 	ldw	r16,0(sp)
     f78:	dec00a04 	addi	sp,sp,40
     f7c:	f800283a 	ret

00000f80 <generate_color_bar_pattern>:
     f80:	deffef04 	addi	sp,sp,-68
     f84:	dfc01015 	stw	ra,64(sp)
     f88:	df000f15 	stw	fp,60(sp)
     f8c:	df000f04 	addi	fp,sp,60
     f90:	01000034 	movhi	r4,0
     f94:	2117de04 	addi	r4,r4,24440
     f98:	0001b600 	call	1b60 <printf>
     f9c:	00a20034 	movhi	r2,34816
     fa0:	e0bffc15 	stw	r2,-16(fp)
     fa4:	00814004 	movi	r2,1280
     fa8:	e0bffb15 	stw	r2,-20(fp)
     fac:	0080b404 	movi	r2,720
     fb0:	e0bffa15 	stw	r2,-24(fp)
     fb4:	e0bffb17 	ldw	r2,-20(fp)
     fb8:	1000010e 	bge	r2,zero,fc0 <generate_color_bar_pattern+0x40>
     fbc:	108001c4 	addi	r2,r2,7
     fc0:	1005d0fa 	srai	r2,r2,3
     fc4:	e0bff915 	stw	r2,-28(fp)
     fc8:	00804034 	movhi	r2,256
     fcc:	10bfffc4 	addi	r2,r2,-1
     fd0:	e0bff115 	stw	r2,-60(fp)
     fd4:	00804034 	movhi	r2,256
     fd8:	10bfc004 	addi	r2,r2,-256
     fdc:	e0bff215 	stw	r2,-56(fp)
     fe0:	00bfffd4 	movui	r2,65535
     fe4:	e0bff315 	stw	r2,-52(fp)
     fe8:	00bfc014 	movui	r2,65280
     fec:	e0bff415 	stw	r2,-48(fp)
     ff0:	00803ff4 	movhi	r2,255
     ff4:	10803fc4 	addi	r2,r2,255
     ff8:	e0bff515 	stw	r2,-44(fp)
     ffc:	00803ff4 	movhi	r2,255
    1000:	e0bff615 	stw	r2,-40(fp)
    1004:	00803fc4 	movi	r2,255
    1008:	e0bff715 	stw	r2,-36(fp)
    100c:	e03ff815 	stw	zero,-32(fp)
    1010:	e03fff15 	stw	zero,-4(fp)
    1014:	00002106 	br	109c <generate_color_bar_pattern+0x11c>
    1018:	e03ffe15 	stw	zero,-8(fp)
    101c:	00001906 	br	1084 <generate_color_bar_pattern+0x104>
    1020:	e17ff917 	ldw	r5,-28(fp)
    1024:	e13ffe17 	ldw	r4,-8(fp)
    1028:	00019700 	call	1970 <__divsi3>
    102c:	e0bffd15 	stw	r2,-12(fp)
    1030:	e0bffd17 	ldw	r2,-12(fp)
    1034:	10800210 	cmplti	r2,r2,8
    1038:	1000021e 	bne	r2,zero,1044 <generate_color_bar_pattern+0xc4>
    103c:	008001c4 	movi	r2,7
    1040:	e0bffd15 	stw	r2,-12(fp)
    1044:	e0ffff17 	ldw	r3,-4(fp)
    1048:	e0bffb17 	ldw	r2,-20(fp)
    104c:	1887383a 	mul	r3,r3,r2
    1050:	e0bffe17 	ldw	r2,-8(fp)
    1054:	1885883a 	add	r2,r3,r2
    1058:	100490ba 	slli	r2,r2,2
    105c:	e0fffc17 	ldw	r3,-16(fp)
    1060:	1885883a 	add	r2,r3,r2
    1064:	e0fffd17 	ldw	r3,-12(fp)
    1068:	180690ba 	slli	r3,r3,2
    106c:	e0c7883a 	add	r3,fp,r3
    1070:	18fff117 	ldw	r3,-60(r3)
    1074:	10c00015 	stw	r3,0(r2)
    1078:	e0bffe17 	ldw	r2,-8(fp)
    107c:	10800044 	addi	r2,r2,1
    1080:	e0bffe15 	stw	r2,-8(fp)
    1084:	e0fffe17 	ldw	r3,-8(fp)
    1088:	e0bffb17 	ldw	r2,-20(fp)
    108c:	18bfe416 	blt	r3,r2,1020 <generate_color_bar_pattern+0xa0>
    1090:	e0bfff17 	ldw	r2,-4(fp)
    1094:	10800044 	addi	r2,r2,1
    1098:	e0bfff15 	stw	r2,-4(fp)
    109c:	e0ffff17 	ldw	r3,-4(fp)
    10a0:	e0bffa17 	ldw	r2,-24(fp)
    10a4:	18bfdc16 	blt	r3,r2,1018 <generate_color_bar_pattern+0x98>
    10a8:	00022bc0 	call	22bc <alt_dcache_flush_all>
    10ac:	e0fffb17 	ldw	r3,-20(fp)
    10b0:	e0bffa17 	ldw	r2,-24(fp)
    10b4:	1885383a 	mul	r2,r3,r2
    10b8:	100b883a 	mov	r5,r2
    10bc:	01000034 	movhi	r4,0
    10c0:	2117ea04 	addi	r4,r4,24488
    10c4:	0001b600 	call	1b60 <printf>
    10c8:	0001883a 	nop
    10cc:	e037883a 	mov	sp,fp
    10d0:	dfc00117 	ldw	ra,4(sp)
    10d4:	df000017 	ldw	fp,0(sp)
    10d8:	dec00204 	addi	sp,sp,8
    10dc:	f800283a 	ret

000010e0 <print_menu>:
    10e0:	defffe04 	addi	sp,sp,-8
    10e4:	dfc00115 	stw	ra,4(sp)
    10e8:	df000015 	stw	fp,0(sp)
    10ec:	d839883a 	mov	fp,sp
    10f0:	01000034 	movhi	r4,0
    10f4:	2117f304 	addi	r4,r4,24524
    10f8:	0001c280 	call	1c28 <puts>
    10fc:	01000034 	movhi	r4,0
    1100:	21180004 	addi	r4,r4,24576
    1104:	0001c280 	call	1c28 <puts>
    1108:	01000034 	movhi	r4,0
    110c:	21180a04 	addi	r4,r4,24616
    1110:	0001c280 	call	1c28 <puts>
    1114:	01000034 	movhi	r4,0
    1118:	21181604 	addi	r4,r4,24664
    111c:	0001c280 	call	1c28 <puts>
    1120:	01000034 	movhi	r4,0
    1124:	21182004 	addi	r4,r4,24704
    1128:	0001c280 	call	1c28 <puts>
    112c:	01000034 	movhi	r4,0
    1130:	21182c04 	addi	r4,r4,24752
    1134:	0001c280 	call	1c28 <puts>
    1138:	01000034 	movhi	r4,0
    113c:	21182f04 	addi	r4,r4,24764
    1140:	0001c280 	call	1c28 <puts>
    1144:	01000034 	movhi	r4,0
    1148:	21183c04 	addi	r4,r4,24816
    114c:	0001b600 	call	1b60 <printf>
    1150:	0001883a 	nop
    1154:	e037883a 	mov	sp,fp
    1158:	dfc00117 	ldw	ra,4(sp)
    115c:	df000017 	ldw	fp,0(sp)
    1160:	dec00204 	addi	sp,sp,8
    1164:	f800283a 	ret

00001168 <run_interactive_menu>:
    1168:	defffd04 	addi	sp,sp,-12
    116c:	dfc00215 	stw	ra,8(sp)
    1170:	df000115 	stw	fp,4(sp)
    1174:	df000104 	addi	fp,sp,4
    1178:	00010e00 	call	10e0 <print_menu>
    117c:	e03fffc5 	stb	zero,-1(fp)
    1180:	00000206 	br	118c <run_interactive_menu+0x24>
    1184:	00004980 	call	498 <get_char_polled>
    1188:	e0bfffc5 	stb	r2,-1(fp)
    118c:	e0bfffc7 	ldb	r2,-1(fp)
    1190:	10800810 	cmplti	r2,r2,32
    1194:	103ffb1e 	bne	r2,zero,1184 <run_interactive_menu+0x1c>
    1198:	e0bfffc7 	ldb	r2,-1(fp)
    119c:	100b883a 	mov	r5,r2
    11a0:	01000034 	movhi	r4,0
    11a4:	21184104 	addi	r4,r4,24836
    11a8:	0001b600 	call	1b60 <printf>
    11ac:	e0bfffc7 	ldb	r2,-1(fp)
    11b0:	10c01c60 	cmpeqi	r3,r2,113
    11b4:	18001b1e 	bne	r3,zero,1224 <run_interactive_menu+0xbc>
    11b8:	10c01c88 	cmpgei	r3,r2,114
    11bc:	18001d1e 	bne	r3,zero,1234 <run_interactive_menu+0xcc>
    11c0:	10c00d20 	cmpeqi	r3,r2,52
    11c4:	1800151e 	bne	r3,zero,121c <run_interactive_menu+0xb4>
    11c8:	10c00d48 	cmpgei	r3,r2,53
    11cc:	1800191e 	bne	r3,zero,1234 <run_interactive_menu+0xcc>
    11d0:	10c00ce0 	cmpeqi	r3,r2,51
    11d4:	18000f1e 	bne	r3,zero,1214 <run_interactive_menu+0xac>
    11d8:	10c00d08 	cmpgei	r3,r2,52
    11dc:	1800151e 	bne	r3,zero,1234 <run_interactive_menu+0xcc>
    11e0:	10c00c60 	cmpeqi	r3,r2,49
    11e4:	1800031e 	bne	r3,zero,11f4 <run_interactive_menu+0x8c>
    11e8:	10800ca0 	cmpeqi	r2,r2,50
    11ec:	1000051e 	bne	r2,zero,1204 <run_interactive_menu+0x9c>
    11f0:	00001006 	br	1234 <run_interactive_menu+0xcc>
    11f4:	012000b4 	movhi	r4,32770
    11f8:	21002004 	addi	r4,r4,128
    11fc:	00006200 	call	620 <run_ocm_to_ddr_test>
    1200:	00001006 	br	1244 <run_interactive_menu+0xdc>
    1204:	012000b4 	movhi	r4,32770
    1208:	21002804 	addi	r4,r4,160
    120c:	0000a6c0 	call	a6c <run_ddr_to_ddr_test>
    1210:	00000c06 	br	1244 <run_interactive_menu+0xdc>
    1214:	00002fc0 	call	2fc <hdmi_init>
    1218:	00000a06 	br	1244 <run_interactive_menu+0xdc>
    121c:	0000f800 	call	f80 <generate_color_bar_pattern>
    1220:	00000806 	br	1244 <run_interactive_menu+0xdc>
    1224:	01000034 	movhi	r4,0
    1228:	21184204 	addi	r4,r4,24840
    122c:	0001c280 	call	1c28 <puts>
    1230:	00000506 	br	1248 <run_interactive_menu+0xe0>
    1234:	01000034 	movhi	r4,0
    1238:	21184704 	addi	r4,r4,24860
    123c:	0001c280 	call	1c28 <puts>
    1240:	0001883a 	nop
    1244:	003fcc06 	br	1178 <run_interactive_menu+0x10>
    1248:	e037883a 	mov	sp,fp
    124c:	dfc00117 	ldw	ra,4(sp)
    1250:	df000017 	ldw	fp,0(sp)
    1254:	dec00204 	addi	sp,sp,8
    1258:	f800283a 	ret

0000125c <main>:
    125c:	defff804 	addi	sp,sp,-32
    1260:	dfc00715 	stw	ra,28(sp)
    1264:	df000615 	stw	fp,24(sp)
    1268:	df000604 	addi	fp,sp,24
    126c:	01000034 	movhi	r4,0
    1270:	21185004 	addi	r4,r4,24896
    1274:	0001c280 	call	1c28 <puts>
    1278:	00800044 	movi	r2,1
    127c:	1001703a 	wrctl	status,r2
    1280:	00c001c4 	movi	r3,7
    1284:	008000b4 	movhi	r2,2
    1288:	10c00935 	stwio	r3,36(r2)
    128c:	01000034 	movhi	r4,0
    1290:	21185d04 	addi	r4,r4,24948
    1294:	0001b600 	call	1b60 <printf>
    1298:	00005100 	call	510 <get_total_cycles>
    129c:	e0bffe15 	stw	r2,-8(fp)
    12a0:	e0ffff15 	stw	r3,-4(fp)
    12a4:	e03ffa15 	stw	zero,-24(fp)
    12a8:	00000306 	br	12b8 <main+0x5c>
    12ac:	e0bffa17 	ldw	r2,-24(fp)
    12b0:	10800044 	addi	r2,r2,1
    12b4:	e0bffa15 	stw	r2,-24(fp)
    12b8:	e0bffa17 	ldw	r2,-24(fp)
    12bc:	1089c410 	cmplti	r2,r2,10000
    12c0:	103ffa1e 	bne	r2,zero,12ac <main+0x50>
    12c4:	00005100 	call	510 <get_total_cycles>
    12c8:	e0bffc15 	stw	r2,-16(fp)
    12cc:	e0fffd15 	stw	r3,-12(fp)
    12d0:	e0bffd17 	ldw	r2,-12(fp)
    12d4:	e0ffff17 	ldw	r3,-4(fp)
    12d8:	18800636 	bltu	r3,r2,12f4 <main+0x98>
    12dc:	e0fffd17 	ldw	r3,-12(fp)
    12e0:	e0bfff17 	ldw	r2,-4(fp)
    12e4:	18800b1e 	bne	r3,r2,1314 <main+0xb8>
    12e8:	e0bffc17 	ldw	r2,-16(fp)
    12ec:	e0fffe17 	ldw	r3,-8(fp)
    12f0:	1880082e 	bgeu	r3,r2,1314 <main+0xb8>
    12f4:	e0fffc17 	ldw	r3,-16(fp)
    12f8:	e0bffe17 	ldw	r2,-8(fp)
    12fc:	1885c83a 	sub	r2,r3,r2
    1300:	100b883a 	mov	r5,r2
    1304:	01000034 	movhi	r4,0
    1308:	21186204 	addi	r4,r4,24968
    130c:	0001b600 	call	1b60 <printf>
    1310:	00000506 	br	1328 <main+0xcc>
    1314:	e0bffe17 	ldw	r2,-8(fp)
    1318:	100b883a 	mov	r5,r2
    131c:	01000034 	movhi	r4,0
    1320:	21186804 	addi	r4,r4,24992
    1324:	0001b600 	call	1b60 <printf>
    1328:	00880034 	movhi	r2,8192
    132c:	e0bffb15 	stw	r2,-20(fp)
    1330:	e17ffb17 	ldw	r5,-20(fp)
    1334:	01000034 	movhi	r4,0
    1338:	21186e04 	addi	r4,r4,25016
    133c:	0001b600 	call	1b60 <printf>
    1340:	e0fffb17 	ldw	r3,-20(fp)
    1344:	008000b4 	movhi	r2,2
    1348:	10c00235 	stwio	r3,8(r2)
    134c:	0007883a 	mov	r3,zero
    1350:	008000b4 	movhi	r2,2
    1354:	10c00335 	stwio	r3,12(r2)
    1358:	01000034 	movhi	r4,0
    135c:	2117b404 	addi	r4,r4,24272
    1360:	0001c280 	call	1c28 <puts>
    1364:	00011680 	call	1168 <run_interactive_menu>
    1368:	0005883a 	mov	r2,zero
    136c:	e037883a 	mov	sp,fp
    1370:	dfc00117 	ldw	ra,4(sp)
    1374:	df000017 	ldw	fp,0(sp)
    1378:	dec00204 	addi	sp,sp,8
    137c:	f800283a 	ret

00001380 <__muldi3>:
    1380:	20bfffcc 	andi	r2,r4,65535
    1384:	2010d43a 	srli	r8,r4,16
    1388:	3016d43a 	srli	r11,r6,16
    138c:	327fffcc 	andi	r9,r6,65535
    1390:	1255383a 	mul	r10,r2,r9
    1394:	12c7383a 	mul	r3,r2,r11
    1398:	4253383a 	mul	r9,r8,r9
    139c:	5004d43a 	srli	r2,r10,16
    13a0:	42d1383a 	mul	r8,r8,r11
    13a4:	1a47883a 	add	r3,r3,r9
    13a8:	10c5883a 	add	r2,r2,r3
    13ac:	1240022e 	bgeu	r2,r9,13b8 <__muldi3+0x38>
    13b0:	00c00074 	movhi	r3,1
    13b4:	40d1883a 	add	r8,r8,r3
    13b8:	1006d43a 	srli	r3,r2,16
    13bc:	21c9383a 	mul	r4,r4,r7
    13c0:	314d383a 	mul	r6,r6,r5
    13c4:	1004943a 	slli	r2,r2,16
    13c8:	1a11883a 	add	r8,r3,r8
    13cc:	52bfffcc 	andi	r10,r10,65535
    13d0:	2209883a 	add	r4,r4,r8
    13d4:	1285883a 	add	r2,r2,r10
    13d8:	2187883a 	add	r3,r4,r6
    13dc:	f800283a 	ret

000013e0 <__udivdi3>:
    13e0:	defff504 	addi	sp,sp,-44
    13e4:	dcc00415 	stw	r19,16(sp)
    13e8:	dc000115 	stw	r16,4(sp)
    13ec:	dfc00a15 	stw	ra,40(sp)
    13f0:	df000915 	stw	fp,36(sp)
    13f4:	ddc00815 	stw	r23,32(sp)
    13f8:	dd800715 	stw	r22,28(sp)
    13fc:	dd400615 	stw	r21,24(sp)
    1400:	dd000515 	stw	r20,20(sp)
    1404:	dc800315 	stw	r18,12(sp)
    1408:	dc400215 	stw	r17,8(sp)
    140c:	2027883a 	mov	r19,r4
    1410:	2821883a 	mov	r16,r5
    1414:	3800411e 	bne	r7,zero,151c <__udivdi3+0x13c>
    1418:	3829883a 	mov	r20,r7
    141c:	3023883a 	mov	r17,r6
    1420:	2025883a 	mov	r18,r4
    1424:	29805d2e 	bgeu	r5,r6,159c <__udivdi3+0x1bc>
    1428:	00bfffd4 	movui	r2,65535
    142c:	282b883a 	mov	r21,r5
    1430:	1180a02e 	bgeu	r2,r6,16b4 <__udivdi3+0x2d4>
    1434:	00804034 	movhi	r2,256
    1438:	30813636 	bltu	r6,r2,1914 <__udivdi3+0x534>
    143c:	3006d63a 	srli	r3,r6,24
    1440:	05000604 	movi	r20,24
    1444:	00800034 	movhi	r2,0
    1448:	1885883a 	add	r2,r3,r2
    144c:	10987903 	ldbu	r2,25060(r2)
    1450:	00c00804 	movi	r3,32
    1454:	1505883a 	add	r2,r2,r20
    1458:	1889c83a 	sub	r4,r3,r2
    145c:	18800526 	beq	r3,r2,1474 <__udivdi3+0x94>
    1460:	8120983a 	sll	r16,r16,r4
    1464:	9884d83a 	srl	r2,r19,r2
    1468:	3122983a 	sll	r17,r6,r4
    146c:	9924983a 	sll	r18,r19,r4
    1470:	142ab03a 	or	r21,r2,r16
    1474:	882cd43a 	srli	r22,r17,16
    1478:	a809883a 	mov	r4,r21
    147c:	8d3fffcc 	andi	r20,r17,65535
    1480:	b00b883a 	mov	r5,r22
    1484:	0001ac80 	call	1ac8 <__umodsi3>
    1488:	a809883a 	mov	r4,r21
    148c:	b00b883a 	mov	r5,r22
    1490:	1027883a 	mov	r19,r2
    1494:	0001a640 	call	1a64 <__udivsi3>
    1498:	9826943a 	slli	r19,r19,16
    149c:	9008d43a 	srli	r4,r18,16
    14a0:	1021883a 	mov	r16,r2
    14a4:	a085383a 	mul	r2,r20,r2
    14a8:	9908b03a 	or	r4,r19,r4
    14ac:	2080052e 	bgeu	r4,r2,14c4 <__udivdi3+0xe4>
    14b0:	2449883a 	add	r4,r4,r17
    14b4:	80ffffc4 	addi	r3,r16,-1
    14b8:	24400136 	bltu	r4,r17,14c0 <__udivdi3+0xe0>
    14bc:	20812636 	bltu	r4,r2,1958 <__udivdi3+0x578>
    14c0:	1821883a 	mov	r16,r3
    14c4:	20a7c83a 	sub	r19,r4,r2
    14c8:	9809883a 	mov	r4,r19
    14cc:	b00b883a 	mov	r5,r22
    14d0:	0001ac80 	call	1ac8 <__umodsi3>
    14d4:	9809883a 	mov	r4,r19
    14d8:	b00b883a 	mov	r5,r22
    14dc:	1027883a 	mov	r19,r2
    14e0:	9826943a 	slli	r19,r19,16
    14e4:	0001a640 	call	1a64 <__udivsi3>
    14e8:	a0a9383a 	mul	r20,r20,r2
    14ec:	94bfffcc 	andi	r18,r18,65535
    14f0:	9ca4b03a 	or	r18,r19,r18
    14f4:	9500052e 	bgeu	r18,r20,150c <__udivdi3+0x12c>
    14f8:	8ca5883a 	add	r18,r17,r18
    14fc:	10ffffc4 	addi	r3,r2,-1
    1500:	94400136 	bltu	r18,r17,1508 <__udivdi3+0x128>
    1504:	95011236 	bltu	r18,r20,1950 <__udivdi3+0x570>
    1508:	1805883a 	mov	r2,r3
    150c:	8020943a 	slli	r16,r16,16
    1510:	0007883a 	mov	r3,zero
    1514:	8084b03a 	or	r2,r16,r2
    1518:	00000306 	br	1528 <__udivdi3+0x148>
    151c:	29c00e2e 	bgeu	r5,r7,1558 <__udivdi3+0x178>
    1520:	0007883a 	mov	r3,zero
    1524:	0005883a 	mov	r2,zero
    1528:	dfc00a17 	ldw	ra,40(sp)
    152c:	df000917 	ldw	fp,36(sp)
    1530:	ddc00817 	ldw	r23,32(sp)
    1534:	dd800717 	ldw	r22,28(sp)
    1538:	dd400617 	ldw	r21,24(sp)
    153c:	dd000517 	ldw	r20,20(sp)
    1540:	dcc00417 	ldw	r19,16(sp)
    1544:	dc800317 	ldw	r18,12(sp)
    1548:	dc400217 	ldw	r17,8(sp)
    154c:	dc000117 	ldw	r16,4(sp)
    1550:	dec00b04 	addi	sp,sp,44
    1554:	f800283a 	ret
    1558:	00bfffd4 	movui	r2,65535
    155c:	11c05a2e 	bgeu	r2,r7,16c8 <__udivdi3+0x2e8>
    1560:	00804034 	movhi	r2,256
    1564:	3880dd36 	bltu	r7,r2,18dc <__udivdi3+0x4fc>
    1568:	3804d63a 	srli	r2,r7,24
    156c:	01000604 	movi	r4,24
    1570:	00c00034 	movhi	r3,0
    1574:	10c7883a 	add	r3,r2,r3
    1578:	18987903 	ldbu	r2,25060(r3)
    157c:	00c00804 	movi	r3,32
    1580:	1105883a 	add	r2,r2,r4
    1584:	18abc83a 	sub	r21,r3,r2
    1588:	1880861e 	bne	r3,r2,17a4 <__udivdi3+0x3c4>
    158c:	3c00d836 	bltu	r7,r16,18f0 <__udivdi3+0x510>
    1590:	9985403a 	cmpgeu	r2,r19,r6
    1594:	0007883a 	mov	r3,zero
    1598:	003fe306 	br	1528 <__udivdi3+0x148>
    159c:	3000041e 	bne	r6,zero,15b0 <__udivdi3+0x1d0>
    15a0:	000b883a 	mov	r5,zero
    15a4:	01000044 	movi	r4,1
    15a8:	0001a640 	call	1a64 <__udivsi3>
    15ac:	1023883a 	mov	r17,r2
    15b0:	00bfffd4 	movui	r2,65535
    15b4:	14403a2e 	bgeu	r2,r17,16a0 <__udivdi3+0x2c0>
    15b8:	00804034 	movhi	r2,256
    15bc:	8880d236 	bltu	r17,r2,1908 <__udivdi3+0x528>
    15c0:	8806d63a 	srli	r3,r17,24
    15c4:	05000604 	movi	r20,24
    15c8:	00800034 	movhi	r2,0
    15cc:	1885883a 	add	r2,r3,r2
    15d0:	10987903 	ldbu	r2,25060(r2)
    15d4:	00c00804 	movi	r3,32
    15d8:	1505883a 	add	r2,r2,r20
    15dc:	188dc83a 	sub	r6,r3,r2
    15e0:	18803e1e 	bne	r3,r2,16dc <__udivdi3+0x2fc>
    15e4:	882ad43a 	srli	r21,r17,16
    15e8:	8461c83a 	sub	r16,r16,r17
    15ec:	8cffffcc 	andi	r19,r17,65535
    15f0:	00c00044 	movi	r3,1
    15f4:	8009883a 	mov	r4,r16
    15f8:	a80b883a 	mov	r5,r21
    15fc:	d8c00015 	stw	r3,0(sp)
    1600:	0001ac80 	call	1ac8 <__umodsi3>
    1604:	8009883a 	mov	r4,r16
    1608:	a80b883a 	mov	r5,r21
    160c:	1021883a 	mov	r16,r2
    1610:	0001a640 	call	1a64 <__udivsi3>
    1614:	8020943a 	slli	r16,r16,16
    1618:	9008d43a 	srli	r4,r18,16
    161c:	1029883a 	mov	r20,r2
    1620:	14c5383a 	mul	r2,r2,r19
    1624:	8108b03a 	or	r4,r16,r4
    1628:	d8c00017 	ldw	r3,0(sp)
    162c:	2080052e 	bgeu	r4,r2,1644 <__udivdi3+0x264>
    1630:	2449883a 	add	r4,r4,r17
    1634:	a17fffc4 	addi	r5,r20,-1
    1638:	24400136 	bltu	r4,r17,1640 <__udivdi3+0x260>
    163c:	2080c936 	bltu	r4,r2,1964 <__udivdi3+0x584>
    1640:	2829883a 	mov	r20,r5
    1644:	20a1c83a 	sub	r16,r4,r2
    1648:	8009883a 	mov	r4,r16
    164c:	a80b883a 	mov	r5,r21
    1650:	d8c00015 	stw	r3,0(sp)
    1654:	0001ac80 	call	1ac8 <__umodsi3>
    1658:	8009883a 	mov	r4,r16
    165c:	a80b883a 	mov	r5,r21
    1660:	1021883a 	mov	r16,r2
    1664:	8020943a 	slli	r16,r16,16
    1668:	0001a640 	call	1a64 <__udivsi3>
    166c:	14e7383a 	mul	r19,r2,r19
    1670:	94bfffcc 	andi	r18,r18,65535
    1674:	84a4b03a 	or	r18,r16,r18
    1678:	d8c00017 	ldw	r3,0(sp)
    167c:	94c0052e 	bgeu	r18,r19,1694 <__udivdi3+0x2b4>
    1680:	8ca5883a 	add	r18,r17,r18
    1684:	113fffc4 	addi	r4,r2,-1
    1688:	94400136 	bltu	r18,r17,1690 <__udivdi3+0x2b0>
    168c:	94c0ae36 	bltu	r18,r19,1948 <__udivdi3+0x568>
    1690:	2005883a 	mov	r2,r4
    1694:	a00c943a 	slli	r6,r20,16
    1698:	3084b03a 	or	r2,r6,r2
    169c:	003fa206 	br	1528 <__udivdi3+0x148>
    16a0:	88804030 	cmpltui	r2,r17,256
    16a4:	10009e1e 	bne	r2,zero,1920 <__udivdi3+0x540>
    16a8:	8806d23a 	srli	r3,r17,8
    16ac:	05000204 	movi	r20,8
    16b0:	003fc506 	br	15c8 <__udivdi3+0x1e8>
    16b4:	30804030 	cmpltui	r2,r6,256
    16b8:	10008b1e 	bne	r2,zero,18e8 <__udivdi3+0x508>
    16bc:	3006d23a 	srli	r3,r6,8
    16c0:	05000204 	movi	r20,8
    16c4:	003f5f06 	br	1444 <__udivdi3+0x64>
    16c8:	38804030 	cmpltui	r2,r7,256
    16cc:	10008b1e 	bne	r2,zero,18fc <__udivdi3+0x51c>
    16d0:	3804d23a 	srli	r2,r7,8
    16d4:	01000204 	movi	r4,8
    16d8:	003fa506 	br	1570 <__udivdi3+0x190>
    16dc:	89a2983a 	sll	r17,r17,r6
    16e0:	80acd83a 	srl	r22,r16,r2
    16e4:	81a0983a 	sll	r16,r16,r6
    16e8:	882ad43a 	srli	r21,r17,16
    16ec:	9884d83a 	srl	r2,r19,r2
    16f0:	b009883a 	mov	r4,r22
    16f4:	a80b883a 	mov	r5,r21
    16f8:	99a4983a 	sll	r18,r19,r6
    16fc:	1428b03a 	or	r20,r2,r16
    1700:	0001ac80 	call	1ac8 <__umodsi3>
    1704:	b009883a 	mov	r4,r22
    1708:	a80b883a 	mov	r5,r21
    170c:	1021883a 	mov	r16,r2
    1710:	0001a640 	call	1a64 <__udivsi3>
    1714:	8008943a 	slli	r4,r16,16
    1718:	a00ad43a 	srli	r5,r20,16
    171c:	8cffffcc 	andi	r19,r17,65535
    1720:	98a1383a 	mul	r16,r19,r2
    1724:	2148b03a 	or	r4,r4,r5
    1728:	102d883a 	mov	r22,r2
    172c:	2400062e 	bgeu	r4,r16,1748 <__udivdi3+0x368>
    1730:	2449883a 	add	r4,r4,r17
    1734:	10bfffc4 	addi	r2,r2,-1
    1738:	24408136 	bltu	r4,r17,1940 <__udivdi3+0x560>
    173c:	2400802e 	bgeu	r4,r16,1940 <__udivdi3+0x560>
    1740:	b5bfff84 	addi	r22,r22,-2
    1744:	2449883a 	add	r4,r4,r17
    1748:	2421c83a 	sub	r16,r4,r16
    174c:	8009883a 	mov	r4,r16
    1750:	a80b883a 	mov	r5,r21
    1754:	0001ac80 	call	1ac8 <__umodsi3>
    1758:	8009883a 	mov	r4,r16
    175c:	a80b883a 	mov	r5,r21
    1760:	1021883a 	mov	r16,r2
    1764:	8020943a 	slli	r16,r16,16
    1768:	0001a640 	call	1a64 <__udivsi3>
    176c:	9889383a 	mul	r4,r19,r2
    1770:	a53fffcc 	andi	r20,r20,65535
    1774:	8520b03a 	or	r16,r16,r20
    1778:	8100062e 	bgeu	r16,r4,1794 <__udivdi3+0x3b4>
    177c:	8461883a 	add	r16,r16,r17
    1780:	10ffffc4 	addi	r3,r2,-1
    1784:	84406a36 	bltu	r16,r17,1930 <__udivdi3+0x550>
    1788:	8100692e 	bgeu	r16,r4,1930 <__udivdi3+0x550>
    178c:	10bfff84 	addi	r2,r2,-2
    1790:	8461883a 	add	r16,r16,r17
    1794:	b006943a 	slli	r3,r22,16
    1798:	8121c83a 	sub	r16,r16,r4
    179c:	1886b03a 	or	r3,r3,r2
    17a0:	003f9406 	br	15f4 <__udivdi3+0x214>
    17a4:	30acd83a 	srl	r22,r6,r2
    17a8:	3d4e983a 	sll	r7,r7,r21
    17ac:	80a4d83a 	srl	r18,r16,r2
    17b0:	8546983a 	sll	r3,r16,r21
    17b4:	b1ecb03a 	or	r22,r22,r7
    17b8:	b038d43a 	srli	fp,r22,16
    17bc:	9884d83a 	srl	r2,r19,r2
    17c0:	9009883a 	mov	r4,r18
    17c4:	e00b883a 	mov	r5,fp
    17c8:	10e2b03a 	or	r17,r2,r3
    17cc:	3568983a 	sll	r20,r6,r21
    17d0:	0001ac80 	call	1ac8 <__umodsi3>
    17d4:	9009883a 	mov	r4,r18
    17d8:	e00b883a 	mov	r5,fp
    17dc:	1025883a 	mov	r18,r2
    17e0:	0001a640 	call	1a64 <__udivsi3>
    17e4:	9008943a 	slli	r4,r18,16
    17e8:	8806d43a 	srli	r3,r17,16
    17ec:	b5ffffcc 	andi	r23,r22,65535
    17f0:	b8a5383a 	mul	r18,r23,r2
    17f4:	20c8b03a 	or	r4,r4,r3
    17f8:	1021883a 	mov	r16,r2
    17fc:	2480062e 	bgeu	r4,r18,1818 <__udivdi3+0x438>
    1800:	2589883a 	add	r4,r4,r22
    1804:	10bfffc4 	addi	r2,r2,-1
    1808:	25804b36 	bltu	r4,r22,1938 <__udivdi3+0x558>
    180c:	24804a2e 	bgeu	r4,r18,1938 <__udivdi3+0x558>
    1810:	843fff84 	addi	r16,r16,-2
    1814:	2589883a 	add	r4,r4,r22
    1818:	24a5c83a 	sub	r18,r4,r18
    181c:	9009883a 	mov	r4,r18
    1820:	e00b883a 	mov	r5,fp
    1824:	0001ac80 	call	1ac8 <__umodsi3>
    1828:	9009883a 	mov	r4,r18
    182c:	e00b883a 	mov	r5,fp
    1830:	1025883a 	mov	r18,r2
    1834:	9024943a 	slli	r18,r18,16
    1838:	0001a640 	call	1a64 <__udivsi3>
    183c:	b8af383a 	mul	r23,r23,r2
    1840:	8c7fffcc 	andi	r17,r17,65535
    1844:	9462b03a 	or	r17,r18,r17
    1848:	8dc0062e 	bgeu	r17,r23,1864 <__udivdi3+0x484>
    184c:	8da3883a 	add	r17,r17,r22
    1850:	10ffffc4 	addi	r3,r2,-1
    1854:	8d803436 	bltu	r17,r22,1928 <__udivdi3+0x548>
    1858:	8dc0332e 	bgeu	r17,r23,1928 <__udivdi3+0x548>
    185c:	10bfff84 	addi	r2,r2,-2
    1860:	8da3883a 	add	r17,r17,r22
    1864:	8020943a 	slli	r16,r16,16
    1868:	10ffffcc 	andi	r3,r2,65535
    186c:	a00ed43a 	srli	r7,r20,16
    1870:	8084b03a 	or	r2,r16,r2
    1874:	1008d43a 	srli	r4,r2,16
    1878:	a1bfffcc 	andi	r6,r20,65535
    187c:	1991383a 	mul	r8,r3,r6
    1880:	218d383a 	mul	r6,r4,r6
    1884:	19c7383a 	mul	r3,r3,r7
    1888:	400ad43a 	srli	r5,r8,16
    188c:	21c9383a 	mul	r4,r4,r7
    1890:	1987883a 	add	r3,r3,r6
    1894:	28c7883a 	add	r3,r5,r3
    1898:	8de3c83a 	sub	r17,r17,r23
    189c:	1980022e 	bgeu	r3,r6,18a8 <__udivdi3+0x4c8>
    18a0:	01400074 	movhi	r5,1
    18a4:	2149883a 	add	r4,r4,r5
    18a8:	180ad43a 	srli	r5,r3,16
    18ac:	2909883a 	add	r4,r5,r4
    18b0:	89000836 	bltu	r17,r4,18d4 <__udivdi3+0x4f4>
    18b4:	89000226 	beq	r17,r4,18c0 <__udivdi3+0x4e0>
    18b8:	0007883a 	mov	r3,zero
    18bc:	003f1a06 	br	1528 <__udivdi3+0x148>
    18c0:	1806943a 	slli	r3,r3,16
    18c4:	9d4c983a 	sll	r6,r19,r21
    18c8:	423fffcc 	andi	r8,r8,65535
    18cc:	1a07883a 	add	r3,r3,r8
    18d0:	30fff92e 	bgeu	r6,r3,18b8 <__udivdi3+0x4d8>
    18d4:	10bfffc4 	addi	r2,r2,-1
    18d8:	003ff706 	br	18b8 <__udivdi3+0x4d8>
    18dc:	3804d43a 	srli	r2,r7,16
    18e0:	01000404 	movi	r4,16
    18e4:	003f2206 	br	1570 <__udivdi3+0x190>
    18e8:	3007883a 	mov	r3,r6
    18ec:	003ed506 	br	1444 <__udivdi3+0x64>
    18f0:	0007883a 	mov	r3,zero
    18f4:	00800044 	movi	r2,1
    18f8:	003f0b06 	br	1528 <__udivdi3+0x148>
    18fc:	3805883a 	mov	r2,r7
    1900:	0009883a 	mov	r4,zero
    1904:	003f1a06 	br	1570 <__udivdi3+0x190>
    1908:	8806d43a 	srli	r3,r17,16
    190c:	05000404 	movi	r20,16
    1910:	003f2d06 	br	15c8 <__udivdi3+0x1e8>
    1914:	3006d43a 	srli	r3,r6,16
    1918:	05000404 	movi	r20,16
    191c:	003ec906 	br	1444 <__udivdi3+0x64>
    1920:	8807883a 	mov	r3,r17
    1924:	003f2806 	br	15c8 <__udivdi3+0x1e8>
    1928:	1805883a 	mov	r2,r3
    192c:	003fcd06 	br	1864 <__udivdi3+0x484>
    1930:	1805883a 	mov	r2,r3
    1934:	003f9706 	br	1794 <__udivdi3+0x3b4>
    1938:	1021883a 	mov	r16,r2
    193c:	003fb606 	br	1818 <__udivdi3+0x438>
    1940:	102d883a 	mov	r22,r2
    1944:	003f8006 	br	1748 <__udivdi3+0x368>
    1948:	10bfff84 	addi	r2,r2,-2
    194c:	003f5106 	br	1694 <__udivdi3+0x2b4>
    1950:	10bfff84 	addi	r2,r2,-2
    1954:	003eed06 	br	150c <__udivdi3+0x12c>
    1958:	843fff84 	addi	r16,r16,-2
    195c:	2449883a 	add	r4,r4,r17
    1960:	003ed806 	br	14c4 <__udivdi3+0xe4>
    1964:	a53fff84 	addi	r20,r20,-2
    1968:	2449883a 	add	r4,r4,r17
    196c:	003f3506 	br	1644 <__udivdi3+0x264>

00001970 <__divsi3>:
    1970:	20001a16 	blt	r4,zero,19dc <__divsi3+0x6c>
    1974:	000f883a 	mov	r7,zero
    1978:	2800020e 	bge	r5,zero,1984 <__divsi3+0x14>
    197c:	014bc83a 	sub	r5,zero,r5
    1980:	39c0005c 	xori	r7,r7,1
    1984:	200d883a 	mov	r6,r4
    1988:	00c00044 	movi	r3,1
    198c:	2900092e 	bgeu	r5,r4,19b4 <__divsi3+0x44>
    1990:	00800804 	movi	r2,32
    1994:	00c00044 	movi	r3,1
    1998:	00000106 	br	19a0 <__divsi3+0x30>
    199c:	10001226 	beq	r2,zero,19e8 <__divsi3+0x78>
    19a0:	294b883a 	add	r5,r5,r5
    19a4:	10bfffc4 	addi	r2,r2,-1
    19a8:	18c7883a 	add	r3,r3,r3
    19ac:	293ffb36 	bltu	r5,r4,199c <__divsi3+0x2c>
    19b0:	18000d26 	beq	r3,zero,19e8 <__divsi3+0x78>
    19b4:	0005883a 	mov	r2,zero
    19b8:	31400236 	bltu	r6,r5,19c4 <__divsi3+0x54>
    19bc:	314dc83a 	sub	r6,r6,r5
    19c0:	10c4b03a 	or	r2,r2,r3
    19c4:	1806d07a 	srli	r3,r3,1
    19c8:	280ad07a 	srli	r5,r5,1
    19cc:	183ffa1e 	bne	r3,zero,19b8 <__divsi3+0x48>
    19d0:	38000126 	beq	r7,zero,19d8 <__divsi3+0x68>
    19d4:	0085c83a 	sub	r2,zero,r2
    19d8:	f800283a 	ret
    19dc:	0109c83a 	sub	r4,zero,r4
    19e0:	01c00044 	movi	r7,1
    19e4:	003fe406 	br	1978 <__divsi3+0x8>
    19e8:	0005883a 	mov	r2,zero
    19ec:	003ff806 	br	19d0 <__divsi3+0x60>

000019f0 <__modsi3>:
    19f0:	20001916 	blt	r4,zero,1a58 <__modsi3+0x68>
    19f4:	000f883a 	mov	r7,zero
    19f8:	2005883a 	mov	r2,r4
    19fc:	2800010e 	bge	r5,zero,1a04 <__modsi3+0x14>
    1a00:	014bc83a 	sub	r5,zero,r5
    1a04:	00c00044 	movi	r3,1
    1a08:	2900092e 	bgeu	r5,r4,1a30 <__modsi3+0x40>
    1a0c:	01800804 	movi	r6,32
    1a10:	00c00044 	movi	r3,1
    1a14:	00000106 	br	1a1c <__modsi3+0x2c>
    1a18:	30000d26 	beq	r6,zero,1a50 <__modsi3+0x60>
    1a1c:	294b883a 	add	r5,r5,r5
    1a20:	31bfffc4 	addi	r6,r6,-1
    1a24:	18c7883a 	add	r3,r3,r3
    1a28:	293ffb36 	bltu	r5,r4,1a18 <__modsi3+0x28>
    1a2c:	18000826 	beq	r3,zero,1a50 <__modsi3+0x60>
    1a30:	1806d07a 	srli	r3,r3,1
    1a34:	11400136 	bltu	r2,r5,1a3c <__modsi3+0x4c>
    1a38:	1145c83a 	sub	r2,r2,r5
    1a3c:	280ad07a 	srli	r5,r5,1
    1a40:	183ffb1e 	bne	r3,zero,1a30 <__modsi3+0x40>
    1a44:	38000126 	beq	r7,zero,1a4c <__modsi3+0x5c>
    1a48:	0085c83a 	sub	r2,zero,r2
    1a4c:	f800283a 	ret
    1a50:	2005883a 	mov	r2,r4
    1a54:	003ffb06 	br	1a44 <__modsi3+0x54>
    1a58:	0109c83a 	sub	r4,zero,r4
    1a5c:	01c00044 	movi	r7,1
    1a60:	003fe506 	br	19f8 <__modsi3+0x8>

00001a64 <__udivsi3>:
    1a64:	200d883a 	mov	r6,r4
    1a68:	2900152e 	bgeu	r5,r4,1ac0 <__udivsi3+0x5c>
    1a6c:	28001416 	blt	r5,zero,1ac0 <__udivsi3+0x5c>
    1a70:	00800804 	movi	r2,32
    1a74:	00c00044 	movi	r3,1
    1a78:	00000206 	br	1a84 <__udivsi3+0x20>
    1a7c:	10000e26 	beq	r2,zero,1ab8 <__udivsi3+0x54>
    1a80:	28000516 	blt	r5,zero,1a98 <__udivsi3+0x34>
    1a84:	294b883a 	add	r5,r5,r5
    1a88:	10bfffc4 	addi	r2,r2,-1
    1a8c:	18c7883a 	add	r3,r3,r3
    1a90:	293ffa36 	bltu	r5,r4,1a7c <__udivsi3+0x18>
    1a94:	18000826 	beq	r3,zero,1ab8 <__udivsi3+0x54>
    1a98:	0005883a 	mov	r2,zero
    1a9c:	31400236 	bltu	r6,r5,1aa8 <__udivsi3+0x44>
    1aa0:	314dc83a 	sub	r6,r6,r5
    1aa4:	10c4b03a 	or	r2,r2,r3
    1aa8:	1806d07a 	srli	r3,r3,1
    1aac:	280ad07a 	srli	r5,r5,1
    1ab0:	183ffa1e 	bne	r3,zero,1a9c <__udivsi3+0x38>
    1ab4:	f800283a 	ret
    1ab8:	0005883a 	mov	r2,zero
    1abc:	f800283a 	ret
    1ac0:	00c00044 	movi	r3,1
    1ac4:	003ff406 	br	1a98 <__udivsi3+0x34>

00001ac8 <__umodsi3>:
    1ac8:	2005883a 	mov	r2,r4
    1acc:	2900132e 	bgeu	r5,r4,1b1c <__umodsi3+0x54>
    1ad0:	28001216 	blt	r5,zero,1b1c <__umodsi3+0x54>
    1ad4:	01800804 	movi	r6,32
    1ad8:	00c00044 	movi	r3,1
    1adc:	00000206 	br	1ae8 <__umodsi3+0x20>
    1ae0:	30000c26 	beq	r6,zero,1b14 <__umodsi3+0x4c>
    1ae4:	28000516 	blt	r5,zero,1afc <__umodsi3+0x34>
    1ae8:	294b883a 	add	r5,r5,r5
    1aec:	31bfffc4 	addi	r6,r6,-1
    1af0:	18c7883a 	add	r3,r3,r3
    1af4:	293ffa36 	bltu	r5,r4,1ae0 <__umodsi3+0x18>
    1af8:	18000626 	beq	r3,zero,1b14 <__umodsi3+0x4c>
    1afc:	1806d07a 	srli	r3,r3,1
    1b00:	11400136 	bltu	r2,r5,1b08 <__umodsi3+0x40>
    1b04:	1145c83a 	sub	r2,r2,r5
    1b08:	280ad07a 	srli	r5,r5,1
    1b0c:	183ffb1e 	bne	r3,zero,1afc <__umodsi3+0x34>
    1b10:	f800283a 	ret
    1b14:	2005883a 	mov	r2,r4
    1b18:	f800283a 	ret
    1b1c:	00c00044 	movi	r3,1
    1b20:	003ff606 	br	1afc <__umodsi3+0x34>

00001b24 <_printf_r>:
    1b24:	defffd04 	addi	sp,sp,-12
    1b28:	dfc00015 	stw	ra,0(sp)
    1b2c:	d9800115 	stw	r6,4(sp)
    1b30:	d9c00215 	stw	r7,8(sp)
    1b34:	21800217 	ldw	r6,8(r4)
    1b38:	00c00034 	movhi	r3,0
    1b3c:	18c87104 	addi	r3,r3,8644
    1b40:	30c00115 	stw	r3,4(r6)
    1b44:	280d883a 	mov	r6,r5
    1b48:	21400217 	ldw	r5,8(r4)
    1b4c:	d9c00104 	addi	r7,sp,4
    1b50:	0001cc00 	call	1cc0 <___vfprintf_internal_r>
    1b54:	dfc00017 	ldw	ra,0(sp)
    1b58:	dec00304 	addi	sp,sp,12
    1b5c:	f800283a 	ret

00001b60 <printf>:
    1b60:	defffc04 	addi	sp,sp,-16
    1b64:	dfc00015 	stw	ra,0(sp)
    1b68:	d9400115 	stw	r5,4(sp)
    1b6c:	d9800215 	stw	r6,8(sp)
    1b70:	d9c00315 	stw	r7,12(sp)
    1b74:	00800034 	movhi	r2,0
    1b78:	10d98e17 	ldw	r3,26168(r2)
    1b7c:	00800034 	movhi	r2,0
    1b80:	10887104 	addi	r2,r2,8644
    1b84:	19400217 	ldw	r5,8(r3)
    1b88:	d9800104 	addi	r6,sp,4
    1b8c:	28800115 	stw	r2,4(r5)
    1b90:	200b883a 	mov	r5,r4
    1b94:	19000217 	ldw	r4,8(r3)
    1b98:	00021ac0 	call	21ac <__vfprintf_internal>
    1b9c:	dfc00017 	ldw	ra,0(sp)
    1ba0:	dec00404 	addi	sp,sp,16
    1ba4:	f800283a 	ret

00001ba8 <_puts_r>:
    1ba8:	defffd04 	addi	sp,sp,-12
    1bac:	dc000015 	stw	r16,0(sp)
    1bb0:	2021883a 	mov	r16,r4
    1bb4:	2809883a 	mov	r4,r5
    1bb8:	dfc00215 	stw	ra,8(sp)
    1bbc:	dc400115 	stw	r17,4(sp)
    1bc0:	2823883a 	mov	r17,r5
    1bc4:	0001c380 	call	1c38 <strlen>
    1bc8:	81400217 	ldw	r5,8(r16)
    1bcc:	00c00034 	movhi	r3,0
    1bd0:	18c87104 	addi	r3,r3,8644
    1bd4:	28c00115 	stw	r3,4(r5)
    1bd8:	100f883a 	mov	r7,r2
    1bdc:	880d883a 	mov	r6,r17
    1be0:	8009883a 	mov	r4,r16
    1be4:	00021c40 	call	21c4 <__sfvwrite_small_dev>
    1be8:	10ffffe0 	cmpeqi	r3,r2,-1
    1bec:	1800091e 	bne	r3,zero,1c14 <_puts_r+0x6c>
    1bf0:	81400217 	ldw	r5,8(r16)
    1bf4:	01800034 	movhi	r6,0
    1bf8:	01c00044 	movi	r7,1
    1bfc:	28800117 	ldw	r2,4(r5)
    1c00:	3198b904 	addi	r6,r6,25316
    1c04:	8009883a 	mov	r4,r16
    1c08:	103ee83a 	callr	r2
    1c0c:	10bfffe0 	cmpeqi	r2,r2,-1
    1c10:	0085c83a 	sub	r2,zero,r2
    1c14:	dfc00217 	ldw	ra,8(sp)
    1c18:	dc400117 	ldw	r17,4(sp)
    1c1c:	dc000017 	ldw	r16,0(sp)
    1c20:	dec00304 	addi	sp,sp,12
    1c24:	f800283a 	ret

00001c28 <puts>:
    1c28:	00800034 	movhi	r2,0
    1c2c:	200b883a 	mov	r5,r4
    1c30:	11198e17 	ldw	r4,26168(r2)
    1c34:	0001ba81 	jmpi	1ba8 <_puts_r>

00001c38 <strlen>:
    1c38:	2005883a 	mov	r2,r4
    1c3c:	10c00007 	ldb	r3,0(r2)
    1c40:	1800021e 	bne	r3,zero,1c4c <strlen+0x14>
    1c44:	1105c83a 	sub	r2,r2,r4
    1c48:	f800283a 	ret
    1c4c:	10800044 	addi	r2,r2,1
    1c50:	003ffa06 	br	1c3c <strlen+0x4>

00001c54 <print_repeat>:
    1c54:	defffb04 	addi	sp,sp,-20
    1c58:	dc800315 	stw	r18,12(sp)
    1c5c:	dc400215 	stw	r17,8(sp)
    1c60:	dc000115 	stw	r16,4(sp)
    1c64:	dfc00415 	stw	ra,16(sp)
    1c68:	2025883a 	mov	r18,r4
    1c6c:	2823883a 	mov	r17,r5
    1c70:	d9800005 	stb	r6,0(sp)
    1c74:	3821883a 	mov	r16,r7
    1c78:	04000716 	blt	zero,r16,1c98 <print_repeat+0x44>
    1c7c:	0005883a 	mov	r2,zero
    1c80:	dfc00417 	ldw	ra,16(sp)
    1c84:	dc800317 	ldw	r18,12(sp)
    1c88:	dc400217 	ldw	r17,8(sp)
    1c8c:	dc000117 	ldw	r16,4(sp)
    1c90:	dec00504 	addi	sp,sp,20
    1c94:	f800283a 	ret
    1c98:	88800117 	ldw	r2,4(r17)
    1c9c:	01c00044 	movi	r7,1
    1ca0:	d80d883a 	mov	r6,sp
    1ca4:	880b883a 	mov	r5,r17
    1ca8:	9009883a 	mov	r4,r18
    1cac:	103ee83a 	callr	r2
    1cb0:	843fffc4 	addi	r16,r16,-1
    1cb4:	103ff026 	beq	r2,zero,1c78 <print_repeat+0x24>
    1cb8:	00bfffc4 	movi	r2,-1
    1cbc:	003ff006 	br	1c80 <print_repeat+0x2c>

00001cc0 <___vfprintf_internal_r>:
    1cc0:	deffe604 	addi	sp,sp,-104
    1cc4:	df001815 	stw	fp,96(sp)
    1cc8:	ddc01715 	stw	r23,92(sp)
    1ccc:	dd801615 	stw	r22,88(sp)
    1cd0:	dd001415 	stw	r20,80(sp)
    1cd4:	dcc01315 	stw	r19,76(sp)
    1cd8:	dc801215 	stw	r18,72(sp)
    1cdc:	dc401115 	stw	r17,68(sp)
    1ce0:	dc001015 	stw	r16,64(sp)
    1ce4:	dfc01915 	stw	ra,100(sp)
    1ce8:	dd401515 	stw	r21,84(sp)
    1cec:	2021883a 	mov	r16,r4
    1cf0:	282f883a 	mov	r23,r5
    1cf4:	d9800515 	stw	r6,20(sp)
    1cf8:	3839883a 	mov	fp,r7
    1cfc:	002d883a 	mov	r22,zero
    1d00:	d8000215 	stw	zero,8(sp)
    1d04:	0027883a 	mov	r19,zero
    1d08:	0029883a 	mov	r20,zero
    1d0c:	0025883a 	mov	r18,zero
    1d10:	0023883a 	mov	r17,zero
    1d14:	d8000115 	stw	zero,4(sp)
    1d18:	d8000015 	stw	zero,0(sp)
    1d1c:	0005883a 	mov	r2,zero
    1d20:	00000206 	br	1d2c <___vfprintf_internal_r+0x6c>
    1d24:	118000e0 	cmpeqi	r6,r2,3
    1d28:	30003d1e 	bne	r6,zero,1e20 <___vfprintf_internal_r+0x160>
    1d2c:	d8c00517 	ldw	r3,20(sp)
    1d30:	19000003 	ldbu	r4,0(r3)
    1d34:	18c00044 	addi	r3,r3,1
    1d38:	d8c00515 	stw	r3,20(sp)
    1d3c:	21403fcc 	andi	r5,r4,255
    1d40:	2940201c 	xori	r5,r5,128
    1d44:	297fe004 	addi	r5,r5,-128
    1d48:	28001426 	beq	r5,zero,1d9c <___vfprintf_internal_r+0xdc>
    1d4c:	118000a0 	cmpeqi	r6,r2,2
    1d50:	3000231e 	bne	r6,zero,1de0 <___vfprintf_internal_r+0x120>
    1d54:	118000c8 	cmpgei	r6,r2,3
    1d58:	303ff21e 	bne	r6,zero,1d24 <___vfprintf_internal_r+0x64>
    1d5c:	10000426 	beq	r2,zero,1d70 <___vfprintf_internal_r+0xb0>
    1d60:	10800060 	cmpeqi	r2,r2,1
    1d64:	10001a1e 	bne	r2,zero,1dd0 <___vfprintf_internal_r+0x110>
    1d68:	00800084 	movi	r2,2
    1d6c:	003fef06 	br	1d2c <___vfprintf_internal_r+0x6c>
    1d70:	29400960 	cmpeqi	r5,r5,37
    1d74:	2800f61e 	bne	r5,zero,2150 <___vfprintf_internal_r+0x490>
    1d78:	b8800117 	ldw	r2,4(r23)
    1d7c:	d9000805 	stb	r4,32(sp)
    1d80:	01c00044 	movi	r7,1
    1d84:	d9800804 	addi	r6,sp,32
    1d88:	b80b883a 	mov	r5,r23
    1d8c:	8009883a 	mov	r4,r16
    1d90:	103ee83a 	callr	r2
    1d94:	10001b26 	beq	r2,zero,1e04 <___vfprintf_internal_r+0x144>
    1d98:	05bfffc4 	movi	r22,-1
    1d9c:	b005883a 	mov	r2,r22
    1da0:	dfc01917 	ldw	ra,100(sp)
    1da4:	df001817 	ldw	fp,96(sp)
    1da8:	ddc01717 	ldw	r23,92(sp)
    1dac:	dd801617 	ldw	r22,88(sp)
    1db0:	dd401517 	ldw	r21,84(sp)
    1db4:	dd001417 	ldw	r20,80(sp)
    1db8:	dcc01317 	ldw	r19,76(sp)
    1dbc:	dc801217 	ldw	r18,72(sp)
    1dc0:	dc401117 	ldw	r17,68(sp)
    1dc4:	dc001017 	ldw	r16,64(sp)
    1dc8:	dec01a04 	addi	sp,sp,104
    1dcc:	f800283a 	ret
    1dd0:	28800c20 	cmpeqi	r2,r5,48
    1dd4:	1000e71e 	bne	r2,zero,2174 <___vfprintf_internal_r+0x4b4>
    1dd8:	28800958 	cmpnei	r2,r5,37
    1ddc:	103fe626 	beq	r2,zero,1d78 <___vfprintf_internal_r+0xb8>
    1de0:	20bff404 	addi	r2,r4,-48
    1de4:	10803fcc 	andi	r2,r2,255
    1de8:	118002a8 	cmpgeui	r6,r2,10
    1dec:	3000091e 	bne	r6,zero,1e14 <___vfprintf_internal_r+0x154>
    1df0:	893fffe0 	cmpeqi	r4,r17,-1
    1df4:	2000051e 	bne	r4,zero,1e0c <___vfprintf_internal_r+0x14c>
    1df8:	8c4002a4 	muli	r17,r17,10
    1dfc:	1463883a 	add	r17,r2,r17
    1e00:	003fd906 	br	1d68 <___vfprintf_internal_r+0xa8>
    1e04:	b5800044 	addi	r22,r22,1
    1e08:	003fc806 	br	1d2c <___vfprintf_internal_r+0x6c>
    1e0c:	0023883a 	mov	r17,zero
    1e10:	003ffa06 	br	1dfc <___vfprintf_internal_r+0x13c>
    1e14:	28800ba0 	cmpeqi	r2,r5,46
    1e18:	1000db1e 	bne	r2,zero,2188 <___vfprintf_internal_r+0x4c8>
    1e1c:	00800084 	movi	r2,2
    1e20:	213ff404 	addi	r4,r4,-48
    1e24:	21003fcc 	andi	r4,r4,255
    1e28:	218002a8 	cmpgeui	r6,r4,10
    1e2c:	3000071e 	bne	r6,zero,1e4c <___vfprintf_internal_r+0x18c>
    1e30:	917fffe0 	cmpeqi	r5,r18,-1
    1e34:	2800031e 	bne	r5,zero,1e44 <___vfprintf_internal_r+0x184>
    1e38:	948002a4 	muli	r18,r18,10
    1e3c:	24a5883a 	add	r18,r4,r18
    1e40:	003fba06 	br	1d2c <___vfprintf_internal_r+0x6c>
    1e44:	0025883a 	mov	r18,zero
    1e48:	003ffc06 	br	1e3c <___vfprintf_internal_r+0x17c>
    1e4c:	28801b20 	cmpeqi	r2,r5,108
    1e50:	1000cb1e 	bne	r2,zero,2180 <___vfprintf_internal_r+0x4c0>
    1e54:	90bfffe0 	cmpeqi	r2,r18,-1
    1e58:	10000f1e 	bne	r2,zero,1e98 <___vfprintf_internal_r+0x1d8>
    1e5c:	d8000015 	stw	zero,0(sp)
    1e60:	28801be0 	cmpeqi	r2,r5,111
    1e64:	1000ca1e 	bne	r2,zero,2190 <___vfprintf_internal_r+0x4d0>
    1e68:	28801c08 	cmpgei	r2,r5,112
    1e6c:	1000171e 	bne	r2,zero,1ecc <___vfprintf_internal_r+0x20c>
    1e70:	288018e0 	cmpeqi	r2,r5,99
    1e74:	10009f1e 	bne	r2,zero,20f4 <___vfprintf_internal_r+0x434>
    1e78:	28801908 	cmpgei	r2,r5,100
    1e7c:	1000081e 	bne	r2,zero,1ea0 <___vfprintf_internal_r+0x1e0>
    1e80:	29401620 	cmpeqi	r5,r5,88
    1e84:	283fa526 	beq	r5,zero,1d1c <___vfprintf_internal_r+0x5c>
    1e88:	00800044 	movi	r2,1
    1e8c:	d8800215 	stw	r2,8(sp)
    1e90:	05000404 	movi	r20,16
    1e94:	0000bf06 	br	2194 <___vfprintf_internal_r+0x4d4>
    1e98:	04800044 	movi	r18,1
    1e9c:	003ff006 	br	1e60 <___vfprintf_internal_r+0x1a0>
    1ea0:	28801920 	cmpeqi	r2,r5,100
    1ea4:	1000021e 	bne	r2,zero,1eb0 <___vfprintf_internal_r+0x1f0>
    1ea8:	29401a60 	cmpeqi	r5,r5,105
    1eac:	283f9b26 	beq	r5,zero,1d1c <___vfprintf_internal_r+0x5c>
    1eb0:	e0800104 	addi	r2,fp,4
    1eb4:	d8800415 	stw	r2,16(sp)
    1eb8:	9800b626 	beq	r19,zero,2194 <___vfprintf_internal_r+0x4d4>
    1ebc:	e5400017 	ldw	r21,0(fp)
    1ec0:	a8002216 	blt	r21,zero,1f4c <___vfprintf_internal_r+0x28c>
    1ec4:	04c00044 	movi	r19,1
    1ec8:	0000b606 	br	21a4 <___vfprintf_internal_r+0x4e4>
    1ecc:	28801d60 	cmpeqi	r2,r5,117
    1ed0:	1000b01e 	bne	r2,zero,2194 <___vfprintf_internal_r+0x4d4>
    1ed4:	28801e20 	cmpeqi	r2,r5,120
    1ed8:	103fed1e 	bne	r2,zero,1e90 <___vfprintf_internal_r+0x1d0>
    1edc:	29401ce0 	cmpeqi	r5,r5,115
    1ee0:	283f8e26 	beq	r5,zero,1d1c <___vfprintf_internal_r+0x5c>
    1ee4:	e5400017 	ldw	r21,0(fp)
    1ee8:	e0800104 	addi	r2,fp,4
    1eec:	d8800315 	stw	r2,12(sp)
    1ef0:	a809883a 	mov	r4,r21
    1ef4:	0001c380 	call	1c38 <strlen>
    1ef8:	888fc83a 	sub	r7,r17,r2
    1efc:	1039883a 	mov	fp,r2
    1f00:	01c0080e 	bge	zero,r7,1f24 <___vfprintf_internal_r+0x264>
    1f04:	01800804 	movi	r6,32
    1f08:	b80b883a 	mov	r5,r23
    1f0c:	8009883a 	mov	r4,r16
    1f10:	d9c00415 	stw	r7,16(sp)
    1f14:	0001c540 	call	1c54 <print_repeat>
    1f18:	103f9f1e 	bne	r2,zero,1d98 <___vfprintf_internal_r+0xd8>
    1f1c:	d9c00417 	ldw	r7,16(sp)
    1f20:	b1ed883a 	add	r22,r22,r7
    1f24:	b8800117 	ldw	r2,4(r23)
    1f28:	e00f883a 	mov	r7,fp
    1f2c:	a80d883a 	mov	r6,r21
    1f30:	b80b883a 	mov	r5,r23
    1f34:	8009883a 	mov	r4,r16
    1f38:	103ee83a 	callr	r2
    1f3c:	103f961e 	bne	r2,zero,1d98 <___vfprintf_internal_r+0xd8>
    1f40:	b72d883a 	add	r22,r22,fp
    1f44:	df000317 	ldw	fp,12(sp)
    1f48:	003f7806 	br	1d2c <___vfprintf_internal_r+0x6c>
    1f4c:	056bc83a 	sub	r21,zero,r21
    1f50:	04c00044 	movi	r19,1
    1f54:	00c00044 	movi	r3,1
    1f58:	df000804 	addi	fp,sp,32
    1f5c:	e00d883a 	mov	r6,fp
    1f60:	a8002e1e 	bne	r21,zero,201c <___vfprintf_internal_r+0x35c>
    1f64:	e185c83a 	sub	r2,fp,r6
    1f68:	d8800315 	stw	r2,12(sp)
    1f6c:	9085c83a 	sub	r2,r18,r2
    1f70:	0080090e 	bge	zero,r2,1f98 <___vfprintf_internal_r+0x2d8>
    1f74:	e085883a 	add	r2,fp,r2
    1f78:	d9001004 	addi	r4,sp,64
    1f7c:	e100042e 	bgeu	fp,r4,1f90 <___vfprintf_internal_r+0x2d0>
    1f80:	e7000044 	addi	fp,fp,1
    1f84:	01000c04 	movi	r4,48
    1f88:	e13fffc5 	stb	r4,-1(fp)
    1f8c:	e0bffa1e 	bne	fp,r2,1f78 <___vfprintf_internal_r+0x2b8>
    1f90:	e185c83a 	sub	r2,fp,r6
    1f94:	d8800315 	stw	r2,12(sp)
    1f98:	d8800317 	ldw	r2,12(sp)
    1f9c:	1897883a 	add	r11,r3,r2
    1fa0:	d8800017 	ldw	r2,0(sp)
    1fa4:	8aebc83a 	sub	r21,r17,r11
    1fa8:	10003126 	beq	r2,zero,2070 <___vfprintf_internal_r+0x3b0>
    1fac:	18000a26 	beq	r3,zero,1fd8 <___vfprintf_internal_r+0x318>
    1fb0:	00800b44 	movi	r2,45
    1fb4:	d88007c5 	stb	r2,31(sp)
    1fb8:	b8800117 	ldw	r2,4(r23)
    1fbc:	01c00044 	movi	r7,1
    1fc0:	d98007c4 	addi	r6,sp,31
    1fc4:	b80b883a 	mov	r5,r23
    1fc8:	8009883a 	mov	r4,r16
    1fcc:	103ee83a 	callr	r2
    1fd0:	103f711e 	bne	r2,zero,1d98 <___vfprintf_internal_r+0xd8>
    1fd4:	b5800044 	addi	r22,r22,1
    1fd8:	0540070e 	bge	zero,r21,1ff8 <___vfprintf_internal_r+0x338>
    1fdc:	a80f883a 	mov	r7,r21
    1fe0:	01800c04 	movi	r6,48
    1fe4:	b80b883a 	mov	r5,r23
    1fe8:	8009883a 	mov	r4,r16
    1fec:	0001c540 	call	1c54 <print_repeat>
    1ff0:	103f691e 	bne	r2,zero,1d98 <___vfprintf_internal_r+0xd8>
    1ff4:	b56d883a 	add	r22,r22,r21
    1ff8:	d8800317 	ldw	r2,12(sp)
    1ffc:	b72d883a 	add	r22,r22,fp
    2000:	172bc83a 	sub	r21,r2,fp
    2004:	af05883a 	add	r2,r21,fp
    2008:	b707c83a 	sub	r3,r22,fp
    200c:	00802e16 	blt	zero,r2,20c8 <___vfprintf_internal_r+0x408>
    2010:	df000417 	ldw	fp,16(sp)
    2014:	182d883a 	mov	r22,r3
    2018:	003f4006 	br	1d1c <___vfprintf_internal_r+0x5c>
    201c:	a809883a 	mov	r4,r21
    2020:	a00b883a 	mov	r5,r20
    2024:	d8c00315 	stw	r3,12(sp)
    2028:	0001a640 	call	1a64 <__udivsi3>
    202c:	1509383a 	mul	r4,r2,r20
    2030:	d8c00317 	ldw	r3,12(sp)
    2034:	d9800804 	addi	r6,sp,32
    2038:	a92bc83a 	sub	r21,r21,r4
    203c:	a9000288 	cmpgei	r4,r21,10
    2040:	2000051e 	bne	r4,zero,2058 <___vfprintf_internal_r+0x398>
    2044:	ad400c04 	addi	r21,r21,48
    2048:	e7000044 	addi	fp,fp,1
    204c:	e57fffc5 	stb	r21,-1(fp)
    2050:	102b883a 	mov	r21,r2
    2054:	003fc206 	br	1f60 <___vfprintf_internal_r+0x2a0>
    2058:	d9000217 	ldw	r4,8(sp)
    205c:	20000226 	beq	r4,zero,2068 <___vfprintf_internal_r+0x3a8>
    2060:	ad400dc4 	addi	r21,r21,55
    2064:	003ff806 	br	2048 <___vfprintf_internal_r+0x388>
    2068:	ad4015c4 	addi	r21,r21,87
    206c:	003ff606 	br	2048 <___vfprintf_internal_r+0x388>
    2070:	0540090e 	bge	zero,r21,2098 <___vfprintf_internal_r+0x3d8>
    2074:	a80f883a 	mov	r7,r21
    2078:	01800804 	movi	r6,32
    207c:	b80b883a 	mov	r5,r23
    2080:	8009883a 	mov	r4,r16
    2084:	d8c00615 	stw	r3,24(sp)
    2088:	0001c540 	call	1c54 <print_repeat>
    208c:	103f421e 	bne	r2,zero,1d98 <___vfprintf_internal_r+0xd8>
    2090:	d8c00617 	ldw	r3,24(sp)
    2094:	b56d883a 	add	r22,r22,r21
    2098:	183fd726 	beq	r3,zero,1ff8 <___vfprintf_internal_r+0x338>
    209c:	00800b44 	movi	r2,45
    20a0:	d88007c5 	stb	r2,31(sp)
    20a4:	b8800117 	ldw	r2,4(r23)
    20a8:	01c00044 	movi	r7,1
    20ac:	d98007c4 	addi	r6,sp,31
    20b0:	b80b883a 	mov	r5,r23
    20b4:	8009883a 	mov	r4,r16
    20b8:	103ee83a 	callr	r2
    20bc:	103f361e 	bne	r2,zero,1d98 <___vfprintf_internal_r+0xd8>
    20c0:	b5800044 	addi	r22,r22,1
    20c4:	003fcc06 	br	1ff8 <___vfprintf_internal_r+0x338>
    20c8:	e0bfffc3 	ldbu	r2,-1(fp)
    20cc:	01c00044 	movi	r7,1
    20d0:	d98007c4 	addi	r6,sp,31
    20d4:	d88007c5 	stb	r2,31(sp)
    20d8:	b8800117 	ldw	r2,4(r23)
    20dc:	b80b883a 	mov	r5,r23
    20e0:	8009883a 	mov	r4,r16
    20e4:	e73fffc4 	addi	fp,fp,-1
    20e8:	103ee83a 	callr	r2
    20ec:	103fc526 	beq	r2,zero,2004 <___vfprintf_internal_r+0x344>
    20f0:	003f2906 	br	1d98 <___vfprintf_internal_r+0xd8>
    20f4:	88800090 	cmplti	r2,r17,2
    20f8:	1000081e 	bne	r2,zero,211c <___vfprintf_internal_r+0x45c>
    20fc:	8d7fffc4 	addi	r21,r17,-1
    2100:	a80f883a 	mov	r7,r21
    2104:	01800804 	movi	r6,32
    2108:	b80b883a 	mov	r5,r23
    210c:	8009883a 	mov	r4,r16
    2110:	0001c540 	call	1c54 <print_repeat>
    2114:	103f201e 	bne	r2,zero,1d98 <___vfprintf_internal_r+0xd8>
    2118:	b56d883a 	add	r22,r22,r21
    211c:	e0800017 	ldw	r2,0(fp)
    2120:	01c00044 	movi	r7,1
    2124:	d9800804 	addi	r6,sp,32
    2128:	d8800805 	stb	r2,32(sp)
    212c:	b8800117 	ldw	r2,4(r23)
    2130:	b80b883a 	mov	r5,r23
    2134:	8009883a 	mov	r4,r16
    2138:	e5400104 	addi	r21,fp,4
    213c:	103ee83a 	callr	r2
    2140:	103f151e 	bne	r2,zero,1d98 <___vfprintf_internal_r+0xd8>
    2144:	b5800044 	addi	r22,r22,1
    2148:	a839883a 	mov	fp,r21
    214c:	003ef706 	br	1d2c <___vfprintf_internal_r+0x6c>
    2150:	d8000215 	stw	zero,8(sp)
    2154:	d8000115 	stw	zero,4(sp)
    2158:	d8000015 	stw	zero,0(sp)
    215c:	04c00044 	movi	r19,1
    2160:	05000284 	movi	r20,10
    2164:	04bfffc4 	movi	r18,-1
    2168:	047fffc4 	movi	r17,-1
    216c:	00800044 	movi	r2,1
    2170:	003eee06 	br	1d2c <___vfprintf_internal_r+0x6c>
    2174:	00800044 	movi	r2,1
    2178:	d8800015 	stw	r2,0(sp)
    217c:	003efa06 	br	1d68 <___vfprintf_internal_r+0xa8>
    2180:	00800044 	movi	r2,1
    2184:	d8800115 	stw	r2,4(sp)
    2188:	008000c4 	movi	r2,3
    218c:	003ee706 	br	1d2c <___vfprintf_internal_r+0x6c>
    2190:	05000204 	movi	r20,8
    2194:	e0800104 	addi	r2,fp,4
    2198:	d8800415 	stw	r2,16(sp)
    219c:	e5400017 	ldw	r21,0(fp)
    21a0:	0027883a 	mov	r19,zero
    21a4:	0007883a 	mov	r3,zero
    21a8:	003f6b06 	br	1f58 <___vfprintf_internal_r+0x298>

000021ac <__vfprintf_internal>:
    21ac:	00800034 	movhi	r2,0
    21b0:	300f883a 	mov	r7,r6
    21b4:	280d883a 	mov	r6,r5
    21b8:	200b883a 	mov	r5,r4
    21bc:	11198e17 	ldw	r4,26168(r2)
    21c0:	0001cc01 	jmpi	1cc0 <___vfprintf_internal_r>

000021c4 <__sfvwrite_small_dev>:
    21c4:	2880000b 	ldhu	r2,0(r5)
    21c8:	1080020c 	andi	r2,r2,8
    21cc:	10002526 	beq	r2,zero,2264 <__sfvwrite_small_dev+0xa0>
    21d0:	2880008f 	ldh	r2,2(r5)
    21d4:	defffb04 	addi	sp,sp,-20
    21d8:	dcc00315 	stw	r19,12(sp)
    21dc:	dc800215 	stw	r18,8(sp)
    21e0:	dc400115 	stw	r17,4(sp)
    21e4:	dc000015 	stw	r16,0(sp)
    21e8:	dfc00415 	stw	ra,16(sp)
    21ec:	2027883a 	mov	r19,r4
    21f0:	2821883a 	mov	r16,r5
    21f4:	3025883a 	mov	r18,r6
    21f8:	3823883a 	mov	r17,r7
    21fc:	1000100e 	bge	r2,zero,2240 <__sfvwrite_small_dev+0x7c>
    2200:	8080000b 	ldhu	r2,0(r16)
    2204:	10801014 	ori	r2,r2,64
    2208:	8080000d 	sth	r2,0(r16)
    220c:	00bfffc4 	movi	r2,-1
    2210:	00000d06 	br	2248 <__sfvwrite_small_dev+0x84>
    2214:	88810050 	cmplti	r2,r17,1025
    2218:	880f883a 	mov	r7,r17
    221c:	1000011e 	bne	r2,zero,2224 <__sfvwrite_small_dev+0x60>
    2220:	01c10004 	movi	r7,1024
    2224:	8140008f 	ldh	r5,2(r16)
    2228:	900d883a 	mov	r6,r18
    222c:	9809883a 	mov	r4,r19
    2230:	000226c0 	call	226c <_write_r>
    2234:	00bff20e 	bge	zero,r2,2200 <__sfvwrite_small_dev+0x3c>
    2238:	88a3c83a 	sub	r17,r17,r2
    223c:	90a5883a 	add	r18,r18,r2
    2240:	047ff416 	blt	zero,r17,2214 <__sfvwrite_small_dev+0x50>
    2244:	0005883a 	mov	r2,zero
    2248:	dfc00417 	ldw	ra,16(sp)
    224c:	dcc00317 	ldw	r19,12(sp)
    2250:	dc800217 	ldw	r18,8(sp)
    2254:	dc400117 	ldw	r17,4(sp)
    2258:	dc000017 	ldw	r16,0(sp)
    225c:	dec00504 	addi	sp,sp,20
    2260:	f800283a 	ret
    2264:	00bfffc4 	movi	r2,-1
    2268:	f800283a 	ret

0000226c <_write_r>:
    226c:	defffe04 	addi	sp,sp,-8
    2270:	dc000015 	stw	r16,0(sp)
    2274:	00800034 	movhi	r2,0
    2278:	2021883a 	mov	r16,r4
    227c:	2809883a 	mov	r4,r5
    2280:	300b883a 	mov	r5,r6
    2284:	380d883a 	mov	r6,r7
    2288:	dfc00115 	stw	ra,4(sp)
    228c:	101a6415 	stw	zero,27024(r2)
    2290:	00026940 	call	2694 <write>
    2294:	10ffffd8 	cmpnei	r3,r2,-1
    2298:	1800041e 	bne	r3,zero,22ac <_write_r+0x40>
    229c:	00c00034 	movhi	r3,0
    22a0:	18da6417 	ldw	r3,27024(r3)
    22a4:	18000126 	beq	r3,zero,22ac <_write_r+0x40>
    22a8:	80c00015 	stw	r3,0(r16)
    22ac:	dfc00117 	ldw	ra,4(sp)
    22b0:	dc000017 	ldw	r16,0(sp)
    22b4:	dec00204 	addi	sp,sp,8
    22b8:	f800283a 	ret

000022bc <alt_dcache_flush_all>:
    22bc:	defffe04 	addi	sp,sp,-8
    22c0:	df000115 	stw	fp,4(sp)
    22c4:	df000104 	addi	fp,sp,4
    22c8:	e03fff15 	stw	zero,-4(fp)
    22cc:	00000506 	br	22e4 <alt_dcache_flush_all+0x28>
    22d0:	e0bfff17 	ldw	r2,-4(fp)
    22d4:	1000003b 	flushd	0(r2)
    22d8:	e0bfff17 	ldw	r2,-4(fp)
    22dc:	10800804 	addi	r2,r2,32
    22e0:	e0bfff15 	stw	r2,-4(fp)
    22e4:	e0bfff17 	ldw	r2,-4(fp)
    22e8:	10820030 	cmpltui	r2,r2,2048
    22ec:	103ff81e 	bne	r2,zero,22d0 <alt_dcache_flush_all+0x14>
    22f0:	0001883a 	nop
    22f4:	0001883a 	nop
    22f8:	e037883a 	mov	sp,fp
    22fc:	df000017 	ldw	fp,0(sp)
    2300:	dec00104 	addi	sp,sp,4
    2304:	f800283a 	ret

00002308 <alt_load_section>:
    2308:	defffc04 	addi	sp,sp,-16
    230c:	df000315 	stw	fp,12(sp)
    2310:	df000304 	addi	fp,sp,12
    2314:	e13fff15 	stw	r4,-4(fp)
    2318:	e17ffe15 	stw	r5,-8(fp)
    231c:	e1bffd15 	stw	r6,-12(fp)
    2320:	e0fffe17 	ldw	r3,-8(fp)
    2324:	e0bfff17 	ldw	r2,-4(fp)
    2328:	18800c26 	beq	r3,r2,235c <alt_load_section+0x54>
    232c:	00000806 	br	2350 <alt_load_section+0x48>
    2330:	e0ffff17 	ldw	r3,-4(fp)
    2334:	18800104 	addi	r2,r3,4
    2338:	e0bfff15 	stw	r2,-4(fp)
    233c:	e0bffe17 	ldw	r2,-8(fp)
    2340:	11000104 	addi	r4,r2,4
    2344:	e13ffe15 	stw	r4,-8(fp)
    2348:	18c00017 	ldw	r3,0(r3)
    234c:	10c00015 	stw	r3,0(r2)
    2350:	e0fffe17 	ldw	r3,-8(fp)
    2354:	e0bffd17 	ldw	r2,-12(fp)
    2358:	18bff51e 	bne	r3,r2,2330 <alt_load_section+0x28>
    235c:	0001883a 	nop
    2360:	e037883a 	mov	sp,fp
    2364:	df000017 	ldw	fp,0(sp)
    2368:	dec00104 	addi	sp,sp,4
    236c:	f800283a 	ret

00002370 <alt_load>:
    2370:	defffe04 	addi	sp,sp,-8
    2374:	dfc00115 	stw	ra,4(sp)
    2378:	df000015 	stw	fp,0(sp)
    237c:	d839883a 	mov	fp,sp
    2380:	01800034 	movhi	r6,0
    2384:	31999a04 	addi	r6,r6,26216
    2388:	01400034 	movhi	r5,0
    238c:	2958d104 	addi	r5,r5,25412
    2390:	01000034 	movhi	r4,0
    2394:	21199a04 	addi	r4,r4,26216
    2398:	00023080 	call	2308 <alt_load_section>
    239c:	01800034 	movhi	r6,0
    23a0:	31808e04 	addi	r6,r6,568
    23a4:	01400034 	movhi	r5,0
    23a8:	29400804 	addi	r5,r5,32
    23ac:	01000034 	movhi	r4,0
    23b0:	21000804 	addi	r4,r4,32
    23b4:	00023080 	call	2308 <alt_load_section>
    23b8:	01800034 	movhi	r6,0
    23bc:	3198d104 	addi	r6,r6,25412
    23c0:	01400034 	movhi	r5,0
    23c4:	29571904 	addi	r5,r5,23652
    23c8:	01000034 	movhi	r4,0
    23cc:	21171904 	addi	r4,r4,23652
    23d0:	00023080 	call	2308 <alt_load_section>
    23d4:	00022bc0 	call	22bc <alt_dcache_flush_all>
    23d8:	0004c980 	call	4c98 <alt_icache_flush_all>
    23dc:	0001883a 	nop
    23e0:	e037883a 	mov	sp,fp
    23e4:	dfc00117 	ldw	ra,4(sp)
    23e8:	df000017 	ldw	fp,0(sp)
    23ec:	dec00204 	addi	sp,sp,8
    23f0:	f800283a 	ret

000023f4 <alt_main>:
    23f4:	defffd04 	addi	sp,sp,-12
    23f8:	dfc00215 	stw	ra,8(sp)
    23fc:	df000115 	stw	fp,4(sp)
    2400:	df000104 	addi	fp,sp,4
    2404:	0009883a 	mov	r4,zero
    2408:	00027c40 	call	27c4 <alt_irq_init>
    240c:	0001883a 	nop
    2410:	00028000 	call	2800 <alt_sys_init>
    2414:	01800034 	movhi	r6,0
    2418:	3198ba04 	addi	r6,r6,25320
    241c:	01400034 	movhi	r5,0
    2420:	2958ba04 	addi	r5,r5,25320
    2424:	01000034 	movhi	r4,0
    2428:	2118ba04 	addi	r4,r4,25320
    242c:	000502c0 	call	502c <alt_io_redirect>
    2430:	0004b400 	call	4b40 <_do_ctors>
    2434:	01000034 	movhi	r4,0
    2438:	2112e904 	addi	r4,r4,19364
    243c:	00058bc0 	call	58bc <atexit>
    2440:	d0a0d817 	ldw	r2,-31904(gp)
    2444:	d0e0d917 	ldw	r3,-31900(gp)
    2448:	d120da17 	ldw	r4,-31896(gp)
    244c:	200d883a 	mov	r6,r4
    2450:	180b883a 	mov	r5,r3
    2454:	1009883a 	mov	r4,r2
    2458:	000125c0 	call	125c <main>
    245c:	e0bfff15 	stw	r2,-4(fp)
    2460:	01000044 	movi	r4,1
    2464:	00049540 	call	4954 <close>
    2468:	e13fff17 	ldw	r4,-4(fp)
    246c:	00058d00 	call	58d0 <exit>

00002470 <alt_alarm_stop>:
    2470:	defffa04 	addi	sp,sp,-24
    2474:	df000515 	stw	fp,20(sp)
    2478:	df000504 	addi	fp,sp,20
    247c:	e13ffb15 	stw	r4,-20(fp)
    2480:	0005303a 	rdctl	r2,status
    2484:	e0bffc15 	stw	r2,-16(fp)
    2488:	e0fffc17 	ldw	r3,-16(fp)
    248c:	00bfff84 	movi	r2,-2
    2490:	1884703a 	and	r2,r3,r2
    2494:	1001703a 	wrctl	status,r2
    2498:	e0bffc17 	ldw	r2,-16(fp)
    249c:	e0bfff15 	stw	r2,-4(fp)
    24a0:	e0bffb17 	ldw	r2,-20(fp)
    24a4:	e0bffd15 	stw	r2,-12(fp)
    24a8:	e0bffd17 	ldw	r2,-12(fp)
    24ac:	10800017 	ldw	r2,0(r2)
    24b0:	e0fffd17 	ldw	r3,-12(fp)
    24b4:	18c00117 	ldw	r3,4(r3)
    24b8:	10c00115 	stw	r3,4(r2)
    24bc:	e0bffd17 	ldw	r2,-12(fp)
    24c0:	10800117 	ldw	r2,4(r2)
    24c4:	e0fffd17 	ldw	r3,-12(fp)
    24c8:	18c00017 	ldw	r3,0(r3)
    24cc:	10c00015 	stw	r3,0(r2)
    24d0:	e0bffd17 	ldw	r2,-12(fp)
    24d4:	e0fffd17 	ldw	r3,-12(fp)
    24d8:	10c00115 	stw	r3,4(r2)
    24dc:	e0bffd17 	ldw	r2,-12(fp)
    24e0:	e0fffd17 	ldw	r3,-12(fp)
    24e4:	10c00015 	stw	r3,0(r2)
    24e8:	0001883a 	nop
    24ec:	e0bfff17 	ldw	r2,-4(fp)
    24f0:	e0bffe15 	stw	r2,-8(fp)
    24f4:	e0bffe17 	ldw	r2,-8(fp)
    24f8:	1001703a 	wrctl	status,r2
    24fc:	0001883a 	nop
    2500:	0001883a 	nop
    2504:	e037883a 	mov	sp,fp
    2508:	df000017 	ldw	fp,0(sp)
    250c:	dec00104 	addi	sp,sp,4
    2510:	f800283a 	ret

00002514 <alt_tick>:
    2514:	defffb04 	addi	sp,sp,-20
    2518:	dfc00415 	stw	ra,16(sp)
    251c:	df000315 	stw	fp,12(sp)
    2520:	df000304 	addi	fp,sp,12
    2524:	d0a00217 	ldw	r2,-32760(gp)
    2528:	e0bfff15 	stw	r2,-4(fp)
    252c:	d0a0dc17 	ldw	r2,-31888(gp)
    2530:	10800044 	addi	r2,r2,1
    2534:	d0a0dc15 	stw	r2,-31888(gp)
    2538:	00002e06 	br	25f4 <alt_tick+0xe0>
    253c:	e0bfff17 	ldw	r2,-4(fp)
    2540:	10800017 	ldw	r2,0(r2)
    2544:	e0bffe15 	stw	r2,-8(fp)
    2548:	e0bfff17 	ldw	r2,-4(fp)
    254c:	10800403 	ldbu	r2,16(r2)
    2550:	10803fcc 	andi	r2,r2,255
    2554:	10000426 	beq	r2,zero,2568 <alt_tick+0x54>
    2558:	d0a0dc17 	ldw	r2,-31888(gp)
    255c:	1000021e 	bne	r2,zero,2568 <alt_tick+0x54>
    2560:	e0bfff17 	ldw	r2,-4(fp)
    2564:	10000405 	stb	zero,16(r2)
    2568:	e0bfff17 	ldw	r2,-4(fp)
    256c:	10800217 	ldw	r2,8(r2)
    2570:	d0e0dc17 	ldw	r3,-31888(gp)
    2574:	18801d36 	bltu	r3,r2,25ec <alt_tick+0xd8>
    2578:	e0bfff17 	ldw	r2,-4(fp)
    257c:	10800403 	ldbu	r2,16(r2)
    2580:	10803fcc 	andi	r2,r2,255
    2584:	1000191e 	bne	r2,zero,25ec <alt_tick+0xd8>
    2588:	e0bfff17 	ldw	r2,-4(fp)
    258c:	10800317 	ldw	r2,12(r2)
    2590:	e0ffff17 	ldw	r3,-4(fp)
    2594:	18c00517 	ldw	r3,20(r3)
    2598:	1809883a 	mov	r4,r3
    259c:	103ee83a 	callr	r2
    25a0:	e0bffd15 	stw	r2,-12(fp)
    25a4:	e0bffd17 	ldw	r2,-12(fp)
    25a8:	1000031e 	bne	r2,zero,25b8 <alt_tick+0xa4>
    25ac:	e13fff17 	ldw	r4,-4(fp)
    25b0:	00024700 	call	2470 <alt_alarm_stop>
    25b4:	00000d06 	br	25ec <alt_tick+0xd8>
    25b8:	e0bfff17 	ldw	r2,-4(fp)
    25bc:	10c00217 	ldw	r3,8(r2)
    25c0:	e0bffd17 	ldw	r2,-12(fp)
    25c4:	1887883a 	add	r3,r3,r2
    25c8:	e0bfff17 	ldw	r2,-4(fp)
    25cc:	10c00215 	stw	r3,8(r2)
    25d0:	e0bfff17 	ldw	r2,-4(fp)
    25d4:	10c00217 	ldw	r3,8(r2)
    25d8:	d0a0dc17 	ldw	r2,-31888(gp)
    25dc:	1880032e 	bgeu	r3,r2,25ec <alt_tick+0xd8>
    25e0:	e0bfff17 	ldw	r2,-4(fp)
    25e4:	00c00044 	movi	r3,1
    25e8:	10c00405 	stb	r3,16(r2)
    25ec:	e0bffe17 	ldw	r2,-8(fp)
    25f0:	e0bfff15 	stw	r2,-4(fp)
    25f4:	e0ffff17 	ldw	r3,-4(fp)
    25f8:	d0a00204 	addi	r2,gp,-32760
    25fc:	18bfcf1e 	bne	r3,r2,253c <alt_tick+0x28>
    2600:	0001883a 	nop
    2604:	0001883a 	nop
    2608:	e037883a 	mov	sp,fp
    260c:	dfc00117 	ldw	ra,4(sp)
    2610:	df000017 	ldw	fp,0(sp)
    2614:	dec00204 	addi	sp,sp,8
    2618:	f800283a 	ret

0000261c <usleep>:
    261c:	defffd04 	addi	sp,sp,-12
    2620:	dfc00215 	stw	ra,8(sp)
    2624:	df000115 	stw	fp,4(sp)
    2628:	df000104 	addi	fp,sp,4
    262c:	e13fff15 	stw	r4,-4(fp)
    2630:	e13fff17 	ldw	r4,-4(fp)
    2634:	00047b40 	call	47b4 <alt_busy_sleep>
    2638:	e037883a 	mov	sp,fp
    263c:	dfc00117 	ldw	ra,4(sp)
    2640:	df000017 	ldw	fp,0(sp)
    2644:	dec00204 	addi	sp,sp,8
    2648:	f800283a 	ret

0000264c <alt_get_errno>:
    264c:	defffe04 	addi	sp,sp,-8
    2650:	dfc00115 	stw	ra,4(sp)
    2654:	df000015 	stw	fp,0(sp)
    2658:	d839883a 	mov	fp,sp
    265c:	00800034 	movhi	r2,0
    2660:	10999817 	ldw	r2,26208(r2)
    2664:	10000426 	beq	r2,zero,2678 <alt_get_errno+0x2c>
    2668:	00800034 	movhi	r2,0
    266c:	10999817 	ldw	r2,26208(r2)
    2670:	103ee83a 	callr	r2
    2674:	00000206 	br	2680 <alt_get_errno+0x34>
    2678:	00800034 	movhi	r2,0
    267c:	109a6404 	addi	r2,r2,27024
    2680:	e037883a 	mov	sp,fp
    2684:	dfc00117 	ldw	ra,4(sp)
    2688:	df000017 	ldw	fp,0(sp)
    268c:	dec00204 	addi	sp,sp,8
    2690:	f800283a 	ret

00002694 <write>:
    2694:	defff904 	addi	sp,sp,-28
    2698:	dfc00615 	stw	ra,24(sp)
    269c:	df000515 	stw	fp,20(sp)
    26a0:	df000504 	addi	fp,sp,20
    26a4:	e13ffd15 	stw	r4,-12(fp)
    26a8:	e17ffc15 	stw	r5,-16(fp)
    26ac:	e1bffb15 	stw	r6,-20(fp)
    26b0:	e0bffd17 	ldw	r2,-12(fp)
    26b4:	10000616 	blt	r2,zero,26d0 <write+0x3c>
    26b8:	e0bffd17 	ldw	r2,-12(fp)
    26bc:	10c00324 	muli	r3,r2,12
    26c0:	00800034 	movhi	r2,0
    26c4:	10992d04 	addi	r2,r2,25780
    26c8:	1885883a 	add	r2,r3,r2
    26cc:	00000106 	br	26d4 <write+0x40>
    26d0:	0005883a 	mov	r2,zero
    26d4:	e0bfff15 	stw	r2,-4(fp)
    26d8:	e0bfff17 	ldw	r2,-4(fp)
    26dc:	10002126 	beq	r2,zero,2764 <write+0xd0>
    26e0:	e0bfff17 	ldw	r2,-4(fp)
    26e4:	10800217 	ldw	r2,8(r2)
    26e8:	108000cc 	andi	r2,r2,3
    26ec:	10001826 	beq	r2,zero,2750 <write+0xbc>
    26f0:	e0bfff17 	ldw	r2,-4(fp)
    26f4:	10800017 	ldw	r2,0(r2)
    26f8:	10800617 	ldw	r2,24(r2)
    26fc:	10001426 	beq	r2,zero,2750 <write+0xbc>
    2700:	e0bfff17 	ldw	r2,-4(fp)
    2704:	10800017 	ldw	r2,0(r2)
    2708:	10800617 	ldw	r2,24(r2)
    270c:	e0fffb17 	ldw	r3,-20(fp)
    2710:	180d883a 	mov	r6,r3
    2714:	e17ffc17 	ldw	r5,-16(fp)
    2718:	e13fff17 	ldw	r4,-4(fp)
    271c:	103ee83a 	callr	r2
    2720:	e0bffe15 	stw	r2,-8(fp)
    2724:	e0bffe17 	ldw	r2,-8(fp)
    2728:	1000070e 	bge	r2,zero,2748 <write+0xb4>
    272c:	000264c0 	call	264c <alt_get_errno>
    2730:	1007883a 	mov	r3,r2
    2734:	e0bffe17 	ldw	r2,-8(fp)
    2738:	0085c83a 	sub	r2,zero,r2
    273c:	18800015 	stw	r2,0(r3)
    2740:	00bfffc4 	movi	r2,-1
    2744:	00000c06 	br	2778 <write+0xe4>
    2748:	e0bffe17 	ldw	r2,-8(fp)
    274c:	00000a06 	br	2778 <write+0xe4>
    2750:	000264c0 	call	264c <alt_get_errno>
    2754:	1007883a 	mov	r3,r2
    2758:	00800344 	movi	r2,13
    275c:	18800015 	stw	r2,0(r3)
    2760:	00000406 	br	2774 <write+0xe0>
    2764:	000264c0 	call	264c <alt_get_errno>
    2768:	1007883a 	mov	r3,r2
    276c:	00801444 	movi	r2,81
    2770:	18800015 	stw	r2,0(r3)
    2774:	00bfffc4 	movi	r2,-1
    2778:	e037883a 	mov	sp,fp
    277c:	dfc00117 	ldw	ra,4(sp)
    2780:	df000017 	ldw	fp,0(sp)
    2784:	dec00204 	addi	sp,sp,8
    2788:	f800283a 	ret

0000278c <alt_dev_reg>:
    278c:	defffd04 	addi	sp,sp,-12
    2790:	dfc00215 	stw	ra,8(sp)
    2794:	df000115 	stw	fp,4(sp)
    2798:	df000104 	addi	fp,sp,4
    279c:	e13fff15 	stw	r4,-4(fp)
    27a0:	01400034 	movhi	r5,0
    27a4:	29599504 	addi	r5,r5,26196
    27a8:	e13fff17 	ldw	r4,-4(fp)
    27ac:	0004a980 	call	4a98 <alt_dev_llist_insert>
    27b0:	e037883a 	mov	sp,fp
    27b4:	dfc00117 	ldw	ra,4(sp)
    27b8:	df000017 	ldw	fp,0(sp)
    27bc:	dec00204 	addi	sp,sp,8
    27c0:	f800283a 	ret

000027c4 <alt_irq_init>:
    27c4:	defffd04 	addi	sp,sp,-12
    27c8:	dfc00215 	stw	ra,8(sp)
    27cc:	df000115 	stw	fp,4(sp)
    27d0:	df000104 	addi	fp,sp,4
    27d4:	e13fff15 	stw	r4,-4(fp)
    27d8:	00055b80 	call	55b8 <altera_nios2_gen2_irq_init>
    27dc:	00800044 	movi	r2,1
    27e0:	1001703a 	wrctl	status,r2
    27e4:	0001883a 	nop
    27e8:	0001883a 	nop
    27ec:	e037883a 	mov	sp,fp
    27f0:	dfc00117 	ldw	ra,4(sp)
    27f4:	df000017 	ldw	fp,0(sp)
    27f8:	dec00204 	addi	sp,sp,8
    27fc:	f800283a 	ret

00002800 <alt_sys_init>:
    2800:	defffe04 	addi	sp,sp,-8
    2804:	dfc00115 	stw	ra,4(sp)
    2808:	df000015 	stw	fp,0(sp)
    280c:	d839883a 	mov	fp,sp
    2810:	01c0fa04 	movi	r7,1000
    2814:	01800044 	movi	r6,1
    2818:	000b883a 	mov	r5,zero
    281c:	010000b4 	movhi	r4,2
    2820:	21000804 	addi	r4,r4,32
    2824:	00047280 	call	4728 <alt_avalon_timer_sc_init>
    2828:	01000034 	movhi	r4,0
    282c:	21190a04 	addi	r4,r4,25640
    2830:	0002aac0 	call	2aac <alt_avalon_i2c_init>
    2834:	01000034 	movhi	r4,0
    2838:	21191804 	addi	r4,r4,25696
    283c:	000278c0 	call	278c <alt_dev_reg>
    2840:	0001883a 	nop
    2844:	e037883a 	mov	sp,fp
    2848:	dfc00117 	ldw	ra,4(sp)
    284c:	df000017 	ldw	fp,0(sp)
    2850:	dec00204 	addi	sp,sp,8
    2854:	f800283a 	ret

00002858 <optional_irq_callback>:
    2858:	defff904 	addi	sp,sp,-28
    285c:	dfc00615 	stw	ra,24(sp)
    2860:	df000515 	stw	fp,20(sp)
    2864:	df000504 	addi	fp,sp,20
    2868:	e13ffb15 	stw	r4,-20(fp)
    286c:	008000b4 	movhi	r2,2
    2870:	10a1a804 	addi	r2,r2,-31072
    2874:	e0bfff15 	stw	r2,-4(fp)
    2878:	e0bffb17 	ldw	r2,-20(fp)
    287c:	e0bffe15 	stw	r2,-8(fp)
    2880:	e0bffe17 	ldw	r2,-8(fp)
    2884:	10800717 	ldw	r2,28(r2)
    2888:	e0bffd15 	stw	r2,-12(fp)
    288c:	e0bffd17 	ldw	r2,-12(fp)
    2890:	10800217 	ldw	r2,8(r2)
    2894:	10800098 	cmpnei	r2,r2,2
    2898:	1000251e 	bne	r2,zero,2930 <optional_irq_callback+0xd8>
    289c:	e0bffd17 	ldw	r2,-12(fp)
    28a0:	10c00017 	ldw	r3,0(r2)
    28a4:	e0bffd17 	ldw	r2,-12(fp)
    28a8:	10800117 	ldw	r2,4(r2)
    28ac:	e13ffc04 	addi	r4,fp,-16
    28b0:	200f883a 	mov	r7,r4
    28b4:	100d883a 	mov	r6,r2
    28b8:	180b883a 	mov	r5,r3
    28bc:	e13ffe17 	ldw	r4,-8(fp)
    28c0:	000300c0 	call	300c <alt_avalon_i2c_rx_read_available>
    28c4:	e0bffd17 	ldw	r2,-12(fp)
    28c8:	10c00117 	ldw	r3,4(r2)
    28cc:	e0bffc17 	ldw	r2,-16(fp)
    28d0:	1887c83a 	sub	r3,r3,r2
    28d4:	e0bffd17 	ldw	r2,-12(fp)
    28d8:	10c00115 	stw	r3,4(r2)
    28dc:	e0bffd17 	ldw	r2,-12(fp)
    28e0:	10c00017 	ldw	r3,0(r2)
    28e4:	e0bffc17 	ldw	r2,-16(fp)
    28e8:	1887883a 	add	r3,r3,r2
    28ec:	e0bffd17 	ldw	r2,-12(fp)
    28f0:	10c00015 	stw	r3,0(r2)
    28f4:	e0bffd17 	ldw	r2,-12(fp)
    28f8:	10800117 	ldw	r2,4(r2)
    28fc:	10000c26 	beq	r2,zero,2930 <optional_irq_callback+0xd8>
    2900:	01400704 	movi	r5,28
    2904:	e13ffe17 	ldw	r4,-8(fp)
    2908:	00041b80 	call	41b8 <alt_avalon_i2c_int_clear>
    290c:	01400084 	movi	r5,2
    2910:	e13ffe17 	ldw	r4,-8(fp)
    2914:	00042600 	call	4260 <alt_avalon_i2c_int_enable>
    2918:	00000e06 	br	2954 <optional_irq_callback+0xfc>
    291c:	e0bfff17 	ldw	r2,-4(fp)
    2920:	10bfffc4 	addi	r2,r2,-1
    2924:	e0bfff15 	stw	r2,-4(fp)
    2928:	e0bfff17 	ldw	r2,-4(fp)
    292c:	10000426 	beq	r2,zero,2940 <optional_irq_callback+0xe8>
    2930:	e13ffe17 	ldw	r4,-8(fp)
    2934:	0002fc80 	call	2fc8 <alt_avalon_i2c_is_busy>
    2938:	103ff81e 	bne	r2,zero,291c <optional_irq_callback+0xc4>
    293c:	00000106 	br	2944 <optional_irq_callback+0xec>
    2940:	0001883a 	nop
    2944:	e13ffe17 	ldw	r4,-8(fp)
    2948:	0002c700 	call	2c70 <alt_avalon_i2c_disable>
    294c:	e0bffd17 	ldw	r2,-12(fp)
    2950:	10000215 	stw	zero,8(r2)
    2954:	e037883a 	mov	sp,fp
    2958:	dfc00117 	ldw	ra,4(sp)
    295c:	df000017 	ldw	fp,0(sp)
    2960:	dec00204 	addi	sp,sp,8
    2964:	f800283a 	ret

00002968 <alt_avalon_i2c_register_optional_irq_handler>:
    2968:	defffc04 	addi	sp,sp,-16
    296c:	dfc00315 	stw	ra,12(sp)
    2970:	df000215 	stw	fp,8(sp)
    2974:	df000204 	addi	fp,sp,8
    2978:	e13fff15 	stw	r4,-4(fp)
    297c:	e17ffe15 	stw	r5,-8(fp)
    2980:	e0bffe17 	ldw	r2,-8(fp)
    2984:	10000215 	stw	zero,8(r2)
    2988:	e1fffe17 	ldw	r7,-8(fp)
    298c:	000d883a 	mov	r6,zero
    2990:	01400034 	movhi	r5,0
    2994:	294a1604 	addi	r5,r5,10328
    2998:	e13fff17 	ldw	r4,-4(fp)
    299c:	0002a580 	call	2a58 <alt_avalon_i2c_register_callback>
    29a0:	0001883a 	nop
    29a4:	e037883a 	mov	sp,fp
    29a8:	dfc00117 	ldw	ra,4(sp)
    29ac:	df000017 	ldw	fp,0(sp)
    29b0:	dec00204 	addi	sp,sp,8
    29b4:	f800283a 	ret

000029b8 <alt_avalon_i2c_irq>:
    29b8:	defff904 	addi	sp,sp,-28
    29bc:	dfc00615 	stw	ra,24(sp)
    29c0:	df000515 	stw	fp,20(sp)
    29c4:	df000504 	addi	fp,sp,20
    29c8:	e13ffb15 	stw	r4,-20(fp)
    29cc:	e0bffb17 	ldw	r2,-20(fp)
    29d0:	e0bfff15 	stw	r2,-4(fp)
    29d4:	014007c4 	movi	r5,31
    29d8:	e13fff17 	ldw	r4,-4(fp)
    29dc:	00041f40 	call	41f4 <alt_avalon_i2c_int_disable>
    29e0:	01400704 	movi	r5,28
    29e4:	e13fff17 	ldw	r4,-4(fp)
    29e8:	00041b80 	call	41b8 <alt_avalon_i2c_int_clear>
    29ec:	e0bfff17 	ldw	r2,-4(fp)
    29f0:	10800617 	ldw	r2,24(r2)
    29f4:	10001226 	beq	r2,zero,2a40 <alt_avalon_i2c_irq+0x88>
    29f8:	0005303a 	rdctl	r2,status
    29fc:	e0bffc15 	stw	r2,-16(fp)
    2a00:	e0fffc17 	ldw	r3,-16(fp)
    2a04:	00bfff84 	movi	r2,-2
    2a08:	1884703a 	and	r2,r3,r2
    2a0c:	1001703a 	wrctl	status,r2
    2a10:	e0bffc17 	ldw	r2,-16(fp)
    2a14:	e0bffe15 	stw	r2,-8(fp)
    2a18:	e0bfff17 	ldw	r2,-4(fp)
    2a1c:	10800617 	ldw	r2,24(r2)
    2a20:	e13fff17 	ldw	r4,-4(fp)
    2a24:	103ee83a 	callr	r2
    2a28:	e0bffe17 	ldw	r2,-8(fp)
    2a2c:	e0bffd15 	stw	r2,-12(fp)
    2a30:	e0bffd17 	ldw	r2,-12(fp)
    2a34:	1001703a 	wrctl	status,r2
    2a38:	0001883a 	nop
    2a3c:	0001883a 	nop
    2a40:	0001883a 	nop
    2a44:	e037883a 	mov	sp,fp
    2a48:	dfc00117 	ldw	ra,4(sp)
    2a4c:	df000017 	ldw	fp,0(sp)
    2a50:	dec00204 	addi	sp,sp,8
    2a54:	f800283a 	ret

00002a58 <alt_avalon_i2c_register_callback>:
    2a58:	defffb04 	addi	sp,sp,-20
    2a5c:	df000415 	stw	fp,16(sp)
    2a60:	df000404 	addi	fp,sp,16
    2a64:	e13fff15 	stw	r4,-4(fp)
    2a68:	e17ffe15 	stw	r5,-8(fp)
    2a6c:	e1bffd15 	stw	r6,-12(fp)
    2a70:	e1fffc15 	stw	r7,-16(fp)
    2a74:	e0bfff17 	ldw	r2,-4(fp)
    2a78:	e0fffe17 	ldw	r3,-8(fp)
    2a7c:	10c00615 	stw	r3,24(r2)
    2a80:	e0bfff17 	ldw	r2,-4(fp)
    2a84:	e0fffc17 	ldw	r3,-16(fp)
    2a88:	10c00715 	stw	r3,28(r2)
    2a8c:	e0bfff17 	ldw	r2,-4(fp)
    2a90:	e0fffd17 	ldw	r3,-12(fp)
    2a94:	10c00815 	stw	r3,32(r2)
    2a98:	0001883a 	nop
    2a9c:	e037883a 	mov	sp,fp
    2aa0:	df000017 	ldw	fp,0(sp)
    2aa4:	dec00104 	addi	sp,sp,4
    2aa8:	f800283a 	ret

00002aac <alt_avalon_i2c_init>:
    2aac:	defff704 	addi	sp,sp,-36
    2ab0:	dfc00815 	stw	ra,32(sp)
    2ab4:	df000715 	stw	fp,28(sp)
    2ab8:	df000704 	addi	fp,sp,28
    2abc:	e13ffa15 	stw	r4,-24(fp)
    2ac0:	e13ffa17 	ldw	r4,-24(fp)
    2ac4:	0002c700 	call	2c70 <alt_avalon_i2c_disable>
    2ac8:	014007c4 	movi	r5,31
    2acc:	e13ffa17 	ldw	r4,-24(fp)
    2ad0:	00041f40 	call	41f4 <alt_avalon_i2c_int_disable>
    2ad4:	01400704 	movi	r5,28
    2ad8:	e13ffa17 	ldw	r4,-24(fp)
    2adc:	00041b80 	call	41b8 <alt_avalon_i2c_int_clear>
    2ae0:	014000c4 	movi	r5,3
    2ae4:	e13ffa17 	ldw	r4,-24(fp)
    2ae8:	00044080 	call	4408 <alt_avalon_i2c_tfr_cmd_fifo_threshold_set>
    2aec:	014000c4 	movi	r5,3
    2af0:	e13ffa17 	ldw	r4,-24(fp)
    2af4:	00043580 	call	4358 <alt_avalon_i2c_rx_fifo_threshold_set>
    2af8:	e03ffc15 	stw	zero,-16(fp)
    2afc:	e03ffb15 	stw	zero,-20(fp)
    2b00:	e0bffb04 	addi	r2,fp,-20
    2b04:	018000b4 	movhi	r6,2
    2b08:	31a1a804 	addi	r6,r6,-31072
    2b0c:	100b883a 	mov	r5,r2
    2b10:	e13ffa17 	ldw	r4,-24(fp)
    2b14:	0002ecc0 	call	2ecc <alt_avalon_i2c_master_config_speed_set>
    2b18:	e0bffb04 	addi	r2,fp,-20
    2b1c:	100b883a 	mov	r5,r2
    2b20:	e13ffa17 	ldw	r4,-24(fp)
    2b24:	0002d6c0 	call	2d6c <alt_avalon_i2c_master_config_set>
    2b28:	d1600404 	addi	r5,gp,-32752
    2b2c:	e13ffa17 	ldw	r4,-24(fp)
    2b30:	0004a980 	call	4a98 <alt_dev_llist_insert>
    2b34:	0005883a 	mov	r2,zero
    2b38:	e0bfff15 	stw	r2,-4(fp)
    2b3c:	e0bfff17 	ldw	r2,-4(fp)
    2b40:	10000c1e 	bne	r2,zero,2b74 <alt_avalon_i2c_init+0xc8>
    2b44:	e0bffa17 	ldw	r2,-24(fp)
    2b48:	10c00417 	ldw	r3,16(r2)
    2b4c:	e0bffa17 	ldw	r2,-24(fp)
    2b50:	10800517 	ldw	r2,20(r2)
    2b54:	d8000015 	stw	zero,0(sp)
    2b58:	e1fffa17 	ldw	r7,-24(fp)
    2b5c:	01800034 	movhi	r6,0
    2b60:	318a6e04 	addi	r6,r6,10680
    2b64:	100b883a 	mov	r5,r2
    2b68:	1809883a 	mov	r4,r3
    2b6c:	0004ccc0 	call	4ccc <alt_ic_isr_register>
    2b70:	00000406 	br	2b84 <alt_avalon_i2c_init+0xd8>
    2b74:	01000034 	movhi	r4,0
    2b78:	2118c604 	addi	r4,r4,25368
    2b7c:	00053040 	call	5304 <alt_printf>
    2b80:	0001883a 	nop
    2b84:	e037883a 	mov	sp,fp
    2b88:	dfc00117 	ldw	ra,4(sp)
    2b8c:	df000017 	ldw	fp,0(sp)
    2b90:	dec00204 	addi	sp,sp,8
    2b94:	f800283a 	ret

00002b98 <alt_avalon_i2c_open>:
    2b98:	defffc04 	addi	sp,sp,-16
    2b9c:	dfc00315 	stw	ra,12(sp)
    2ba0:	df000215 	stw	fp,8(sp)
    2ba4:	df000204 	addi	fp,sp,8
    2ba8:	e13ffe15 	stw	r4,-8(fp)
    2bac:	e03fff15 	stw	zero,-4(fp)
    2bb0:	d1600404 	addi	r5,gp,-32752
    2bb4:	e13ffe17 	ldw	r4,-8(fp)
    2bb8:	0004c080 	call	4c08 <alt_find_dev>
    2bbc:	e0bfff15 	stw	r2,-4(fp)
    2bc0:	e0bfff17 	ldw	r2,-4(fp)
    2bc4:	e037883a 	mov	sp,fp
    2bc8:	dfc00117 	ldw	ra,4(sp)
    2bcc:	df000017 	ldw	fp,0(sp)
    2bd0:	dec00204 	addi	sp,sp,8
    2bd4:	f800283a 	ret

00002bd8 <alt_avalon_i2c_enable>:
    2bd8:	defffc04 	addi	sp,sp,-16
    2bdc:	df000315 	stw	fp,12(sp)
    2be0:	df000304 	addi	fp,sp,12
    2be4:	e13ffd15 	stw	r4,-12(fp)
    2be8:	e0bffd17 	ldw	r2,-12(fp)
    2bec:	10800717 	ldw	r2,28(r2)
    2bf0:	e0bfff15 	stw	r2,-4(fp)
    2bf4:	e0bffd17 	ldw	r2,-12(fp)
    2bf8:	10800317 	ldw	r2,12(r2)
    2bfc:	10800204 	addi	r2,r2,8
    2c00:	10800037 	ldwio	r2,0(r2)
    2c04:	1080004c 	andi	r2,r2,1
    2c08:	e0bffe15 	stw	r2,-8(fp)
    2c0c:	e0bffe17 	ldw	r2,-8(fp)
    2c10:	10000226 	beq	r2,zero,2c1c <alt_avalon_i2c_enable+0x44>
    2c14:	00bffe44 	movi	r2,-7
    2c18:	00001106 	br	2c60 <alt_avalon_i2c_enable+0x88>
    2c1c:	e0bffd17 	ldw	r2,-12(fp)
    2c20:	10c00617 	ldw	r3,24(r2)
    2c24:	00800034 	movhi	r2,0
    2c28:	108a1604 	addi	r2,r2,10328
    2c2c:	1880021e 	bne	r3,r2,2c38 <alt_avalon_i2c_enable+0x60>
    2c30:	e0bfff17 	ldw	r2,-4(fp)
    2c34:	10000215 	stw	zero,8(r2)
    2c38:	e0bffd17 	ldw	r2,-12(fp)
    2c3c:	10800317 	ldw	r2,12(r2)
    2c40:	10800204 	addi	r2,r2,8
    2c44:	e0fffd17 	ldw	r3,-12(fp)
    2c48:	18c00317 	ldw	r3,12(r3)
    2c4c:	18c00204 	addi	r3,r3,8
    2c50:	18c00037 	ldwio	r3,0(r3)
    2c54:	18c00054 	ori	r3,r3,1
    2c58:	10c00035 	stwio	r3,0(r2)
    2c5c:	0005883a 	mov	r2,zero
    2c60:	e037883a 	mov	sp,fp
    2c64:	df000017 	ldw	fp,0(sp)
    2c68:	dec00104 	addi	sp,sp,4
    2c6c:	f800283a 	ret

00002c70 <alt_avalon_i2c_disable>:
    2c70:	defffe04 	addi	sp,sp,-8
    2c74:	df000115 	stw	fp,4(sp)
    2c78:	df000104 	addi	fp,sp,4
    2c7c:	e13fff15 	stw	r4,-4(fp)
    2c80:	e0bfff17 	ldw	r2,-4(fp)
    2c84:	10800317 	ldw	r2,12(r2)
    2c88:	10800204 	addi	r2,r2,8
    2c8c:	e0ffff17 	ldw	r3,-4(fp)
    2c90:	18c00317 	ldw	r3,12(r3)
    2c94:	18c00204 	addi	r3,r3,8
    2c98:	19000037 	ldwio	r4,0(r3)
    2c9c:	00ffff84 	movi	r3,-2
    2ca0:	20c6703a 	and	r3,r4,r3
    2ca4:	10c00035 	stwio	r3,0(r2)
    2ca8:	0001883a 	nop
    2cac:	e037883a 	mov	sp,fp
    2cb0:	df000017 	ldw	fp,0(sp)
    2cb4:	dec00104 	addi	sp,sp,4
    2cb8:	f800283a 	ret

00002cbc <alt_avalon_i2c_master_config_get>:
    2cbc:	defffd04 	addi	sp,sp,-12
    2cc0:	df000215 	stw	fp,8(sp)
    2cc4:	df000204 	addi	fp,sp,8
    2cc8:	e13fff15 	stw	r4,-4(fp)
    2ccc:	e17ffe15 	stw	r5,-8(fp)
    2cd0:	e0bfff17 	ldw	r2,-4(fp)
    2cd4:	10c00d17 	ldw	r3,52(r2)
    2cd8:	e0bffe17 	ldw	r2,-8(fp)
    2cdc:	10c00015 	stw	r3,0(r2)
    2ce0:	e0bfff17 	ldw	r2,-4(fp)
    2ce4:	10800317 	ldw	r2,12(r2)
    2ce8:	10800204 	addi	r2,r2,8
    2cec:	10800037 	ldwio	r2,0(r2)
    2cf0:	1005d07a 	srai	r2,r2,1
    2cf4:	1080004c 	andi	r2,r2,1
    2cf8:	1007883a 	mov	r3,r2
    2cfc:	e0bffe17 	ldw	r2,-8(fp)
    2d00:	10c00115 	stw	r3,4(r2)
    2d04:	e0bfff17 	ldw	r2,-4(fp)
    2d08:	10800317 	ldw	r2,12(r2)
    2d0c:	10800904 	addi	r2,r2,36
    2d10:	10800037 	ldwio	r2,0(r2)
    2d14:	1007883a 	mov	r3,r2
    2d18:	e0bffe17 	ldw	r2,-8(fp)
    2d1c:	10c0020d 	sth	r3,8(r2)
    2d20:	e0bfff17 	ldw	r2,-4(fp)
    2d24:	10800317 	ldw	r2,12(r2)
    2d28:	10800804 	addi	r2,r2,32
    2d2c:	10800037 	ldwio	r2,0(r2)
    2d30:	1007883a 	mov	r3,r2
    2d34:	e0bffe17 	ldw	r2,-8(fp)
    2d38:	10c0028d 	sth	r3,10(r2)
    2d3c:	e0bfff17 	ldw	r2,-4(fp)
    2d40:	10800317 	ldw	r2,12(r2)
    2d44:	10800a04 	addi	r2,r2,40
    2d48:	10800037 	ldwio	r2,0(r2)
    2d4c:	1007883a 	mov	r3,r2
    2d50:	e0bffe17 	ldw	r2,-8(fp)
    2d54:	10c0030d 	sth	r3,12(r2)
    2d58:	0001883a 	nop
    2d5c:	e037883a 	mov	sp,fp
    2d60:	df000017 	ldw	fp,0(sp)
    2d64:	dec00104 	addi	sp,sp,4
    2d68:	f800283a 	ret

00002d6c <alt_avalon_i2c_master_config_set>:
    2d6c:	defffd04 	addi	sp,sp,-12
    2d70:	df000215 	stw	fp,8(sp)
    2d74:	df000204 	addi	fp,sp,8
    2d78:	e13fff15 	stw	r4,-4(fp)
    2d7c:	e17ffe15 	stw	r5,-8(fp)
    2d80:	e0bffe17 	ldw	r2,-8(fp)
    2d84:	10c00017 	ldw	r3,0(r2)
    2d88:	e0bfff17 	ldw	r2,-4(fp)
    2d8c:	10c00d15 	stw	r3,52(r2)
    2d90:	e0bfff17 	ldw	r2,-4(fp)
    2d94:	10800317 	ldw	r2,12(r2)
    2d98:	10c00204 	addi	r3,r2,8
    2d9c:	e0bfff17 	ldw	r2,-4(fp)
    2da0:	10800317 	ldw	r2,12(r2)
    2da4:	10800204 	addi	r2,r2,8
    2da8:	10800037 	ldwio	r2,0(r2)
    2dac:	1009883a 	mov	r4,r2
    2db0:	00bfff44 	movi	r2,-3
    2db4:	2088703a 	and	r4,r4,r2
    2db8:	e0bffe17 	ldw	r2,-8(fp)
    2dbc:	10800117 	ldw	r2,4(r2)
    2dc0:	1085883a 	add	r2,r2,r2
    2dc4:	1080008c 	andi	r2,r2,2
    2dc8:	2084b03a 	or	r2,r4,r2
    2dcc:	18800035 	stwio	r2,0(r3)
    2dd0:	e0bfff17 	ldw	r2,-4(fp)
    2dd4:	10800317 	ldw	r2,12(r2)
    2dd8:	10800904 	addi	r2,r2,36
    2ddc:	e0fffe17 	ldw	r3,-8(fp)
    2de0:	18c0020b 	ldhu	r3,8(r3)
    2de4:	18ffffcc 	andi	r3,r3,65535
    2de8:	10c00035 	stwio	r3,0(r2)
    2dec:	e0bfff17 	ldw	r2,-4(fp)
    2df0:	10800317 	ldw	r2,12(r2)
    2df4:	10800804 	addi	r2,r2,32
    2df8:	e0fffe17 	ldw	r3,-8(fp)
    2dfc:	18c0028b 	ldhu	r3,10(r3)
    2e00:	18ffffcc 	andi	r3,r3,65535
    2e04:	10c00035 	stwio	r3,0(r2)
    2e08:	e0bfff17 	ldw	r2,-4(fp)
    2e0c:	10800317 	ldw	r2,12(r2)
    2e10:	10800a04 	addi	r2,r2,40
    2e14:	e0fffe17 	ldw	r3,-8(fp)
    2e18:	18c0030b 	ldhu	r3,12(r3)
    2e1c:	18ffffcc 	andi	r3,r3,65535
    2e20:	10c00035 	stwio	r3,0(r2)
    2e24:	0001883a 	nop
    2e28:	e037883a 	mov	sp,fp
    2e2c:	df000017 	ldw	fp,0(sp)
    2e30:	dec00104 	addi	sp,sp,4
    2e34:	f800283a 	ret

00002e38 <alt_avalon_i2c_master_config_speed_get>:
    2e38:	defffb04 	addi	sp,sp,-20
    2e3c:	dfc00415 	stw	ra,16(sp)
    2e40:	df000315 	stw	fp,12(sp)
    2e44:	df000304 	addi	fp,sp,12
    2e48:	e13fff15 	stw	r4,-4(fp)
    2e4c:	e17ffe15 	stw	r5,-8(fp)
    2e50:	e1bffd15 	stw	r6,-12(fp)
    2e54:	e0bffe17 	ldw	r2,-8(fp)
    2e58:	1080028b 	ldhu	r2,10(r2)
    2e5c:	10bfffcc 	andi	r2,r2,65535
    2e60:	10000426 	beq	r2,zero,2e74 <alt_avalon_i2c_master_config_speed_get+0x3c>
    2e64:	e0bffe17 	ldw	r2,-8(fp)
    2e68:	1080020b 	ldhu	r2,8(r2)
    2e6c:	10bfffcc 	andi	r2,r2,65535
    2e70:	1000021e 	bne	r2,zero,2e7c <alt_avalon_i2c_master_config_speed_get+0x44>
    2e74:	00bfff44 	movi	r2,-3
    2e78:	00000f06 	br	2eb8 <alt_avalon_i2c_master_config_speed_get+0x80>
    2e7c:	e0bfff17 	ldw	r2,-4(fp)
    2e80:	11000c17 	ldw	r4,48(r2)
    2e84:	e0bffe17 	ldw	r2,-8(fp)
    2e88:	1080028b 	ldhu	r2,10(r2)
    2e8c:	10ffffcc 	andi	r3,r2,65535
    2e90:	e0bffe17 	ldw	r2,-8(fp)
    2e94:	1080020b 	ldhu	r2,8(r2)
    2e98:	10bfffcc 	andi	r2,r2,65535
    2e9c:	1885883a 	add	r2,r3,r2
    2ea0:	100b883a 	mov	r5,r2
    2ea4:	0001a640 	call	1a64 <__udivsi3>
    2ea8:	1007883a 	mov	r3,r2
    2eac:	e0bffd17 	ldw	r2,-12(fp)
    2eb0:	10c00015 	stw	r3,0(r2)
    2eb4:	0005883a 	mov	r2,zero
    2eb8:	e037883a 	mov	sp,fp
    2ebc:	dfc00117 	ldw	ra,4(sp)
    2ec0:	df000017 	ldw	fp,0(sp)
    2ec4:	dec00204 	addi	sp,sp,8
    2ec8:	f800283a 	ret

00002ecc <alt_avalon_i2c_master_config_speed_set>:
    2ecc:	defff904 	addi	sp,sp,-28
    2ed0:	dfc00615 	stw	ra,24(sp)
    2ed4:	df000515 	stw	fp,20(sp)
    2ed8:	df000504 	addi	fp,sp,20
    2edc:	e13ffd15 	stw	r4,-12(fp)
    2ee0:	e17ffc15 	stw	r5,-16(fp)
    2ee4:	e1bffb15 	stw	r6,-20(fp)
    2ee8:	e0fffb17 	ldw	r3,-20(fp)
    2eec:	008001b4 	movhi	r2,6
    2ef0:	1086a004 	addi	r2,r2,6784
    2ef4:	10c00436 	bltu	r2,r3,2f08 <alt_avalon_i2c_master_config_speed_set+0x3c>
    2ef8:	e0bffb17 	ldw	r2,-20(fp)
    2efc:	10000226 	beq	r2,zero,2f08 <alt_avalon_i2c_master_config_speed_set+0x3c>
    2f00:	e0bffb17 	ldw	r2,-20(fp)
    2f04:	1000021e 	bne	r2,zero,2f10 <alt_avalon_i2c_master_config_speed_set+0x44>
    2f08:	00bfff04 	movi	r2,-4
    2f0c:	00002906 	br	2fb4 <alt_avalon_i2c_master_config_speed_set+0xe8>
    2f10:	e0bffd17 	ldw	r2,-12(fp)
    2f14:	10c00c17 	ldw	r3,48(r2)
    2f18:	e0bffb17 	ldw	r2,-20(fp)
    2f1c:	1085883a 	add	r2,r2,r2
    2f20:	100b883a 	mov	r5,r2
    2f24:	1809883a 	mov	r4,r3
    2f28:	0001a640 	call	1a64 <__udivsi3>
    2f2c:	e0bfff15 	stw	r2,-4(fp)
    2f30:	e0bfff17 	ldw	r2,-4(fp)
    2f34:	10800f04 	addi	r2,r2,60
    2f38:	e0bffe15 	stw	r2,-8(fp)
    2f3c:	e0bfff17 	ldw	r2,-4(fp)
    2f40:	10bff104 	addi	r2,r2,-60
    2f44:	e0bfff15 	stw	r2,-4(fp)
    2f48:	e0fffb17 	ldw	r3,-20(fp)
    2f4c:	008000b4 	movhi	r2,2
    2f50:	10a1a804 	addi	r2,r2,-31072
    2f54:	10c0042e 	bgeu	r2,r3,2f68 <alt_avalon_i2c_master_config_speed_set+0x9c>
    2f58:	e0bffc17 	ldw	r2,-16(fp)
    2f5c:	00c00044 	movi	r3,1
    2f60:	10c00115 	stw	r3,4(r2)
    2f64:	00000206 	br	2f70 <alt_avalon_i2c_master_config_speed_set+0xa4>
    2f68:	e0bffc17 	ldw	r2,-16(fp)
    2f6c:	10000115 	stw	zero,4(r2)
    2f70:	e0bfff17 	ldw	r2,-4(fp)
    2f74:	1007883a 	mov	r3,r2
    2f78:	e0bffc17 	ldw	r2,-16(fp)
    2f7c:	10c0028d 	sth	r3,10(r2)
    2f80:	e0bffe17 	ldw	r2,-8(fp)
    2f84:	1007883a 	mov	r3,r2
    2f88:	e0bffc17 	ldw	r2,-16(fp)
    2f8c:	10c0020d 	sth	r3,8(r2)
    2f90:	e0bfff17 	ldw	r2,-4(fp)
    2f94:	1007883a 	mov	r3,r2
    2f98:	e0bfff17 	ldw	r2,-4(fp)
    2f9c:	1004d07a 	srli	r2,r2,1
    2fa0:	1885c83a 	sub	r2,r3,r2
    2fa4:	1007883a 	mov	r3,r2
    2fa8:	e0bffc17 	ldw	r2,-16(fp)
    2fac:	10c0030d 	sth	r3,12(r2)
    2fb0:	0005883a 	mov	r2,zero
    2fb4:	e037883a 	mov	sp,fp
    2fb8:	dfc00117 	ldw	ra,4(sp)
    2fbc:	df000017 	ldw	fp,0(sp)
    2fc0:	dec00204 	addi	sp,sp,8
    2fc4:	f800283a 	ret

00002fc8 <alt_avalon_i2c_is_busy>:
    2fc8:	defffe04 	addi	sp,sp,-8
    2fcc:	df000115 	stw	fp,4(sp)
    2fd0:	df000104 	addi	fp,sp,4
    2fd4:	e13fff15 	stw	r4,-4(fp)
    2fd8:	e0bfff17 	ldw	r2,-4(fp)
    2fdc:	10800317 	ldw	r2,12(r2)
    2fe0:	10800504 	addi	r2,r2,20
    2fe4:	10800037 	ldwio	r2,0(r2)
    2fe8:	1080004c 	andi	r2,r2,1
    2fec:	10000226 	beq	r2,zero,2ff8 <alt_avalon_i2c_is_busy+0x30>
    2ff0:	00800044 	movi	r2,1
    2ff4:	00000106 	br	2ffc <alt_avalon_i2c_is_busy+0x34>
    2ff8:	0005883a 	mov	r2,zero
    2ffc:	e037883a 	mov	sp,fp
    3000:	df000017 	ldw	fp,0(sp)
    3004:	dec00104 	addi	sp,sp,4
    3008:	f800283a 	ret

0000300c <alt_avalon_i2c_rx_read_available>:
    300c:	defffb04 	addi	sp,sp,-20
    3010:	df000415 	stw	fp,16(sp)
    3014:	df000404 	addi	fp,sp,16
    3018:	e13fff15 	stw	r4,-4(fp)
    301c:	e17ffe15 	stw	r5,-8(fp)
    3020:	e1bffd15 	stw	r6,-12(fp)
    3024:	e1fffc15 	stw	r7,-16(fp)
    3028:	e0bffc17 	ldw	r2,-16(fp)
    302c:	10000015 	stw	zero,0(r2)
    3030:	00001506 	br	3088 <alt_avalon_i2c_rx_read_available+0x7c>
    3034:	e0bfff17 	ldw	r2,-4(fp)
    3038:	10800317 	ldw	r2,12(r2)
    303c:	10800104 	addi	r2,r2,4
    3040:	11000037 	ldwio	r4,0(r2)
    3044:	e0bffc17 	ldw	r2,-16(fp)
    3048:	10800017 	ldw	r2,0(r2)
    304c:	e0fffe17 	ldw	r3,-8(fp)
    3050:	1885883a 	add	r2,r3,r2
    3054:	2007883a 	mov	r3,r4
    3058:	10c00005 	stb	r3,0(r2)
    305c:	e0bffc17 	ldw	r2,-16(fp)
    3060:	10800017 	ldw	r2,0(r2)
    3064:	10c00044 	addi	r3,r2,1
    3068:	e0bffc17 	ldw	r2,-16(fp)
    306c:	10c00015 	stw	r3,0(r2)
    3070:	e0bffc17 	ldw	r2,-16(fp)
    3074:	10800017 	ldw	r2,0(r2)
    3078:	e0fffd17 	ldw	r3,-12(fp)
    307c:	1880021e 	bne	r3,r2,3088 <alt_avalon_i2c_rx_read_available+0x7c>
    3080:	e0bffd17 	ldw	r2,-12(fp)
    3084:	1000061e 	bne	r2,zero,30a0 <alt_avalon_i2c_rx_read_available+0x94>
    3088:	e0bfff17 	ldw	r2,-4(fp)
    308c:	10800317 	ldw	r2,12(r2)
    3090:	10800704 	addi	r2,r2,28
    3094:	10800037 	ldwio	r2,0(r2)
    3098:	103fe61e 	bne	r2,zero,3034 <alt_avalon_i2c_rx_read_available+0x28>
    309c:	00000106 	br	30a4 <alt_avalon_i2c_rx_read_available+0x98>
    30a0:	0001883a 	nop
    30a4:	0001883a 	nop
    30a8:	e037883a 	mov	sp,fp
    30ac:	df000017 	ldw	fp,0(sp)
    30b0:	dec00104 	addi	sp,sp,4
    30b4:	f800283a 	ret

000030b8 <alt_avalon_i2c_rx_read>:
    30b8:	defffa04 	addi	sp,sp,-24
    30bc:	dfc00515 	stw	ra,20(sp)
    30c0:	df000415 	stw	fp,16(sp)
    30c4:	df000404 	addi	fp,sp,16
    30c8:	e13ffd15 	stw	r4,-12(fp)
    30cc:	e17ffc15 	stw	r5,-16(fp)
    30d0:	e03fff15 	stw	zero,-4(fp)
    30d4:	008000b4 	movhi	r2,2
    30d8:	10a1a804 	addi	r2,r2,-31072
    30dc:	e0bffe15 	stw	r2,-8(fp)
    30e0:	00000d06 	br	3118 <alt_avalon_i2c_rx_read+0x60>
    30e4:	e0bffe17 	ldw	r2,-8(fp)
    30e8:	108002a8 	cmpgeui	r2,r2,10
    30ec:	1000021e 	bne	r2,zero,30f8 <alt_avalon_i2c_rx_read+0x40>
    30f0:	0109c404 	movi	r4,10000
    30f4:	00047b40 	call	47b4 <alt_busy_sleep>
    30f8:	e0bffe17 	ldw	r2,-8(fp)
    30fc:	10bfffc4 	addi	r2,r2,-1
    3100:	e0bffe15 	stw	r2,-8(fp)
    3104:	e0bffe17 	ldw	r2,-8(fp)
    3108:	1000031e 	bne	r2,zero,3118 <alt_avalon_i2c_rx_read+0x60>
    310c:	00bfff84 	movi	r2,-2
    3110:	e0bfff15 	stw	r2,-4(fp)
    3114:	00000506 	br	312c <alt_avalon_i2c_rx_read+0x74>
    3118:	e0bffd17 	ldw	r2,-12(fp)
    311c:	10800317 	ldw	r2,12(r2)
    3120:	10800704 	addi	r2,r2,28
    3124:	10800037 	ldwio	r2,0(r2)
    3128:	103fee26 	beq	r2,zero,30e4 <alt_avalon_i2c_rx_read+0x2c>
    312c:	e0bffd17 	ldw	r2,-12(fp)
    3130:	10800317 	ldw	r2,12(r2)
    3134:	10800104 	addi	r2,r2,4
    3138:	10800037 	ldwio	r2,0(r2)
    313c:	1007883a 	mov	r3,r2
    3140:	e0bffc17 	ldw	r2,-16(fp)
    3144:	10c00005 	stb	r3,0(r2)
    3148:	e0bfff17 	ldw	r2,-4(fp)
    314c:	e037883a 	mov	sp,fp
    3150:	dfc00117 	ldw	ra,4(sp)
    3154:	df000017 	ldw	fp,0(sp)
    3158:	dec00204 	addi	sp,sp,8
    315c:	f800283a 	ret

00003160 <alt_avalon_i2c_cmd_write>:
    3160:	defff804 	addi	sp,sp,-32
    3164:	dfc00715 	stw	ra,28(sp)
    3168:	df000615 	stw	fp,24(sp)
    316c:	df000604 	addi	fp,sp,24
    3170:	e13ffd15 	stw	r4,-12(fp)
    3174:	2805883a 	mov	r2,r5
    3178:	3009883a 	mov	r4,r6
    317c:	3807883a 	mov	r3,r7
    3180:	e0bffc05 	stb	r2,-16(fp)
    3184:	2005883a 	mov	r2,r4
    3188:	e0bffb05 	stb	r2,-20(fp)
    318c:	1805883a 	mov	r2,r3
    3190:	e0bffa05 	stb	r2,-24(fp)
    3194:	0089c404 	movi	r2,10000
    3198:	e0bfff15 	stw	r2,-4(fp)
    319c:	e03ffe15 	stw	zero,-8(fp)
    31a0:	00000c06 	br	31d4 <alt_avalon_i2c_cmd_write+0x74>
    31a4:	e0bfff17 	ldw	r2,-4(fp)
    31a8:	108002a8 	cmpgeui	r2,r2,10
    31ac:	1000021e 	bne	r2,zero,31b8 <alt_avalon_i2c_cmd_write+0x58>
    31b0:	0109c404 	movi	r4,10000
    31b4:	00047b40 	call	47b4 <alt_busy_sleep>
    31b8:	e0bfff17 	ldw	r2,-4(fp)
    31bc:	10bfffc4 	addi	r2,r2,-1
    31c0:	e0bfff15 	stw	r2,-4(fp)
    31c4:	e0bfff17 	ldw	r2,-4(fp)
    31c8:	1000021e 	bne	r2,zero,31d4 <alt_avalon_i2c_cmd_write+0x74>
    31cc:	00bfff84 	movi	r2,-2
    31d0:	00001906 	br	3238 <alt_avalon_i2c_cmd_write+0xd8>
    31d4:	e0bffd17 	ldw	r2,-12(fp)
    31d8:	10800317 	ldw	r2,12(r2)
    31dc:	10800404 	addi	r2,r2,16
    31e0:	10800037 	ldwio	r2,0(r2)
    31e4:	1080004c 	andi	r2,r2,1
    31e8:	103fee26 	beq	r2,zero,31a4 <alt_avalon_i2c_cmd_write+0x44>
    31ec:	e0bffd17 	ldw	r2,-12(fp)
    31f0:	10800317 	ldw	r2,12(r2)
    31f4:	e13ffc03 	ldbu	r4,-16(fp)
    31f8:	e0fffb03 	ldbu	r3,-20(fp)
    31fc:	1806927a 	slli	r3,r3,9
    3200:	20c8b03a 	or	r4,r4,r3
    3204:	e0fffa03 	ldbu	r3,-24(fp)
    3208:	1806923a 	slli	r3,r3,8
    320c:	20c6b03a 	or	r3,r4,r3
    3210:	10c00035 	stwio	r3,0(r2)
    3214:	e0bffe04 	addi	r2,fp,-8
    3218:	100b883a 	mov	r5,r2
    321c:	e13ffd17 	ldw	r4,-12(fp)
    3220:	00033a80 	call	33a8 <alt_avalon_i2c_check_nack>
    3224:	e0bffe04 	addi	r2,fp,-8
    3228:	100b883a 	mov	r5,r2
    322c:	e13ffd17 	ldw	r4,-12(fp)
    3230:	00033f40 	call	33f4 <alt_avalon_i2c_check_arblost>
    3234:	e0bffe17 	ldw	r2,-8(fp)
    3238:	e037883a 	mov	sp,fp
    323c:	dfc00117 	ldw	ra,4(sp)
    3240:	df000017 	ldw	fp,0(sp)
    3244:	dec00204 	addi	sp,sp,8
    3248:	f800283a 	ret

0000324c <alt_avalon_i2c_send_address>:
    324c:	defffa04 	addi	sp,sp,-24
    3250:	dfc00515 	stw	ra,20(sp)
    3254:	df000415 	stw	fp,16(sp)
    3258:	df000404 	addi	fp,sp,16
    325c:	e13ffe15 	stw	r4,-8(fp)
    3260:	e17ffd15 	stw	r5,-12(fp)
    3264:	3005883a 	mov	r2,r6
    3268:	e0bffc05 	stb	r2,-16(fp)
    326c:	e0bffe17 	ldw	r2,-8(fp)
    3270:	10800d17 	ldw	r2,52(r2)
    3274:	10800058 	cmpnei	r2,r2,1
    3278:	10001c1e 	bne	r2,zero,32ec <alt_avalon_i2c_send_address+0xa0>
    327c:	e0bffe17 	ldw	r2,-8(fp)
    3280:	10800917 	ldw	r2,36(r2)
    3284:	1004d1fa 	srli	r2,r2,7
    3288:	1080038c 	andi	r2,r2,14
    328c:	1007883a 	mov	r3,r2
    3290:	e0bffd17 	ldw	r2,-12(fp)
    3294:	1884b03a 	or	r2,r3,r2
    3298:	1007883a 	mov	r3,r2
    329c:	00bffc04 	movi	r2,-16
    32a0:	1884b03a 	or	r2,r3,r2
    32a4:	10803fcc 	andi	r2,r2,255
    32a8:	e0fffc03 	ldbu	r3,-16(fp)
    32ac:	000f883a 	mov	r7,zero
    32b0:	180d883a 	mov	r6,r3
    32b4:	100b883a 	mov	r5,r2
    32b8:	e13ffe17 	ldw	r4,-8(fp)
    32bc:	00031600 	call	3160 <alt_avalon_i2c_cmd_write>
    32c0:	e0bfff15 	stw	r2,-4(fp)
    32c4:	e0bffe17 	ldw	r2,-8(fp)
    32c8:	10800917 	ldw	r2,36(r2)
    32cc:	10803fcc 	andi	r2,r2,255
    32d0:	000f883a 	mov	r7,zero
    32d4:	000d883a 	mov	r6,zero
    32d8:	100b883a 	mov	r5,r2
    32dc:	e13ffe17 	ldw	r4,-8(fp)
    32e0:	00031600 	call	3160 <alt_avalon_i2c_cmd_write>
    32e4:	e0bfff15 	stw	r2,-4(fp)
    32e8:	00000e06 	br	3324 <alt_avalon_i2c_send_address+0xd8>
    32ec:	e0bffe17 	ldw	r2,-8(fp)
    32f0:	10800917 	ldw	r2,36(r2)
    32f4:	1085883a 	add	r2,r2,r2
    32f8:	1007883a 	mov	r3,r2
    32fc:	e0bffd17 	ldw	r2,-12(fp)
    3300:	1884b03a 	or	r2,r3,r2
    3304:	10803fcc 	andi	r2,r2,255
    3308:	e0fffc03 	ldbu	r3,-16(fp)
    330c:	000f883a 	mov	r7,zero
    3310:	180d883a 	mov	r6,r3
    3314:	100b883a 	mov	r5,r2
    3318:	e13ffe17 	ldw	r4,-8(fp)
    331c:	00031600 	call	3160 <alt_avalon_i2c_cmd_write>
    3320:	e0bfff15 	stw	r2,-4(fp)
    3324:	e0bfff17 	ldw	r2,-4(fp)
    3328:	e037883a 	mov	sp,fp
    332c:	dfc00117 	ldw	ra,4(sp)
    3330:	df000017 	ldw	fp,0(sp)
    3334:	dec00204 	addi	sp,sp,8
    3338:	f800283a 	ret

0000333c <alt_avalon_i2c_master_target_get>:
    333c:	defffd04 	addi	sp,sp,-12
    3340:	df000215 	stw	fp,8(sp)
    3344:	df000204 	addi	fp,sp,8
    3348:	e13fff15 	stw	r4,-4(fp)
    334c:	e17ffe15 	stw	r5,-8(fp)
    3350:	e0bfff17 	ldw	r2,-4(fp)
    3354:	10c00917 	ldw	r3,36(r2)
    3358:	e0bffe17 	ldw	r2,-8(fp)
    335c:	10c00015 	stw	r3,0(r2)
    3360:	0001883a 	nop
    3364:	e037883a 	mov	sp,fp
    3368:	df000017 	ldw	fp,0(sp)
    336c:	dec00104 	addi	sp,sp,4
    3370:	f800283a 	ret

00003374 <alt_avalon_i2c_master_target_set>:
    3374:	defffd04 	addi	sp,sp,-12
    3378:	df000215 	stw	fp,8(sp)
    337c:	df000204 	addi	fp,sp,8
    3380:	e13fff15 	stw	r4,-4(fp)
    3384:	e17ffe15 	stw	r5,-8(fp)
    3388:	e0bfff17 	ldw	r2,-4(fp)
    338c:	e0fffe17 	ldw	r3,-8(fp)
    3390:	10c00915 	stw	r3,36(r2)
    3394:	0001883a 	nop
    3398:	e037883a 	mov	sp,fp
    339c:	df000017 	ldw	fp,0(sp)
    33a0:	dec00104 	addi	sp,sp,4
    33a4:	f800283a 	ret

000033a8 <alt_avalon_i2c_check_nack>:
    33a8:	defffd04 	addi	sp,sp,-12
    33ac:	df000215 	stw	fp,8(sp)
    33b0:	df000204 	addi	fp,sp,8
    33b4:	e13fff15 	stw	r4,-4(fp)
    33b8:	e17ffe15 	stw	r5,-8(fp)
    33bc:	e0bfff17 	ldw	r2,-4(fp)
    33c0:	10800317 	ldw	r2,12(r2)
    33c4:	10800404 	addi	r2,r2,16
    33c8:	10800037 	ldwio	r2,0(r2)
    33cc:	1080010c 	andi	r2,r2,4
    33d0:	10000326 	beq	r2,zero,33e0 <alt_avalon_i2c_check_nack+0x38>
    33d4:	e0bffe17 	ldw	r2,-8(fp)
    33d8:	00fffec4 	movi	r3,-5
    33dc:	10c00015 	stw	r3,0(r2)
    33e0:	0001883a 	nop
    33e4:	e037883a 	mov	sp,fp
    33e8:	df000017 	ldw	fp,0(sp)
    33ec:	dec00104 	addi	sp,sp,4
    33f0:	f800283a 	ret

000033f4 <alt_avalon_i2c_check_arblost>:
    33f4:	defffd04 	addi	sp,sp,-12
    33f8:	df000215 	stw	fp,8(sp)
    33fc:	df000204 	addi	fp,sp,8
    3400:	e13fff15 	stw	r4,-4(fp)
    3404:	e17ffe15 	stw	r5,-8(fp)
    3408:	e0bfff17 	ldw	r2,-4(fp)
    340c:	10800317 	ldw	r2,12(r2)
    3410:	10800404 	addi	r2,r2,16
    3414:	10800037 	ldwio	r2,0(r2)
    3418:	1080020c 	andi	r2,r2,8
    341c:	10000326 	beq	r2,zero,342c <alt_avalon_i2c_check_arblost+0x38>
    3420:	e0bffe17 	ldw	r2,-8(fp)
    3424:	00fffe84 	movi	r3,-6
    3428:	10c00015 	stw	r3,0(r2)
    342c:	0001883a 	nop
    3430:	e037883a 	mov	sp,fp
    3434:	df000017 	ldw	fp,0(sp)
    3438:	dec00104 	addi	sp,sp,4
    343c:	f800283a 	ret

00003440 <alt_avalon_i2c_interrupt_transaction_status>:
    3440:	defff804 	addi	sp,sp,-32
    3444:	dfc00715 	stw	ra,28(sp)
    3448:	df000615 	stw	fp,24(sp)
    344c:	df000604 	addi	fp,sp,24
    3450:	e13ffa15 	stw	r4,-24(fp)
    3454:	e03ffd15 	stw	zero,-12(fp)
    3458:	e0bffa17 	ldw	r2,-24(fp)
    345c:	10800717 	ldw	r2,28(r2)
    3460:	e0bffe15 	stw	r2,-8(fp)
    3464:	e0bffe17 	ldw	r2,-8(fp)
    3468:	10800117 	ldw	r2,4(r2)
    346c:	10800044 	addi	r2,r2,1
    3470:	1089c424 	muli	r2,r2,10000
    3474:	e0bfff15 	stw	r2,-4(fp)
    3478:	e0bffc04 	addi	r2,fp,-16
    347c:	100b883a 	mov	r5,r2
    3480:	e13ffa17 	ldw	r4,-24(fp)
    3484:	00042c80 	call	42c8 <alt_avalon_i2c_enabled_ints_get>
    3488:	e0bffc17 	ldw	r2,-16(fp)
    348c:	100b883a 	mov	r5,r2
    3490:	e13ffa17 	ldw	r4,-24(fp)
    3494:	00041f40 	call	41f4 <alt_avalon_i2c_int_disable>
    3498:	e0bffd04 	addi	r2,fp,-12
    349c:	100b883a 	mov	r5,r2
    34a0:	e13ffa17 	ldw	r4,-24(fp)
    34a4:	00033a80 	call	33a8 <alt_avalon_i2c_check_nack>
    34a8:	e0bffd17 	ldw	r2,-12(fp)
    34ac:	10002226 	beq	r2,zero,3538 <alt_avalon_i2c_interrupt_transaction_status+0xf8>
    34b0:	e0bffe17 	ldw	r2,-8(fp)
    34b4:	10800217 	ldw	r2,8(r2)
    34b8:	10001d26 	beq	r2,zero,3530 <alt_avalon_i2c_interrupt_transaction_status+0xf0>
    34bc:	00000d06 	br	34f4 <alt_avalon_i2c_interrupt_transaction_status+0xb4>
    34c0:	e0bfff17 	ldw	r2,-4(fp)
    34c4:	108002a8 	cmpgeui	r2,r2,10
    34c8:	1000021e 	bne	r2,zero,34d4 <alt_avalon_i2c_interrupt_transaction_status+0x94>
    34cc:	0109c404 	movi	r4,10000
    34d0:	00047b40 	call	47b4 <alt_busy_sleep>
    34d4:	e0bfff17 	ldw	r2,-4(fp)
    34d8:	10bfffc4 	addi	r2,r2,-1
    34dc:	e0bfff15 	stw	r2,-4(fp)
    34e0:	e0bfff17 	ldw	r2,-4(fp)
    34e4:	1000031e 	bne	r2,zero,34f4 <alt_avalon_i2c_interrupt_transaction_status+0xb4>
    34e8:	00bfff84 	movi	r2,-2
    34ec:	e0bffd15 	stw	r2,-12(fp)
    34f0:	00000306 	br	3500 <alt_avalon_i2c_interrupt_transaction_status+0xc0>
    34f4:	e13ffa17 	ldw	r4,-24(fp)
    34f8:	0002fc80 	call	2fc8 <alt_avalon_i2c_is_busy>
    34fc:	103ff01e 	bne	r2,zero,34c0 <alt_avalon_i2c_interrupt_transaction_status+0x80>
    3500:	e0bffe17 	ldw	r2,-8(fp)
    3504:	10800017 	ldw	r2,0(r2)
    3508:	e0fffb04 	addi	r3,fp,-20
    350c:	180f883a 	mov	r7,r3
    3510:	000d883a 	mov	r6,zero
    3514:	100b883a 	mov	r5,r2
    3518:	e13ffa17 	ldw	r4,-24(fp)
    351c:	000300c0 	call	300c <alt_avalon_i2c_rx_read_available>
    3520:	e13ffa17 	ldw	r4,-24(fp)
    3524:	0002c700 	call	2c70 <alt_avalon_i2c_disable>
    3528:	e0bffe17 	ldw	r2,-8(fp)
    352c:	10000215 	stw	zero,8(r2)
    3530:	e0bffd17 	ldw	r2,-12(fp)
    3534:	00000a06 	br	3560 <alt_avalon_i2c_interrupt_transaction_status+0x120>
    3538:	e0bffe17 	ldw	r2,-8(fp)
    353c:	10800217 	ldw	r2,8(r2)
    3540:	10000626 	beq	r2,zero,355c <alt_avalon_i2c_interrupt_transaction_status+0x11c>
    3544:	e0bffc17 	ldw	r2,-16(fp)
    3548:	100b883a 	mov	r5,r2
    354c:	e13ffa17 	ldw	r4,-24(fp)
    3550:	00042600 	call	4260 <alt_avalon_i2c_int_enable>
    3554:	00bffe44 	movi	r2,-7
    3558:	00000106 	br	3560 <alt_avalon_i2c_interrupt_transaction_status+0x120>
    355c:	0005883a 	mov	r2,zero
    3560:	e037883a 	mov	sp,fp
    3564:	dfc00117 	ldw	ra,4(sp)
    3568:	df000017 	ldw	fp,0(sp)
    356c:	dec00204 	addi	sp,sp,8
    3570:	f800283a 	ret

00003574 <alt_avalon_i2c_master_tx>:
    3574:	defff704 	addi	sp,sp,-36
    3578:	dfc00815 	stw	ra,32(sp)
    357c:	df000715 	stw	fp,28(sp)
    3580:	df000704 	addi	fp,sp,28
    3584:	e13ffd15 	stw	r4,-12(fp)
    3588:	e17ffc15 	stw	r5,-16(fp)
    358c:	e1bffb15 	stw	r6,-20(fp)
    3590:	3805883a 	mov	r2,r7
    3594:	e0bffa05 	stb	r2,-24(fp)
    3598:	0089c404 	movi	r2,10000
    359c:	e0bffe15 	stw	r2,-8(fp)
    35a0:	00002206 	br	362c <alt_avalon_i2c_master_tx+0xb8>
    35a4:	e0bffe17 	ldw	r2,-8(fp)
    35a8:	108002a8 	cmpgeui	r2,r2,10
    35ac:	1000021e 	bne	r2,zero,35b8 <alt_avalon_i2c_master_tx+0x44>
    35b0:	0109c404 	movi	r4,10000
    35b4:	00047b40 	call	47b4 <alt_busy_sleep>
    35b8:	e0bffa03 	ldbu	r2,-24(fp)
    35bc:	10000926 	beq	r2,zero,35e4 <alt_avalon_i2c_master_tx+0x70>
    35c0:	00800044 	movi	r2,1
    35c4:	d8800015 	stw	r2,0(sp)
    35c8:	000f883a 	mov	r7,zero
    35cc:	e1bffb17 	ldw	r6,-20(fp)
    35d0:	e17ffc17 	ldw	r5,-16(fp)
    35d4:	e13ffd17 	ldw	r4,-12(fp)
    35d8:	0003b1c0 	call	3b1c <alt_avalon_i2c_master_transmit_using_interrupts>
    35dc:	e0bfff15 	stw	r2,-4(fp)
    35e0:	00000806 	br	3604 <alt_avalon_i2c_master_tx+0x90>
    35e4:	00800044 	movi	r2,1
    35e8:	d8800015 	stw	r2,0(sp)
    35ec:	000f883a 	mov	r7,zero
    35f0:	e1bffb17 	ldw	r6,-20(fp)
    35f4:	e17ffc17 	ldw	r5,-16(fp)
    35f8:	e13ffd17 	ldw	r4,-12(fp)
    35fc:	00039600 	call	3960 <alt_avalon_i2c_master_transmit>
    3600:	e0bfff15 	stw	r2,-4(fp)
    3604:	e0bfff17 	ldw	r2,-4(fp)
    3608:	10bffea0 	cmpeqi	r2,r2,-6
    360c:	1000061e 	bne	r2,zero,3628 <alt_avalon_i2c_master_tx+0xb4>
    3610:	e0bfff17 	ldw	r2,-4(fp)
    3614:	10bffee0 	cmpeqi	r2,r2,-5
    3618:	1000031e 	bne	r2,zero,3628 <alt_avalon_i2c_master_tx+0xb4>
    361c:	e0bfff17 	ldw	r2,-4(fp)
    3620:	10bffe58 	cmpnei	r2,r2,-7
    3624:	1000061e 	bne	r2,zero,3640 <alt_avalon_i2c_master_tx+0xcc>
    3628:	0001883a 	nop
    362c:	e0bffe17 	ldw	r2,-8(fp)
    3630:	10ffffc4 	addi	r3,r2,-1
    3634:	e0fffe15 	stw	r3,-8(fp)
    3638:	103fda1e 	bne	r2,zero,35a4 <alt_avalon_i2c_master_tx+0x30>
    363c:	00000106 	br	3644 <alt_avalon_i2c_master_tx+0xd0>
    3640:	0001883a 	nop
    3644:	e0bfff17 	ldw	r2,-4(fp)
    3648:	e037883a 	mov	sp,fp
    364c:	dfc00117 	ldw	ra,4(sp)
    3650:	df000017 	ldw	fp,0(sp)
    3654:	dec00204 	addi	sp,sp,8
    3658:	f800283a 	ret

0000365c <alt_avalon_i2c_master_rx>:
    365c:	defff704 	addi	sp,sp,-36
    3660:	dfc00815 	stw	ra,32(sp)
    3664:	df000715 	stw	fp,28(sp)
    3668:	df000704 	addi	fp,sp,28
    366c:	e13ffd15 	stw	r4,-12(fp)
    3670:	e17ffc15 	stw	r5,-16(fp)
    3674:	e1bffb15 	stw	r6,-20(fp)
    3678:	3805883a 	mov	r2,r7
    367c:	e0bffa05 	stb	r2,-24(fp)
    3680:	0089c404 	movi	r2,10000
    3684:	e0bffe15 	stw	r2,-8(fp)
    3688:	e0bffa03 	ldbu	r2,-24(fp)
    368c:	10003426 	beq	r2,zero,3760 <alt_avalon_i2c_master_rx+0x104>
    3690:	00001706 	br	36f0 <alt_avalon_i2c_master_rx+0x94>
    3694:	e0bffe17 	ldw	r2,-8(fp)
    3698:	108002a8 	cmpgeui	r2,r2,10
    369c:	1000021e 	bne	r2,zero,36a8 <alt_avalon_i2c_master_rx+0x4c>
    36a0:	0109c404 	movi	r4,10000
    36a4:	00047b40 	call	47b4 <alt_busy_sleep>
    36a8:	00800044 	movi	r2,1
    36ac:	d8800015 	stw	r2,0(sp)
    36b0:	000f883a 	mov	r7,zero
    36b4:	e1bffb17 	ldw	r6,-20(fp)
    36b8:	e17ffc17 	ldw	r5,-16(fp)
    36bc:	e13ffd17 	ldw	r4,-12(fp)
    36c0:	0003f300 	call	3f30 <alt_avalon_i2c_master_receive_using_interrupts>
    36c4:	e0bfff15 	stw	r2,-4(fp)
    36c8:	e0bfff17 	ldw	r2,-4(fp)
    36cc:	10bffea0 	cmpeqi	r2,r2,-6
    36d0:	1000061e 	bne	r2,zero,36ec <alt_avalon_i2c_master_rx+0x90>
    36d4:	e0bfff17 	ldw	r2,-4(fp)
    36d8:	10bffee0 	cmpeqi	r2,r2,-5
    36dc:	1000031e 	bne	r2,zero,36ec <alt_avalon_i2c_master_rx+0x90>
    36e0:	e0bfff17 	ldw	r2,-4(fp)
    36e4:	10bffe58 	cmpnei	r2,r2,-7
    36e8:	1000221e 	bne	r2,zero,3774 <alt_avalon_i2c_master_rx+0x118>
    36ec:	0001883a 	nop
    36f0:	e0bffe17 	ldw	r2,-8(fp)
    36f4:	10ffffc4 	addi	r3,r2,-1
    36f8:	e0fffe15 	stw	r3,-8(fp)
    36fc:	103fe51e 	bne	r2,zero,3694 <alt_avalon_i2c_master_rx+0x38>
    3700:	00001f06 	br	3780 <alt_avalon_i2c_master_rx+0x124>
    3704:	e0bffe17 	ldw	r2,-8(fp)
    3708:	108002a8 	cmpgeui	r2,r2,10
    370c:	1000021e 	bne	r2,zero,3718 <alt_avalon_i2c_master_rx+0xbc>
    3710:	0109c404 	movi	r4,10000
    3714:	00047b40 	call	47b4 <alt_busy_sleep>
    3718:	00800044 	movi	r2,1
    371c:	d8800015 	stw	r2,0(sp)
    3720:	000f883a 	mov	r7,zero
    3724:	e1bffb17 	ldw	r6,-20(fp)
    3728:	e17ffc17 	ldw	r5,-16(fp)
    372c:	e13ffd17 	ldw	r4,-12(fp)
    3730:	0003d240 	call	3d24 <alt_avalon_i2c_master_receive>
    3734:	e0bfff15 	stw	r2,-4(fp)
    3738:	e0bfff17 	ldw	r2,-4(fp)
    373c:	10bffea0 	cmpeqi	r2,r2,-6
    3740:	1000061e 	bne	r2,zero,375c <alt_avalon_i2c_master_rx+0x100>
    3744:	e0bfff17 	ldw	r2,-4(fp)
    3748:	10bffee0 	cmpeqi	r2,r2,-5
    374c:	1000031e 	bne	r2,zero,375c <alt_avalon_i2c_master_rx+0x100>
    3750:	e0bfff17 	ldw	r2,-4(fp)
    3754:	10bffe58 	cmpnei	r2,r2,-7
    3758:	1000081e 	bne	r2,zero,377c <alt_avalon_i2c_master_rx+0x120>
    375c:	0001883a 	nop
    3760:	e0bffe17 	ldw	r2,-8(fp)
    3764:	10ffffc4 	addi	r3,r2,-1
    3768:	e0fffe15 	stw	r3,-8(fp)
    376c:	103fe51e 	bne	r2,zero,3704 <alt_avalon_i2c_master_rx+0xa8>
    3770:	00000306 	br	3780 <alt_avalon_i2c_master_rx+0x124>
    3774:	0001883a 	nop
    3778:	00000106 	br	3780 <alt_avalon_i2c_master_rx+0x124>
    377c:	0001883a 	nop
    3780:	e0bfff17 	ldw	r2,-4(fp)
    3784:	e037883a 	mov	sp,fp
    3788:	dfc00117 	ldw	ra,4(sp)
    378c:	df000017 	ldw	fp,0(sp)
    3790:	dec00204 	addi	sp,sp,8
    3794:	f800283a 	ret

00003798 <alt_avalon_i2c_master_tx_rx>:
    3798:	defff604 	addi	sp,sp,-40
    379c:	dfc00915 	stw	ra,36(sp)
    37a0:	df000815 	stw	fp,32(sp)
    37a4:	df000804 	addi	fp,sp,32
    37a8:	e13ffd15 	stw	r4,-12(fp)
    37ac:	e17ffc15 	stw	r5,-16(fp)
    37b0:	e1bffb15 	stw	r6,-20(fp)
    37b4:	e1fffa15 	stw	r7,-24(fp)
    37b8:	e0800317 	ldw	r2,12(fp)
    37bc:	e0bff905 	stb	r2,-28(fp)
    37c0:	0089c404 	movi	r2,10000
    37c4:	e0bffe15 	stw	r2,-8(fp)
    37c8:	e0bff903 	ldbu	r2,-28(fp)
    37cc:	10005626 	beq	r2,zero,3928 <alt_avalon_i2c_master_tx_rx+0x190>
    37d0:	00002806 	br	3874 <alt_avalon_i2c_master_tx_rx+0xdc>
    37d4:	e0bffe17 	ldw	r2,-8(fp)
    37d8:	108002a8 	cmpgeui	r2,r2,10
    37dc:	1000021e 	bne	r2,zero,37e8 <alt_avalon_i2c_master_tx_rx+0x50>
    37e0:	0109c404 	movi	r4,10000
    37e4:	00047b40 	call	47b4 <alt_busy_sleep>
    37e8:	d8000015 	stw	zero,0(sp)
    37ec:	000f883a 	mov	r7,zero
    37f0:	e1bffb17 	ldw	r6,-20(fp)
    37f4:	e17ffc17 	ldw	r5,-16(fp)
    37f8:	e13ffd17 	ldw	r4,-12(fp)
    37fc:	0003b1c0 	call	3b1c <alt_avalon_i2c_master_transmit_using_interrupts>
    3800:	e0bfff15 	stw	r2,-4(fp)
    3804:	e0bfff17 	ldw	r2,-4(fp)
    3808:	10bffea0 	cmpeqi	r2,r2,-6
    380c:	1000191e 	bne	r2,zero,3874 <alt_avalon_i2c_master_tx_rx+0xdc>
    3810:	e0bfff17 	ldw	r2,-4(fp)
    3814:	10bffee0 	cmpeqi	r2,r2,-5
    3818:	1000161e 	bne	r2,zero,3874 <alt_avalon_i2c_master_tx_rx+0xdc>
    381c:	e0bfff17 	ldw	r2,-4(fp)
    3820:	10bffe58 	cmpnei	r2,r2,-7
    3824:	1000011e 	bne	r2,zero,382c <alt_avalon_i2c_master_tx_rx+0x94>
    3828:	00001206 	br	3874 <alt_avalon_i2c_master_tx_rx+0xdc>
    382c:	00800044 	movi	r2,1
    3830:	d8800015 	stw	r2,0(sp)
    3834:	01c00044 	movi	r7,1
    3838:	e1800217 	ldw	r6,8(fp)
    383c:	e17ffa17 	ldw	r5,-24(fp)
    3840:	e13ffd17 	ldw	r4,-12(fp)
    3844:	0003f300 	call	3f30 <alt_avalon_i2c_master_receive_using_interrupts>
    3848:	e0bfff15 	stw	r2,-4(fp)
    384c:	e0bfff17 	ldw	r2,-4(fp)
    3850:	10bffea0 	cmpeqi	r2,r2,-6
    3854:	1000061e 	bne	r2,zero,3870 <alt_avalon_i2c_master_tx_rx+0xd8>
    3858:	e0bfff17 	ldw	r2,-4(fp)
    385c:	10bffee0 	cmpeqi	r2,r2,-5
    3860:	1000031e 	bne	r2,zero,3870 <alt_avalon_i2c_master_tx_rx+0xd8>
    3864:	e0bfff17 	ldw	r2,-4(fp)
    3868:	10bffe58 	cmpnei	r2,r2,-7
    386c:	1000331e 	bne	r2,zero,393c <alt_avalon_i2c_master_tx_rx+0x1a4>
    3870:	0001883a 	nop
    3874:	e0bffe17 	ldw	r2,-8(fp)
    3878:	10ffffc4 	addi	r3,r2,-1
    387c:	e0fffe15 	stw	r3,-8(fp)
    3880:	103fd41e 	bne	r2,zero,37d4 <alt_avalon_i2c_master_tx_rx+0x3c>
    3884:	00003006 	br	3948 <alt_avalon_i2c_master_tx_rx+0x1b0>
    3888:	e0bffe17 	ldw	r2,-8(fp)
    388c:	108002a8 	cmpgeui	r2,r2,10
    3890:	1000021e 	bne	r2,zero,389c <alt_avalon_i2c_master_tx_rx+0x104>
    3894:	0109c404 	movi	r4,10000
    3898:	00047b40 	call	47b4 <alt_busy_sleep>
    389c:	d8000015 	stw	zero,0(sp)
    38a0:	000f883a 	mov	r7,zero
    38a4:	e1bffb17 	ldw	r6,-20(fp)
    38a8:	e17ffc17 	ldw	r5,-16(fp)
    38ac:	e13ffd17 	ldw	r4,-12(fp)
    38b0:	00039600 	call	3960 <alt_avalon_i2c_master_transmit>
    38b4:	e0bfff15 	stw	r2,-4(fp)
    38b8:	e0bfff17 	ldw	r2,-4(fp)
    38bc:	10bffea0 	cmpeqi	r2,r2,-6
    38c0:	1000191e 	bne	r2,zero,3928 <alt_avalon_i2c_master_tx_rx+0x190>
    38c4:	e0bfff17 	ldw	r2,-4(fp)
    38c8:	10bffee0 	cmpeqi	r2,r2,-5
    38cc:	1000161e 	bne	r2,zero,3928 <alt_avalon_i2c_master_tx_rx+0x190>
    38d0:	e0bfff17 	ldw	r2,-4(fp)
    38d4:	10bffe58 	cmpnei	r2,r2,-7
    38d8:	1000011e 	bne	r2,zero,38e0 <alt_avalon_i2c_master_tx_rx+0x148>
    38dc:	00001206 	br	3928 <alt_avalon_i2c_master_tx_rx+0x190>
    38e0:	00800044 	movi	r2,1
    38e4:	d8800015 	stw	r2,0(sp)
    38e8:	01c00044 	movi	r7,1
    38ec:	e1800217 	ldw	r6,8(fp)
    38f0:	e17ffa17 	ldw	r5,-24(fp)
    38f4:	e13ffd17 	ldw	r4,-12(fp)
    38f8:	0003d240 	call	3d24 <alt_avalon_i2c_master_receive>
    38fc:	e0bfff15 	stw	r2,-4(fp)
    3900:	e0bfff17 	ldw	r2,-4(fp)
    3904:	10bffea0 	cmpeqi	r2,r2,-6
    3908:	1000061e 	bne	r2,zero,3924 <alt_avalon_i2c_master_tx_rx+0x18c>
    390c:	e0bfff17 	ldw	r2,-4(fp)
    3910:	10bffee0 	cmpeqi	r2,r2,-5
    3914:	1000031e 	bne	r2,zero,3924 <alt_avalon_i2c_master_tx_rx+0x18c>
    3918:	e0bfff17 	ldw	r2,-4(fp)
    391c:	10bffe58 	cmpnei	r2,r2,-7
    3920:	1000081e 	bne	r2,zero,3944 <alt_avalon_i2c_master_tx_rx+0x1ac>
    3924:	0001883a 	nop
    3928:	e0bffe17 	ldw	r2,-8(fp)
    392c:	10ffffc4 	addi	r3,r2,-1
    3930:	e0fffe15 	stw	r3,-8(fp)
    3934:	103fd41e 	bne	r2,zero,3888 <alt_avalon_i2c_master_tx_rx+0xf0>
    3938:	00000306 	br	3948 <alt_avalon_i2c_master_tx_rx+0x1b0>
    393c:	0001883a 	nop
    3940:	00000106 	br	3948 <alt_avalon_i2c_master_tx_rx+0x1b0>
    3944:	0001883a 	nop
    3948:	e0bfff17 	ldw	r2,-4(fp)
    394c:	e037883a 	mov	sp,fp
    3950:	dfc00117 	ldw	ra,4(sp)
    3954:	df000017 	ldw	fp,0(sp)
    3958:	dec00204 	addi	sp,sp,8
    395c:	f800283a 	ret

00003960 <alt_avalon_i2c_master_transmit>:
    3960:	defff704 	addi	sp,sp,-36
    3964:	dfc00815 	stw	ra,32(sp)
    3968:	df000715 	stw	fp,28(sp)
    396c:	df000704 	addi	fp,sp,28
    3970:	e13ffd15 	stw	r4,-12(fp)
    3974:	e17ffc15 	stw	r5,-16(fp)
    3978:	e1bffb15 	stw	r6,-20(fp)
    397c:	3807883a 	mov	r3,r7
    3980:	e0800217 	ldw	r2,8(fp)
    3984:	e0fffa05 	stb	r3,-24(fp)
    3988:	e0bff905 	stb	r2,-28(fp)
    398c:	e03ffe15 	stw	zero,-8(fp)
    3990:	e0bffb17 	ldw	r2,-20(fp)
    3994:	1089c424 	muli	r2,r2,10000
    3998:	e0bfff15 	stw	r2,-4(fp)
    399c:	e0bffb17 	ldw	r2,-20(fp)
    39a0:	1000021e 	bne	r2,zero,39ac <alt_avalon_i2c_master_transmit+0x4c>
    39a4:	0005883a 	mov	r2,zero
    39a8:	00005706 	br	3b08 <alt_avalon_i2c_master_transmit+0x1a8>
    39ac:	e0bffa03 	ldbu	r2,-24(fp)
    39b0:	10000a1e 	bne	r2,zero,39dc <alt_avalon_i2c_master_transmit+0x7c>
    39b4:	e13ffd17 	ldw	r4,-12(fp)
    39b8:	0002bd80 	call	2bd8 <alt_avalon_i2c_enable>
    39bc:	e0bffe15 	stw	r2,-8(fp)
    39c0:	e0bffe17 	ldw	r2,-8(fp)
    39c4:	10000226 	beq	r2,zero,39d0 <alt_avalon_i2c_master_transmit+0x70>
    39c8:	e0bffe17 	ldw	r2,-8(fp)
    39cc:	00004e06 	br	3b08 <alt_avalon_i2c_master_transmit+0x1a8>
    39d0:	01400704 	movi	r5,28
    39d4:	e13ffd17 	ldw	r4,-12(fp)
    39d8:	00041b80 	call	41b8 <alt_avalon_i2c_int_clear>
    39dc:	e0bffa03 	ldbu	r2,-24(fp)
    39e0:	100d883a 	mov	r6,r2
    39e4:	000b883a 	mov	r5,zero
    39e8:	e13ffd17 	ldw	r4,-12(fp)
    39ec:	000324c0 	call	324c <alt_avalon_i2c_send_address>
    39f0:	e0bffe15 	stw	r2,-8(fp)
    39f4:	e0bffe17 	ldw	r2,-8(fp)
    39f8:	1000271e 	bne	r2,zero,3a98 <alt_avalon_i2c_master_transmit+0x138>
    39fc:	00000f06 	br	3a3c <alt_avalon_i2c_master_transmit+0xdc>
    3a00:	e0bffc17 	ldw	r2,-16(fp)
    3a04:	10800003 	ldbu	r2,0(r2)
    3a08:	10803fcc 	andi	r2,r2,255
    3a0c:	000f883a 	mov	r7,zero
    3a10:	000d883a 	mov	r6,zero
    3a14:	100b883a 	mov	r5,r2
    3a18:	e13ffd17 	ldw	r4,-12(fp)
    3a1c:	00031600 	call	3160 <alt_avalon_i2c_cmd_write>
    3a20:	e0bffe15 	stw	r2,-8(fp)
    3a24:	e0bffc17 	ldw	r2,-16(fp)
    3a28:	10800044 	addi	r2,r2,1
    3a2c:	e0bffc15 	stw	r2,-16(fp)
    3a30:	e0bffb17 	ldw	r2,-20(fp)
    3a34:	10bfffc4 	addi	r2,r2,-1
    3a38:	e0bffb15 	stw	r2,-20(fp)
    3a3c:	e0bffb17 	ldw	r2,-20(fp)
    3a40:	108000b0 	cmpltui	r2,r2,2
    3a44:	1000021e 	bne	r2,zero,3a50 <alt_avalon_i2c_master_transmit+0xf0>
    3a48:	e0bffe17 	ldw	r2,-8(fp)
    3a4c:	103fec26 	beq	r2,zero,3a00 <alt_avalon_i2c_master_transmit+0xa0>
    3a50:	e0bffe17 	ldw	r2,-8(fp)
    3a54:	1000101e 	bne	r2,zero,3a98 <alt_avalon_i2c_master_transmit+0x138>
    3a58:	e0bffc17 	ldw	r2,-16(fp)
    3a5c:	10800003 	ldbu	r2,0(r2)
    3a60:	10803fcc 	andi	r2,r2,255
    3a64:	e0fff903 	ldbu	r3,-28(fp)
    3a68:	180f883a 	mov	r7,r3
    3a6c:	000d883a 	mov	r6,zero
    3a70:	100b883a 	mov	r5,r2
    3a74:	e13ffd17 	ldw	r4,-12(fp)
    3a78:	00031600 	call	3160 <alt_avalon_i2c_cmd_write>
    3a7c:	e0bffe15 	stw	r2,-8(fp)
    3a80:	e0bffc17 	ldw	r2,-16(fp)
    3a84:	10800044 	addi	r2,r2,1
    3a88:	e0bffc15 	stw	r2,-16(fp)
    3a8c:	e0bffb17 	ldw	r2,-20(fp)
    3a90:	10bfffc4 	addi	r2,r2,-1
    3a94:	e0bffb15 	stw	r2,-20(fp)
    3a98:	e0bff903 	ldbu	r2,-28(fp)
    3a9c:	1000101e 	bne	r2,zero,3ae0 <alt_avalon_i2c_master_transmit+0x180>
    3aa0:	e0bffe17 	ldw	r2,-8(fp)
    3aa4:	10001726 	beq	r2,zero,3b04 <alt_avalon_i2c_master_transmit+0x1a4>
    3aa8:	00000d06 	br	3ae0 <alt_avalon_i2c_master_transmit+0x180>
    3aac:	e0bfff17 	ldw	r2,-4(fp)
    3ab0:	108002a8 	cmpgeui	r2,r2,10
    3ab4:	1000021e 	bne	r2,zero,3ac0 <alt_avalon_i2c_master_transmit+0x160>
    3ab8:	0109c404 	movi	r4,10000
    3abc:	00047b40 	call	47b4 <alt_busy_sleep>
    3ac0:	e0bfff17 	ldw	r2,-4(fp)
    3ac4:	10bfffc4 	addi	r2,r2,-1
    3ac8:	e0bfff15 	stw	r2,-4(fp)
    3acc:	e0bfff17 	ldw	r2,-4(fp)
    3ad0:	1000031e 	bne	r2,zero,3ae0 <alt_avalon_i2c_master_transmit+0x180>
    3ad4:	00bfff84 	movi	r2,-2
    3ad8:	e0bffe15 	stw	r2,-8(fp)
    3adc:	00000306 	br	3aec <alt_avalon_i2c_master_transmit+0x18c>
    3ae0:	e13ffd17 	ldw	r4,-12(fp)
    3ae4:	0002fc80 	call	2fc8 <alt_avalon_i2c_is_busy>
    3ae8:	103ff01e 	bne	r2,zero,3aac <alt_avalon_i2c_master_transmit+0x14c>
    3aec:	e0bffe04 	addi	r2,fp,-8
    3af0:	100b883a 	mov	r5,r2
    3af4:	e13ffd17 	ldw	r4,-12(fp)
    3af8:	00033a80 	call	33a8 <alt_avalon_i2c_check_nack>
    3afc:	e13ffd17 	ldw	r4,-12(fp)
    3b00:	0002c700 	call	2c70 <alt_avalon_i2c_disable>
    3b04:	e0bffe17 	ldw	r2,-8(fp)
    3b08:	e037883a 	mov	sp,fp
    3b0c:	dfc00117 	ldw	ra,4(sp)
    3b10:	df000017 	ldw	fp,0(sp)
    3b14:	dec00204 	addi	sp,sp,8
    3b18:	f800283a 	ret

00003b1c <alt_avalon_i2c_master_transmit_using_interrupts>:
    3b1c:	defff604 	addi	sp,sp,-40
    3b20:	dfc00915 	stw	ra,36(sp)
    3b24:	df000815 	stw	fp,32(sp)
    3b28:	df000804 	addi	fp,sp,32
    3b2c:	e13ffc15 	stw	r4,-16(fp)
    3b30:	e17ffb15 	stw	r5,-20(fp)
    3b34:	e1bffa15 	stw	r6,-24(fp)
    3b38:	3807883a 	mov	r3,r7
    3b3c:	e0800217 	ldw	r2,8(fp)
    3b40:	e0fff905 	stb	r3,-28(fp)
    3b44:	e0bff805 	stb	r2,-32(fp)
    3b48:	e03fff15 	stw	zero,-4(fp)
    3b4c:	e0bffa17 	ldw	r2,-24(fp)
    3b50:	1089c424 	muli	r2,r2,10000
    3b54:	e0bffe15 	stw	r2,-8(fp)
    3b58:	e0bffc17 	ldw	r2,-16(fp)
    3b5c:	10800717 	ldw	r2,28(r2)
    3b60:	e0bffd15 	stw	r2,-12(fp)
    3b64:	e0bffa17 	ldw	r2,-24(fp)
    3b68:	1000021e 	bne	r2,zero,3b74 <alt_avalon_i2c_master_transmit_using_interrupts+0x58>
    3b6c:	0005883a 	mov	r2,zero
    3b70:	00006706 	br	3d10 <alt_avalon_i2c_master_transmit_using_interrupts+0x1f4>
    3b74:	e0bffc17 	ldw	r2,-16(fp)
    3b78:	10c00617 	ldw	r3,24(r2)
    3b7c:	00800034 	movhi	r2,0
    3b80:	108a1604 	addi	r2,r2,10328
    3b84:	18800226 	beq	r3,r2,3b90 <alt_avalon_i2c_master_transmit_using_interrupts+0x74>
    3b88:	00bfff44 	movi	r2,-3
    3b8c:	00006006 	br	3d10 <alt_avalon_i2c_master_transmit_using_interrupts+0x1f4>
    3b90:	e0bff903 	ldbu	r2,-28(fp)
    3b94:	10000a1e 	bne	r2,zero,3bc0 <alt_avalon_i2c_master_transmit_using_interrupts+0xa4>
    3b98:	e13ffc17 	ldw	r4,-16(fp)
    3b9c:	0002bd80 	call	2bd8 <alt_avalon_i2c_enable>
    3ba0:	e0bfff15 	stw	r2,-4(fp)
    3ba4:	e0bfff17 	ldw	r2,-4(fp)
    3ba8:	10000226 	beq	r2,zero,3bb4 <alt_avalon_i2c_master_transmit_using_interrupts+0x98>
    3bac:	e0bfff17 	ldw	r2,-4(fp)
    3bb0:	00005706 	br	3d10 <alt_avalon_i2c_master_transmit_using_interrupts+0x1f4>
    3bb4:	01400704 	movi	r5,28
    3bb8:	e13ffc17 	ldw	r4,-16(fp)
    3bbc:	00041b80 	call	41b8 <alt_avalon_i2c_int_clear>
    3bc0:	e0bff903 	ldbu	r2,-28(fp)
    3bc4:	100d883a 	mov	r6,r2
    3bc8:	000b883a 	mov	r5,zero
    3bcc:	e13ffc17 	ldw	r4,-16(fp)
    3bd0:	000324c0 	call	324c <alt_avalon_i2c_send_address>
    3bd4:	e0bfff15 	stw	r2,-4(fp)
    3bd8:	e0bfff17 	ldw	r2,-4(fp)
    3bdc:	1000271e 	bne	r2,zero,3c7c <alt_avalon_i2c_master_transmit_using_interrupts+0x160>
    3be0:	00000f06 	br	3c20 <alt_avalon_i2c_master_transmit_using_interrupts+0x104>
    3be4:	e0bffb17 	ldw	r2,-20(fp)
    3be8:	10800003 	ldbu	r2,0(r2)
    3bec:	10803fcc 	andi	r2,r2,255
    3bf0:	000f883a 	mov	r7,zero
    3bf4:	000d883a 	mov	r6,zero
    3bf8:	100b883a 	mov	r5,r2
    3bfc:	e13ffc17 	ldw	r4,-16(fp)
    3c00:	00031600 	call	3160 <alt_avalon_i2c_cmd_write>
    3c04:	e0bfff15 	stw	r2,-4(fp)
    3c08:	e0bffb17 	ldw	r2,-20(fp)
    3c0c:	10800044 	addi	r2,r2,1
    3c10:	e0bffb15 	stw	r2,-20(fp)
    3c14:	e0bffa17 	ldw	r2,-24(fp)
    3c18:	10bfffc4 	addi	r2,r2,-1
    3c1c:	e0bffa15 	stw	r2,-24(fp)
    3c20:	e0bffa17 	ldw	r2,-24(fp)
    3c24:	108000b0 	cmpltui	r2,r2,2
    3c28:	1000021e 	bne	r2,zero,3c34 <alt_avalon_i2c_master_transmit_using_interrupts+0x118>
    3c2c:	e0bfff17 	ldw	r2,-4(fp)
    3c30:	103fec26 	beq	r2,zero,3be4 <alt_avalon_i2c_master_transmit_using_interrupts+0xc8>
    3c34:	e0bfff17 	ldw	r2,-4(fp)
    3c38:	1000101e 	bne	r2,zero,3c7c <alt_avalon_i2c_master_transmit_using_interrupts+0x160>
    3c3c:	e0bffb17 	ldw	r2,-20(fp)
    3c40:	10800003 	ldbu	r2,0(r2)
    3c44:	10803fcc 	andi	r2,r2,255
    3c48:	e0fff803 	ldbu	r3,-32(fp)
    3c4c:	180f883a 	mov	r7,r3
    3c50:	000d883a 	mov	r6,zero
    3c54:	100b883a 	mov	r5,r2
    3c58:	e13ffc17 	ldw	r4,-16(fp)
    3c5c:	00031600 	call	3160 <alt_avalon_i2c_cmd_write>
    3c60:	e0bfff15 	stw	r2,-4(fp)
    3c64:	e0bffb17 	ldw	r2,-20(fp)
    3c68:	10800044 	addi	r2,r2,1
    3c6c:	e0bffb15 	stw	r2,-20(fp)
    3c70:	e0bffa17 	ldw	r2,-24(fp)
    3c74:	10bfffc4 	addi	r2,r2,-1
    3c78:	e0bffa15 	stw	r2,-24(fp)
    3c7c:	e0bfff17 	ldw	r2,-4(fp)
    3c80:	10001426 	beq	r2,zero,3cd4 <alt_avalon_i2c_master_transmit_using_interrupts+0x1b8>
    3c84:	00000d06 	br	3cbc <alt_avalon_i2c_master_transmit_using_interrupts+0x1a0>
    3c88:	e0bffe17 	ldw	r2,-8(fp)
    3c8c:	108002a8 	cmpgeui	r2,r2,10
    3c90:	1000021e 	bne	r2,zero,3c9c <alt_avalon_i2c_master_transmit_using_interrupts+0x180>
    3c94:	0109c404 	movi	r4,10000
    3c98:	00047b40 	call	47b4 <alt_busy_sleep>
    3c9c:	e0bffe17 	ldw	r2,-8(fp)
    3ca0:	10bfffc4 	addi	r2,r2,-1
    3ca4:	e0bffe15 	stw	r2,-8(fp)
    3ca8:	e0bffe17 	ldw	r2,-8(fp)
    3cac:	1000031e 	bne	r2,zero,3cbc <alt_avalon_i2c_master_transmit_using_interrupts+0x1a0>
    3cb0:	00bfff84 	movi	r2,-2
    3cb4:	e0bfff15 	stw	r2,-4(fp)
    3cb8:	00000306 	br	3cc8 <alt_avalon_i2c_master_transmit_using_interrupts+0x1ac>
    3cbc:	e13ffc17 	ldw	r4,-16(fp)
    3cc0:	0002fc80 	call	2fc8 <alt_avalon_i2c_is_busy>
    3cc4:	103ff01e 	bne	r2,zero,3c88 <alt_avalon_i2c_master_transmit_using_interrupts+0x16c>
    3cc8:	e13ffc17 	ldw	r4,-16(fp)
    3ccc:	0002c700 	call	2c70 <alt_avalon_i2c_disable>
    3cd0:	00000e06 	br	3d0c <alt_avalon_i2c_master_transmit_using_interrupts+0x1f0>
    3cd4:	e0bff803 	ldbu	r2,-32(fp)
    3cd8:	10000c26 	beq	r2,zero,3d0c <alt_avalon_i2c_master_transmit_using_interrupts+0x1f0>
    3cdc:	01400704 	movi	r5,28
    3ce0:	e13ffc17 	ldw	r4,-16(fp)
    3ce4:	00041b80 	call	41b8 <alt_avalon_i2c_int_clear>
    3ce8:	000b883a 	mov	r5,zero
    3cec:	e13ffc17 	ldw	r4,-16(fp)
    3cf0:	00044080 	call	4408 <alt_avalon_i2c_tfr_cmd_fifo_threshold_set>
    3cf4:	e0bffd17 	ldw	r2,-12(fp)
    3cf8:	00c00044 	movi	r3,1
    3cfc:	10c00215 	stw	r3,8(r2)
    3d00:	01400044 	movi	r5,1
    3d04:	e13ffc17 	ldw	r4,-16(fp)
    3d08:	00042600 	call	4260 <alt_avalon_i2c_int_enable>
    3d0c:	e0bfff17 	ldw	r2,-4(fp)
    3d10:	e037883a 	mov	sp,fp
    3d14:	dfc00117 	ldw	ra,4(sp)
    3d18:	df000017 	ldw	fp,0(sp)
    3d1c:	dec00204 	addi	sp,sp,8
    3d20:	f800283a 	ret

00003d24 <alt_avalon_i2c_master_receive>:
    3d24:	defff404 	addi	sp,sp,-48
    3d28:	dfc00b15 	stw	ra,44(sp)
    3d2c:	df000a15 	stw	fp,40(sp)
    3d30:	df000a04 	addi	fp,sp,40
    3d34:	e13ffa15 	stw	r4,-24(fp)
    3d38:	e17ff915 	stw	r5,-28(fp)
    3d3c:	e1bff815 	stw	r6,-32(fp)
    3d40:	3807883a 	mov	r3,r7
    3d44:	e0800217 	ldw	r2,8(fp)
    3d48:	e0fff705 	stb	r3,-36(fp)
    3d4c:	e0bff605 	stb	r2,-40(fp)
    3d50:	e03ffc15 	stw	zero,-16(fp)
    3d54:	e03ffe15 	stw	zero,-8(fp)
    3d58:	e03ffd15 	stw	zero,-12(fp)
    3d5c:	e0bff817 	ldw	r2,-32(fp)
    3d60:	1000021e 	bne	r2,zero,3d6c <alt_avalon_i2c_master_receive+0x48>
    3d64:	0005883a 	mov	r2,zero
    3d68:	00006c06 	br	3f1c <alt_avalon_i2c_master_receive+0x1f8>
    3d6c:	e0bff703 	ldbu	r2,-36(fp)
    3d70:	10000a1e 	bne	r2,zero,3d9c <alt_avalon_i2c_master_receive+0x78>
    3d74:	e13ffa17 	ldw	r4,-24(fp)
    3d78:	0002bd80 	call	2bd8 <alt_avalon_i2c_enable>
    3d7c:	e0bffc15 	stw	r2,-16(fp)
    3d80:	e0bffc17 	ldw	r2,-16(fp)
    3d84:	10000226 	beq	r2,zero,3d90 <alt_avalon_i2c_master_receive+0x6c>
    3d88:	e0bffc17 	ldw	r2,-16(fp)
    3d8c:	00006306 	br	3f1c <alt_avalon_i2c_master_receive+0x1f8>
    3d90:	01400704 	movi	r5,28
    3d94:	e13ffa17 	ldw	r4,-24(fp)
    3d98:	00041b80 	call	41b8 <alt_avalon_i2c_int_clear>
    3d9c:	e0bff703 	ldbu	r2,-36(fp)
    3da0:	100d883a 	mov	r6,r2
    3da4:	01400044 	movi	r5,1
    3da8:	e13ffa17 	ldw	r4,-24(fp)
    3dac:	000324c0 	call	324c <alt_avalon_i2c_send_address>
    3db0:	e0bffc15 	stw	r2,-16(fp)
    3db4:	e0bffc17 	ldw	r2,-16(fp)
    3db8:	1000341e 	bne	r2,zero,3e8c <alt_avalon_i2c_master_receive+0x168>
    3dbc:	00001906 	br	3e24 <alt_avalon_i2c_master_receive+0x100>
    3dc0:	000f883a 	mov	r7,zero
    3dc4:	000d883a 	mov	r6,zero
    3dc8:	000b883a 	mov	r5,zero
    3dcc:	e13ffa17 	ldw	r4,-24(fp)
    3dd0:	00031600 	call	3160 <alt_avalon_i2c_cmd_write>
    3dd4:	e0bffc15 	stw	r2,-16(fp)
    3dd8:	e0bffd17 	ldw	r2,-12(fp)
    3ddc:	10800044 	addi	r2,r2,1
    3de0:	e0bffd15 	stw	r2,-12(fp)
    3de4:	e0bffc17 	ldw	r2,-16(fp)
    3de8:	10000e1e 	bne	r2,zero,3e24 <alt_avalon_i2c_master_receive+0x100>
    3dec:	e0bffb04 	addi	r2,fp,-20
    3df0:	100f883a 	mov	r7,r2
    3df4:	000d883a 	mov	r6,zero
    3df8:	e17ff917 	ldw	r5,-28(fp)
    3dfc:	e13ffa17 	ldw	r4,-24(fp)
    3e00:	000300c0 	call	300c <alt_avalon_i2c_rx_read_available>
    3e04:	e0bffb17 	ldw	r2,-20(fp)
    3e08:	e0fff917 	ldw	r3,-28(fp)
    3e0c:	1885883a 	add	r2,r3,r2
    3e10:	e0bff915 	stw	r2,-28(fp)
    3e14:	e0bffb17 	ldw	r2,-20(fp)
    3e18:	e0fffe17 	ldw	r3,-8(fp)
    3e1c:	1885883a 	add	r2,r3,r2
    3e20:	e0bffe15 	stw	r2,-8(fp)
    3e24:	e0bff817 	ldw	r2,-32(fp)
    3e28:	10bfffc4 	addi	r2,r2,-1
    3e2c:	e0fffd17 	ldw	r3,-12(fp)
    3e30:	1880022e 	bgeu	r3,r2,3e3c <alt_avalon_i2c_master_receive+0x118>
    3e34:	e0bffc17 	ldw	r2,-16(fp)
    3e38:	103fe126 	beq	r2,zero,3dc0 <alt_avalon_i2c_master_receive+0x9c>
    3e3c:	e0bffc17 	ldw	r2,-16(fp)
    3e40:	1000121e 	bne	r2,zero,3e8c <alt_avalon_i2c_master_receive+0x168>
    3e44:	e0bff603 	ldbu	r2,-40(fp)
    3e48:	100f883a 	mov	r7,r2
    3e4c:	000d883a 	mov	r6,zero
    3e50:	000b883a 	mov	r5,zero
    3e54:	e13ffa17 	ldw	r4,-24(fp)
    3e58:	00031600 	call	3160 <alt_avalon_i2c_cmd_write>
    3e5c:	e0bffc15 	stw	r2,-16(fp)
    3e60:	00000a06 	br	3e8c <alt_avalon_i2c_master_receive+0x168>
    3e64:	e17ff917 	ldw	r5,-28(fp)
    3e68:	e13ffa17 	ldw	r4,-24(fp)
    3e6c:	00030b80 	call	30b8 <alt_avalon_i2c_rx_read>
    3e70:	e0bffc15 	stw	r2,-16(fp)
    3e74:	e0bff917 	ldw	r2,-28(fp)
    3e78:	10800044 	addi	r2,r2,1
    3e7c:	e0bff915 	stw	r2,-28(fp)
    3e80:	e0bffe17 	ldw	r2,-8(fp)
    3e84:	10800044 	addi	r2,r2,1
    3e88:	e0bffe15 	stw	r2,-8(fp)
    3e8c:	e0fffe17 	ldw	r3,-8(fp)
    3e90:	e0bff817 	ldw	r2,-32(fp)
    3e94:	1880022e 	bgeu	r3,r2,3ea0 <alt_avalon_i2c_master_receive+0x17c>
    3e98:	e0bffc17 	ldw	r2,-16(fp)
    3e9c:	103ff126 	beq	r2,zero,3e64 <alt_avalon_i2c_master_receive+0x140>
    3ea0:	e0bff603 	ldbu	r2,-40(fp)
    3ea4:	1000021e 	bne	r2,zero,3eb0 <alt_avalon_i2c_master_receive+0x18c>
    3ea8:	e0bffc17 	ldw	r2,-16(fp)
    3eac:	10001a26 	beq	r2,zero,3f18 <alt_avalon_i2c_master_receive+0x1f4>
    3eb0:	e0bff817 	ldw	r2,-32(fp)
    3eb4:	1089c424 	muli	r2,r2,10000
    3eb8:	e0bfff15 	stw	r2,-4(fp)
    3ebc:	00000d06 	br	3ef4 <alt_avalon_i2c_master_receive+0x1d0>
    3ec0:	e0bfff17 	ldw	r2,-4(fp)
    3ec4:	108002a8 	cmpgeui	r2,r2,10
    3ec8:	1000021e 	bne	r2,zero,3ed4 <alt_avalon_i2c_master_receive+0x1b0>
    3ecc:	0109c404 	movi	r4,10000
    3ed0:	00047b40 	call	47b4 <alt_busy_sleep>
    3ed4:	e0bfff17 	ldw	r2,-4(fp)
    3ed8:	10bfffc4 	addi	r2,r2,-1
    3edc:	e0bfff15 	stw	r2,-4(fp)
    3ee0:	e0bfff17 	ldw	r2,-4(fp)
    3ee4:	1000031e 	bne	r2,zero,3ef4 <alt_avalon_i2c_master_receive+0x1d0>
    3ee8:	00bfff84 	movi	r2,-2
    3eec:	e0bffc15 	stw	r2,-16(fp)
    3ef0:	00000306 	br	3f00 <alt_avalon_i2c_master_receive+0x1dc>
    3ef4:	e13ffa17 	ldw	r4,-24(fp)
    3ef8:	0002fc80 	call	2fc8 <alt_avalon_i2c_is_busy>
    3efc:	103ff01e 	bne	r2,zero,3ec0 <alt_avalon_i2c_master_receive+0x19c>
    3f00:	e0bffc04 	addi	r2,fp,-16
    3f04:	100b883a 	mov	r5,r2
    3f08:	e13ffa17 	ldw	r4,-24(fp)
    3f0c:	00033a80 	call	33a8 <alt_avalon_i2c_check_nack>
    3f10:	e13ffa17 	ldw	r4,-24(fp)
    3f14:	0002c700 	call	2c70 <alt_avalon_i2c_disable>
    3f18:	e0bffc17 	ldw	r2,-16(fp)
    3f1c:	e037883a 	mov	sp,fp
    3f20:	dfc00117 	ldw	ra,4(sp)
    3f24:	df000017 	ldw	fp,0(sp)
    3f28:	dec00204 	addi	sp,sp,8
    3f2c:	f800283a 	ret

00003f30 <alt_avalon_i2c_master_receive_using_interrupts>:
    3f30:	defff504 	addi	sp,sp,-44
    3f34:	dfc00a15 	stw	ra,40(sp)
    3f38:	df000915 	stw	fp,36(sp)
    3f3c:	df000904 	addi	fp,sp,36
    3f40:	e13ffb15 	stw	r4,-20(fp)
    3f44:	e17ffa15 	stw	r5,-24(fp)
    3f48:	e1bff915 	stw	r6,-28(fp)
    3f4c:	3807883a 	mov	r3,r7
    3f50:	e0800217 	ldw	r2,8(fp)
    3f54:	e0fff805 	stb	r3,-32(fp)
    3f58:	e0bff705 	stb	r2,-36(fp)
    3f5c:	e03fff15 	stw	zero,-4(fp)
    3f60:	e0bffb17 	ldw	r2,-20(fp)
    3f64:	10800717 	ldw	r2,28(r2)
    3f68:	e0bffc15 	stw	r2,-16(fp)
    3f6c:	e03ffd15 	stw	zero,-12(fp)
    3f70:	e0bff917 	ldw	r2,-28(fp)
    3f74:	1000021e 	bne	r2,zero,3f80 <alt_avalon_i2c_master_receive_using_interrupts+0x50>
    3f78:	0005883a 	mov	r2,zero
    3f7c:	00006206 	br	4108 <alt_avalon_i2c_master_receive_using_interrupts+0x1d8>
    3f80:	e0bffb17 	ldw	r2,-20(fp)
    3f84:	10c00617 	ldw	r3,24(r2)
    3f88:	00800034 	movhi	r2,0
    3f8c:	108a1604 	addi	r2,r2,10328
    3f90:	18800226 	beq	r3,r2,3f9c <alt_avalon_i2c_master_receive_using_interrupts+0x6c>
    3f94:	00bfff44 	movi	r2,-3
    3f98:	00005b06 	br	4108 <alt_avalon_i2c_master_receive_using_interrupts+0x1d8>
    3f9c:	e0bff803 	ldbu	r2,-32(fp)
    3fa0:	10000a1e 	bne	r2,zero,3fcc <alt_avalon_i2c_master_receive_using_interrupts+0x9c>
    3fa4:	e13ffb17 	ldw	r4,-20(fp)
    3fa8:	0002bd80 	call	2bd8 <alt_avalon_i2c_enable>
    3fac:	e0bfff15 	stw	r2,-4(fp)
    3fb0:	e0bfff17 	ldw	r2,-4(fp)
    3fb4:	10000226 	beq	r2,zero,3fc0 <alt_avalon_i2c_master_receive_using_interrupts+0x90>
    3fb8:	e0bfff17 	ldw	r2,-4(fp)
    3fbc:	00005206 	br	4108 <alt_avalon_i2c_master_receive_using_interrupts+0x1d8>
    3fc0:	01400704 	movi	r5,28
    3fc4:	e13ffb17 	ldw	r4,-20(fp)
    3fc8:	00041b80 	call	41b8 <alt_avalon_i2c_int_clear>
    3fcc:	e0bff803 	ldbu	r2,-32(fp)
    3fd0:	100d883a 	mov	r6,r2
    3fd4:	01400044 	movi	r5,1
    3fd8:	e13ffb17 	ldw	r4,-20(fp)
    3fdc:	000324c0 	call	324c <alt_avalon_i2c_send_address>
    3fe0:	e0bfff15 	stw	r2,-4(fp)
    3fe4:	e0bfff17 	ldw	r2,-4(fp)
    3fe8:	1000191e 	bne	r2,zero,4050 <alt_avalon_i2c_master_receive_using_interrupts+0x120>
    3fec:	00000906 	br	4014 <alt_avalon_i2c_master_receive_using_interrupts+0xe4>
    3ff0:	000f883a 	mov	r7,zero
    3ff4:	000d883a 	mov	r6,zero
    3ff8:	000b883a 	mov	r5,zero
    3ffc:	e13ffb17 	ldw	r4,-20(fp)
    4000:	00031600 	call	3160 <alt_avalon_i2c_cmd_write>
    4004:	e0bfff15 	stw	r2,-4(fp)
    4008:	e0bffd17 	ldw	r2,-12(fp)
    400c:	10800044 	addi	r2,r2,1
    4010:	e0bffd15 	stw	r2,-12(fp)
    4014:	e0bff917 	ldw	r2,-28(fp)
    4018:	10bfffc4 	addi	r2,r2,-1
    401c:	e0fffd17 	ldw	r3,-12(fp)
    4020:	1880022e 	bgeu	r3,r2,402c <alt_avalon_i2c_master_receive_using_interrupts+0xfc>
    4024:	e0bfff17 	ldw	r2,-4(fp)
    4028:	103ff126 	beq	r2,zero,3ff0 <alt_avalon_i2c_master_receive_using_interrupts+0xc0>
    402c:	e0bfff17 	ldw	r2,-4(fp)
    4030:	1000071e 	bne	r2,zero,4050 <alt_avalon_i2c_master_receive_using_interrupts+0x120>
    4034:	e0bff703 	ldbu	r2,-36(fp)
    4038:	100f883a 	mov	r7,r2
    403c:	000d883a 	mov	r6,zero
    4040:	000b883a 	mov	r5,zero
    4044:	e13ffb17 	ldw	r4,-20(fp)
    4048:	00031600 	call	3160 <alt_avalon_i2c_cmd_write>
    404c:	e0bfff15 	stw	r2,-4(fp)
    4050:	e0bfff17 	ldw	r2,-4(fp)
    4054:	10001726 	beq	r2,zero,40b4 <alt_avalon_i2c_master_receive_using_interrupts+0x184>
    4058:	e0bff917 	ldw	r2,-28(fp)
    405c:	1089c424 	muli	r2,r2,10000
    4060:	e0bffe15 	stw	r2,-8(fp)
    4064:	00000d06 	br	409c <alt_avalon_i2c_master_receive_using_interrupts+0x16c>
    4068:	e0bffe17 	ldw	r2,-8(fp)
    406c:	108002a8 	cmpgeui	r2,r2,10
    4070:	1000021e 	bne	r2,zero,407c <alt_avalon_i2c_master_receive_using_interrupts+0x14c>
    4074:	0109c404 	movi	r4,10000
    4078:	00047b40 	call	47b4 <alt_busy_sleep>
    407c:	e0bffe17 	ldw	r2,-8(fp)
    4080:	10bfffc4 	addi	r2,r2,-1
    4084:	e0bffe15 	stw	r2,-8(fp)
    4088:	e0bffe17 	ldw	r2,-8(fp)
    408c:	1000031e 	bne	r2,zero,409c <alt_avalon_i2c_master_receive_using_interrupts+0x16c>
    4090:	00bfff84 	movi	r2,-2
    4094:	e0bfff15 	stw	r2,-4(fp)
    4098:	00000306 	br	40a8 <alt_avalon_i2c_master_receive_using_interrupts+0x178>
    409c:	e13ffb17 	ldw	r4,-20(fp)
    40a0:	0002fc80 	call	2fc8 <alt_avalon_i2c_is_busy>
    40a4:	103ff01e 	bne	r2,zero,4068 <alt_avalon_i2c_master_receive_using_interrupts+0x138>
    40a8:	e13ffb17 	ldw	r4,-20(fp)
    40ac:	0002c700 	call	2c70 <alt_avalon_i2c_disable>
    40b0:	00001406 	br	4104 <alt_avalon_i2c_master_receive_using_interrupts+0x1d4>
    40b4:	e0bff703 	ldbu	r2,-36(fp)
    40b8:	10001226 	beq	r2,zero,4104 <alt_avalon_i2c_master_receive_using_interrupts+0x1d4>
    40bc:	01400704 	movi	r5,28
    40c0:	e13ffb17 	ldw	r4,-20(fp)
    40c4:	00041b80 	call	41b8 <alt_avalon_i2c_int_clear>
    40c8:	000b883a 	mov	r5,zero
    40cc:	e13ffb17 	ldw	r4,-20(fp)
    40d0:	00043580 	call	4358 <alt_avalon_i2c_rx_fifo_threshold_set>
    40d4:	e0bffc17 	ldw	r2,-16(fp)
    40d8:	00c00084 	movi	r3,2
    40dc:	10c00215 	stw	r3,8(r2)
    40e0:	e0bffc17 	ldw	r2,-16(fp)
    40e4:	e0fffa17 	ldw	r3,-24(fp)
    40e8:	10c00015 	stw	r3,0(r2)
    40ec:	e0bffc17 	ldw	r2,-16(fp)
    40f0:	e0fff917 	ldw	r3,-28(fp)
    40f4:	10c00115 	stw	r3,4(r2)
    40f8:	01400084 	movi	r5,2
    40fc:	e13ffb17 	ldw	r4,-20(fp)
    4100:	00042600 	call	4260 <alt_avalon_i2c_int_enable>
    4104:	e0bfff17 	ldw	r2,-4(fp)
    4108:	e037883a 	mov	sp,fp
    410c:	dfc00117 	ldw	ra,4(sp)
    4110:	df000017 	ldw	fp,0(sp)
    4114:	dec00204 	addi	sp,sp,8
    4118:	f800283a 	ret

0000411c <alt_avalon_i2c_int_status_get>:
    411c:	defffd04 	addi	sp,sp,-12
    4120:	df000215 	stw	fp,8(sp)
    4124:	df000204 	addi	fp,sp,8
    4128:	e13fff15 	stw	r4,-4(fp)
    412c:	e17ffe15 	stw	r5,-8(fp)
    4130:	e0bfff17 	ldw	r2,-4(fp)
    4134:	10800317 	ldw	r2,12(r2)
    4138:	10800404 	addi	r2,r2,16
    413c:	10c00037 	ldwio	r3,0(r2)
    4140:	e0bfff17 	ldw	r2,-4(fp)
    4144:	10800317 	ldw	r2,12(r2)
    4148:	10800304 	addi	r2,r2,12
    414c:	10800037 	ldwio	r2,0(r2)
    4150:	1884703a 	and	r2,r3,r2
    4154:	1007883a 	mov	r3,r2
    4158:	e0bffe17 	ldw	r2,-8(fp)
    415c:	10c00015 	stw	r3,0(r2)
    4160:	0001883a 	nop
    4164:	e037883a 	mov	sp,fp
    4168:	df000017 	ldw	fp,0(sp)
    416c:	dec00104 	addi	sp,sp,4
    4170:	f800283a 	ret

00004174 <alt_avalon_i2c_int_raw_status_get>:
    4174:	defffd04 	addi	sp,sp,-12
    4178:	df000215 	stw	fp,8(sp)
    417c:	df000204 	addi	fp,sp,8
    4180:	e13fff15 	stw	r4,-4(fp)
    4184:	e17ffe15 	stw	r5,-8(fp)
    4188:	e0bfff17 	ldw	r2,-4(fp)
    418c:	10800317 	ldw	r2,12(r2)
    4190:	10800404 	addi	r2,r2,16
    4194:	10800037 	ldwio	r2,0(r2)
    4198:	1007883a 	mov	r3,r2
    419c:	e0bffe17 	ldw	r2,-8(fp)
    41a0:	10c00015 	stw	r3,0(r2)
    41a4:	0001883a 	nop
    41a8:	e037883a 	mov	sp,fp
    41ac:	df000017 	ldw	fp,0(sp)
    41b0:	dec00104 	addi	sp,sp,4
    41b4:	f800283a 	ret

000041b8 <alt_avalon_i2c_int_clear>:
    41b8:	defffd04 	addi	sp,sp,-12
    41bc:	df000215 	stw	fp,8(sp)
    41c0:	df000204 	addi	fp,sp,8
    41c4:	e13fff15 	stw	r4,-4(fp)
    41c8:	e17ffe15 	stw	r5,-8(fp)
    41cc:	e0bfff17 	ldw	r2,-4(fp)
    41d0:	10800317 	ldw	r2,12(r2)
    41d4:	10800404 	addi	r2,r2,16
    41d8:	e0fffe17 	ldw	r3,-8(fp)
    41dc:	10c00035 	stwio	r3,0(r2)
    41e0:	0001883a 	nop
    41e4:	e037883a 	mov	sp,fp
    41e8:	df000017 	ldw	fp,0(sp)
    41ec:	dec00104 	addi	sp,sp,4
    41f0:	f800283a 	ret

000041f4 <alt_avalon_i2c_int_disable>:
    41f4:	defffb04 	addi	sp,sp,-20
    41f8:	dfc00415 	stw	ra,16(sp)
    41fc:	df000315 	stw	fp,12(sp)
    4200:	df000304 	addi	fp,sp,12
    4204:	e13ffe15 	stw	r4,-8(fp)
    4208:	e17ffd15 	stw	r5,-12(fp)
    420c:	e0bfff04 	addi	r2,fp,-4
    4210:	100b883a 	mov	r5,r2
    4214:	e13ffe17 	ldw	r4,-8(fp)
    4218:	00042c80 	call	42c8 <alt_avalon_i2c_enabled_ints_get>
    421c:	e0bffd17 	ldw	r2,-12(fp)
    4220:	0086303a 	nor	r3,zero,r2
    4224:	e0bfff17 	ldw	r2,-4(fp)
    4228:	1884703a 	and	r2,r3,r2
    422c:	e0bfff15 	stw	r2,-4(fp)
    4230:	e0bffe17 	ldw	r2,-8(fp)
    4234:	10800317 	ldw	r2,12(r2)
    4238:	10800304 	addi	r2,r2,12
    423c:	e0ffff17 	ldw	r3,-4(fp)
    4240:	18c007cc 	andi	r3,r3,31
    4244:	10c00035 	stwio	r3,0(r2)
    4248:	0001883a 	nop
    424c:	e037883a 	mov	sp,fp
    4250:	dfc00117 	ldw	ra,4(sp)
    4254:	df000017 	ldw	fp,0(sp)
    4258:	dec00204 	addi	sp,sp,8
    425c:	f800283a 	ret

00004260 <alt_avalon_i2c_int_enable>:
    4260:	defffb04 	addi	sp,sp,-20
    4264:	dfc00415 	stw	ra,16(sp)
    4268:	df000315 	stw	fp,12(sp)
    426c:	df000304 	addi	fp,sp,12
    4270:	e13ffe15 	stw	r4,-8(fp)
    4274:	e17ffd15 	stw	r5,-12(fp)
    4278:	e0bfff04 	addi	r2,fp,-4
    427c:	100b883a 	mov	r5,r2
    4280:	e13ffe17 	ldw	r4,-8(fp)
    4284:	00042c80 	call	42c8 <alt_avalon_i2c_enabled_ints_get>
    4288:	e0ffff17 	ldw	r3,-4(fp)
    428c:	e0bffd17 	ldw	r2,-12(fp)
    4290:	1884b03a 	or	r2,r3,r2
    4294:	e0bfff15 	stw	r2,-4(fp)
    4298:	e0bffe17 	ldw	r2,-8(fp)
    429c:	10800317 	ldw	r2,12(r2)
    42a0:	10800304 	addi	r2,r2,12
    42a4:	e0ffff17 	ldw	r3,-4(fp)
    42a8:	18c007cc 	andi	r3,r3,31
    42ac:	10c00035 	stwio	r3,0(r2)
    42b0:	0001883a 	nop
    42b4:	e037883a 	mov	sp,fp
    42b8:	dfc00117 	ldw	ra,4(sp)
    42bc:	df000017 	ldw	fp,0(sp)
    42c0:	dec00204 	addi	sp,sp,8
    42c4:	f800283a 	ret

000042c8 <alt_avalon_i2c_enabled_ints_get>:
    42c8:	defffd04 	addi	sp,sp,-12
    42cc:	df000215 	stw	fp,8(sp)
    42d0:	df000204 	addi	fp,sp,8
    42d4:	e13fff15 	stw	r4,-4(fp)
    42d8:	e17ffe15 	stw	r5,-8(fp)
    42dc:	e0bfff17 	ldw	r2,-4(fp)
    42e0:	10800317 	ldw	r2,12(r2)
    42e4:	10800304 	addi	r2,r2,12
    42e8:	10800037 	ldwio	r2,0(r2)
    42ec:	10c007cc 	andi	r3,r2,31
    42f0:	e0bffe17 	ldw	r2,-8(fp)
    42f4:	10c00015 	stw	r3,0(r2)
    42f8:	0001883a 	nop
    42fc:	e037883a 	mov	sp,fp
    4300:	df000017 	ldw	fp,0(sp)
    4304:	dec00104 	addi	sp,sp,4
    4308:	f800283a 	ret

0000430c <alt_avalon_i2c_rx_fifo_threshold_get>:
    430c:	defffd04 	addi	sp,sp,-12
    4310:	df000215 	stw	fp,8(sp)
    4314:	df000204 	addi	fp,sp,8
    4318:	e13fff15 	stw	r4,-4(fp)
    431c:	e17ffe15 	stw	r5,-8(fp)
    4320:	e0bfff17 	ldw	r2,-4(fp)
    4324:	10800317 	ldw	r2,12(r2)
    4328:	10800204 	addi	r2,r2,8
    432c:	10800037 	ldwio	r2,0(r2)
    4330:	1005d13a 	srai	r2,r2,4
    4334:	108000cc 	andi	r2,r2,3
    4338:	1007883a 	mov	r3,r2
    433c:	e0bffe17 	ldw	r2,-8(fp)
    4340:	10c00015 	stw	r3,0(r2)
    4344:	0001883a 	nop
    4348:	e037883a 	mov	sp,fp
    434c:	df000017 	ldw	fp,0(sp)
    4350:	dec00104 	addi	sp,sp,4
    4354:	f800283a 	ret

00004358 <alt_avalon_i2c_rx_fifo_threshold_set>:
    4358:	defffd04 	addi	sp,sp,-12
    435c:	df000215 	stw	fp,8(sp)
    4360:	df000204 	addi	fp,sp,8
    4364:	e13fff15 	stw	r4,-4(fp)
    4368:	e17ffe15 	stw	r5,-8(fp)
    436c:	e0bfff17 	ldw	r2,-4(fp)
    4370:	10800317 	ldw	r2,12(r2)
    4374:	10800204 	addi	r2,r2,8
    4378:	e0ffff17 	ldw	r3,-4(fp)
    437c:	18c00317 	ldw	r3,12(r3)
    4380:	18c00204 	addi	r3,r3,8
    4384:	18c00037 	ldwio	r3,0(r3)
    4388:	1809883a 	mov	r4,r3
    438c:	00fff3c4 	movi	r3,-49
    4390:	20c8703a 	and	r4,r4,r3
    4394:	e0fffe17 	ldw	r3,-8(fp)
    4398:	1806913a 	slli	r3,r3,4
    439c:	18c00c0c 	andi	r3,r3,48
    43a0:	20c6b03a 	or	r3,r4,r3
    43a4:	10c00035 	stwio	r3,0(r2)
    43a8:	0001883a 	nop
    43ac:	e037883a 	mov	sp,fp
    43b0:	df000017 	ldw	fp,0(sp)
    43b4:	dec00104 	addi	sp,sp,4
    43b8:	f800283a 	ret

000043bc <alt_avalon_i2c_tfr_cmd_fifo_threshold_get>:
    43bc:	defffd04 	addi	sp,sp,-12
    43c0:	df000215 	stw	fp,8(sp)
    43c4:	df000204 	addi	fp,sp,8
    43c8:	e13fff15 	stw	r4,-4(fp)
    43cc:	e17ffe15 	stw	r5,-8(fp)
    43d0:	e0bfff17 	ldw	r2,-4(fp)
    43d4:	10800317 	ldw	r2,12(r2)
    43d8:	10800204 	addi	r2,r2,8
    43dc:	10800037 	ldwio	r2,0(r2)
    43e0:	1005d0ba 	srai	r2,r2,2
    43e4:	108000cc 	andi	r2,r2,3
    43e8:	1007883a 	mov	r3,r2
    43ec:	e0bffe17 	ldw	r2,-8(fp)
    43f0:	10c00015 	stw	r3,0(r2)
    43f4:	0001883a 	nop
    43f8:	e037883a 	mov	sp,fp
    43fc:	df000017 	ldw	fp,0(sp)
    4400:	dec00104 	addi	sp,sp,4
    4404:	f800283a 	ret

00004408 <alt_avalon_i2c_tfr_cmd_fifo_threshold_set>:
    4408:	defffd04 	addi	sp,sp,-12
    440c:	df000215 	stw	fp,8(sp)
    4410:	df000204 	addi	fp,sp,8
    4414:	e13fff15 	stw	r4,-4(fp)
    4418:	e17ffe15 	stw	r5,-8(fp)
    441c:	e0bfff17 	ldw	r2,-4(fp)
    4420:	10800317 	ldw	r2,12(r2)
    4424:	10800204 	addi	r2,r2,8
    4428:	e0ffff17 	ldw	r3,-4(fp)
    442c:	18c00317 	ldw	r3,12(r3)
    4430:	18c00204 	addi	r3,r3,8
    4434:	18c00037 	ldwio	r3,0(r3)
    4438:	1809883a 	mov	r4,r3
    443c:	00fffcc4 	movi	r3,-13
    4440:	20c8703a 	and	r4,r4,r3
    4444:	e0fffe17 	ldw	r3,-8(fp)
    4448:	180690ba 	slli	r3,r3,2
    444c:	18c0030c 	andi	r3,r3,12
    4450:	20c6b03a 	or	r3,r4,r3
    4454:	10c00035 	stwio	r3,0(r2)
    4458:	0001883a 	nop
    445c:	e037883a 	mov	sp,fp
    4460:	df000017 	ldw	fp,0(sp)
    4464:	dec00104 	addi	sp,sp,4
    4468:	f800283a 	ret

0000446c <altera_avalon_jtag_uart_read_fd>:
    446c:	defffa04 	addi	sp,sp,-24
    4470:	dfc00515 	stw	ra,20(sp)
    4474:	df000415 	stw	fp,16(sp)
    4478:	df000404 	addi	fp,sp,16
    447c:	e13ffe15 	stw	r4,-8(fp)
    4480:	e17ffd15 	stw	r5,-12(fp)
    4484:	e1bffc15 	stw	r6,-16(fp)
    4488:	e0bffe17 	ldw	r2,-8(fp)
    448c:	10800017 	ldw	r2,0(r2)
    4490:	e0bfff15 	stw	r2,-4(fp)
    4494:	e0bfff17 	ldw	r2,-4(fp)
    4498:	10c00a04 	addi	r3,r2,40
    449c:	e0bffe17 	ldw	r2,-8(fp)
    44a0:	10800217 	ldw	r2,8(r2)
    44a4:	100f883a 	mov	r7,r2
    44a8:	e1bffc17 	ldw	r6,-16(fp)
    44ac:	e17ffd17 	ldw	r5,-12(fp)
    44b0:	1809883a 	mov	r4,r3
    44b4:	000452c0 	call	452c <altera_avalon_jtag_uart_read>
    44b8:	e037883a 	mov	sp,fp
    44bc:	dfc00117 	ldw	ra,4(sp)
    44c0:	df000017 	ldw	fp,0(sp)
    44c4:	dec00204 	addi	sp,sp,8
    44c8:	f800283a 	ret

000044cc <altera_avalon_jtag_uart_write_fd>:
    44cc:	defffa04 	addi	sp,sp,-24
    44d0:	dfc00515 	stw	ra,20(sp)
    44d4:	df000415 	stw	fp,16(sp)
    44d8:	df000404 	addi	fp,sp,16
    44dc:	e13ffe15 	stw	r4,-8(fp)
    44e0:	e17ffd15 	stw	r5,-12(fp)
    44e4:	e1bffc15 	stw	r6,-16(fp)
    44e8:	e0bffe17 	ldw	r2,-8(fp)
    44ec:	10800017 	ldw	r2,0(r2)
    44f0:	e0bfff15 	stw	r2,-4(fp)
    44f4:	e0bfff17 	ldw	r2,-4(fp)
    44f8:	10c00a04 	addi	r3,r2,40
    44fc:	e0bffe17 	ldw	r2,-8(fp)
    4500:	10800217 	ldw	r2,8(r2)
    4504:	100f883a 	mov	r7,r2
    4508:	e1bffc17 	ldw	r6,-16(fp)
    450c:	e17ffd17 	ldw	r5,-12(fp)
    4510:	1809883a 	mov	r4,r3
    4514:	00046180 	call	4618 <altera_avalon_jtag_uart_write>
    4518:	e037883a 	mov	sp,fp
    451c:	dfc00117 	ldw	ra,4(sp)
    4520:	df000017 	ldw	fp,0(sp)
    4524:	dec00204 	addi	sp,sp,8
    4528:	f800283a 	ret

0000452c <altera_avalon_jtag_uart_read>:
    452c:	defff704 	addi	sp,sp,-36
    4530:	df000815 	stw	fp,32(sp)
    4534:	df000804 	addi	fp,sp,32
    4538:	e13ffb15 	stw	r4,-20(fp)
    453c:	e17ffa15 	stw	r5,-24(fp)
    4540:	e1bff915 	stw	r6,-28(fp)
    4544:	e1fff815 	stw	r7,-32(fp)
    4548:	e0bffb17 	ldw	r2,-20(fp)
    454c:	10800017 	ldw	r2,0(r2)
    4550:	e0bffe15 	stw	r2,-8(fp)
    4554:	e0bffa17 	ldw	r2,-24(fp)
    4558:	e0bfff15 	stw	r2,-4(fp)
    455c:	e0bff917 	ldw	r2,-28(fp)
    4560:	e0fffa17 	ldw	r3,-24(fp)
    4564:	1885883a 	add	r2,r3,r2
    4568:	e0bffd15 	stw	r2,-12(fp)
    456c:	00001206 	br	45b8 <altera_avalon_jtag_uart_read+0x8c>
    4570:	e0bffe17 	ldw	r2,-8(fp)
    4574:	10800037 	ldwio	r2,0(r2)
    4578:	e0bffc15 	stw	r2,-16(fp)
    457c:	e0bffc17 	ldw	r2,-16(fp)
    4580:	10a0000c 	andi	r2,r2,32768
    4584:	10000626 	beq	r2,zero,45a0 <altera_avalon_jtag_uart_read+0x74>
    4588:	e0bfff17 	ldw	r2,-4(fp)
    458c:	10c00044 	addi	r3,r2,1
    4590:	e0ffff15 	stw	r3,-4(fp)
    4594:	e0fffc17 	ldw	r3,-16(fp)
    4598:	10c00005 	stb	r3,0(r2)
    459c:	00000606 	br	45b8 <altera_avalon_jtag_uart_read+0x8c>
    45a0:	e0ffff17 	ldw	r3,-4(fp)
    45a4:	e0bffa17 	ldw	r2,-24(fp)
    45a8:	1880071e 	bne	r3,r2,45c8 <altera_avalon_jtag_uart_read+0x9c>
    45ac:	e0bff817 	ldw	r2,-32(fp)
    45b0:	1090000c 	andi	r2,r2,16384
    45b4:	1000061e 	bne	r2,zero,45d0 <altera_avalon_jtag_uart_read+0xa4>
    45b8:	e0ffff17 	ldw	r3,-4(fp)
    45bc:	e0bffd17 	ldw	r2,-12(fp)
    45c0:	18bfeb36 	bltu	r3,r2,4570 <altera_avalon_jtag_uart_read+0x44>
    45c4:	00000306 	br	45d4 <altera_avalon_jtag_uart_read+0xa8>
    45c8:	0001883a 	nop
    45cc:	00000106 	br	45d4 <altera_avalon_jtag_uart_read+0xa8>
    45d0:	0001883a 	nop
    45d4:	e0ffff17 	ldw	r3,-4(fp)
    45d8:	e0bffa17 	ldw	r2,-24(fp)
    45dc:	18800426 	beq	r3,r2,45f0 <altera_avalon_jtag_uart_read+0xc4>
    45e0:	e0ffff17 	ldw	r3,-4(fp)
    45e4:	e0bffa17 	ldw	r2,-24(fp)
    45e8:	1885c83a 	sub	r2,r3,r2
    45ec:	00000606 	br	4608 <altera_avalon_jtag_uart_read+0xdc>
    45f0:	e0bff817 	ldw	r2,-32(fp)
    45f4:	1090000c 	andi	r2,r2,16384
    45f8:	10000226 	beq	r2,zero,4604 <altera_avalon_jtag_uart_read+0xd8>
    45fc:	00bffd44 	movi	r2,-11
    4600:	00000106 	br	4608 <altera_avalon_jtag_uart_read+0xdc>
    4604:	00bffec4 	movi	r2,-5
    4608:	e037883a 	mov	sp,fp
    460c:	df000017 	ldw	fp,0(sp)
    4610:	dec00104 	addi	sp,sp,4
    4614:	f800283a 	ret

00004618 <altera_avalon_jtag_uart_write>:
    4618:	defff904 	addi	sp,sp,-28
    461c:	df000615 	stw	fp,24(sp)
    4620:	df000604 	addi	fp,sp,24
    4624:	e13ffd15 	stw	r4,-12(fp)
    4628:	e17ffc15 	stw	r5,-16(fp)
    462c:	e1bffb15 	stw	r6,-20(fp)
    4630:	e1fffa15 	stw	r7,-24(fp)
    4634:	e0bffd17 	ldw	r2,-12(fp)
    4638:	10800017 	ldw	r2,0(r2)
    463c:	e0bfff15 	stw	r2,-4(fp)
    4640:	e0bffb17 	ldw	r2,-20(fp)
    4644:	e0fffc17 	ldw	r3,-16(fp)
    4648:	1885883a 	add	r2,r3,r2
    464c:	e0bffe15 	stw	r2,-8(fp)
    4650:	00000e06 	br	468c <altera_avalon_jtag_uart_write+0x74>
    4654:	e0bfff17 	ldw	r2,-4(fp)
    4658:	10800104 	addi	r2,r2,4
    465c:	10800037 	ldwio	r2,0(r2)
    4660:	10bfffec 	andhi	r2,r2,65535
    4664:	10000926 	beq	r2,zero,468c <altera_avalon_jtag_uart_write+0x74>
    4668:	e0ffff17 	ldw	r3,-4(fp)
    466c:	e0bffc17 	ldw	r2,-16(fp)
    4670:	11000044 	addi	r4,r2,1
    4674:	e13ffc15 	stw	r4,-16(fp)
    4678:	10800003 	ldbu	r2,0(r2)
    467c:	10803fcc 	andi	r2,r2,255
    4680:	1080201c 	xori	r2,r2,128
    4684:	10bfe004 	addi	r2,r2,-128
    4688:	18800035 	stwio	r2,0(r3)
    468c:	e0fffc17 	ldw	r3,-16(fp)
    4690:	e0bffe17 	ldw	r2,-8(fp)
    4694:	18bfef36 	bltu	r3,r2,4654 <altera_avalon_jtag_uart_write+0x3c>
    4698:	e0bffb17 	ldw	r2,-20(fp)
    469c:	e037883a 	mov	sp,fp
    46a0:	df000017 	ldw	fp,0(sp)
    46a4:	dec00104 	addi	sp,sp,4
    46a8:	f800283a 	ret

000046ac <alt_avalon_timer_sc_irq>:
    46ac:	defffa04 	addi	sp,sp,-24
    46b0:	dfc00515 	stw	ra,20(sp)
    46b4:	df000415 	stw	fp,16(sp)
    46b8:	df000404 	addi	fp,sp,16
    46bc:	e13ffc15 	stw	r4,-16(fp)
    46c0:	0007883a 	mov	r3,zero
    46c4:	e0bffc17 	ldw	r2,-16(fp)
    46c8:	10c00035 	stwio	r3,0(r2)
    46cc:	e0bffc17 	ldw	r2,-16(fp)
    46d0:	10800104 	addi	r2,r2,4
    46d4:	10800037 	ldwio	r2,0(r2)
    46d8:	0005303a 	rdctl	r2,status
    46dc:	e0bffd15 	stw	r2,-12(fp)
    46e0:	e0fffd17 	ldw	r3,-12(fp)
    46e4:	00bfff84 	movi	r2,-2
    46e8:	1884703a 	and	r2,r3,r2
    46ec:	1001703a 	wrctl	status,r2
    46f0:	e0bffd17 	ldw	r2,-12(fp)
    46f4:	e0bfff15 	stw	r2,-4(fp)
    46f8:	00025140 	call	2514 <alt_tick>
    46fc:	e0bfff17 	ldw	r2,-4(fp)
    4700:	e0bffe15 	stw	r2,-8(fp)
    4704:	e0bffe17 	ldw	r2,-8(fp)
    4708:	1001703a 	wrctl	status,r2
    470c:	0001883a 	nop
    4710:	0001883a 	nop
    4714:	e037883a 	mov	sp,fp
    4718:	dfc00117 	ldw	ra,4(sp)
    471c:	df000017 	ldw	fp,0(sp)
    4720:	dec00204 	addi	sp,sp,8
    4724:	f800283a 	ret

00004728 <alt_avalon_timer_sc_init>:
    4728:	defff804 	addi	sp,sp,-32
    472c:	dfc00715 	stw	ra,28(sp)
    4730:	df000615 	stw	fp,24(sp)
    4734:	df000604 	addi	fp,sp,24
    4738:	e13ffe15 	stw	r4,-8(fp)
    473c:	e17ffd15 	stw	r5,-12(fp)
    4740:	e1bffc15 	stw	r6,-16(fp)
    4744:	e1fffb15 	stw	r7,-20(fp)
    4748:	e0bffb17 	ldw	r2,-20(fp)
    474c:	e0bfff15 	stw	r2,-4(fp)
    4750:	00800034 	movhi	r2,0
    4754:	109a6817 	ldw	r2,27040(r2)
    4758:	1000041e 	bne	r2,zero,476c <alt_avalon_timer_sc_init+0x44>
    475c:	e0ffff17 	ldw	r3,-4(fp)
    4760:	00800034 	movhi	r2,0
    4764:	10da6815 	stw	r3,27040(r2)
    4768:	00000106 	br	4770 <alt_avalon_timer_sc_init+0x48>
    476c:	0001883a 	nop
    4770:	e0bffe17 	ldw	r2,-8(fp)
    4774:	10800104 	addi	r2,r2,4
    4778:	00c001c4 	movi	r3,7
    477c:	10c00035 	stwio	r3,0(r2)
    4780:	d8000015 	stw	zero,0(sp)
    4784:	e1fffe17 	ldw	r7,-8(fp)
    4788:	01800034 	movhi	r6,0
    478c:	3191ab04 	addi	r6,r6,18092
    4790:	e17ffc17 	ldw	r5,-16(fp)
    4794:	e13ffd17 	ldw	r4,-12(fp)
    4798:	0004ccc0 	call	4ccc <alt_ic_isr_register>
    479c:	0001883a 	nop
    47a0:	e037883a 	mov	sp,fp
    47a4:	dfc00117 	ldw	ra,4(sp)
    47a8:	df000017 	ldw	fp,0(sp)
    47ac:	dec00204 	addi	sp,sp,8
    47b0:	f800283a 	ret

000047b4 <alt_busy_sleep>:
    47b4:	defffa04 	addi	sp,sp,-24
    47b8:	dfc00515 	stw	ra,20(sp)
    47bc:	df000415 	stw	fp,16(sp)
    47c0:	df000404 	addi	fp,sp,16
    47c4:	e13ffc15 	stw	r4,-16(fp)
    47c8:	008000c4 	movi	r2,3
    47cc:	e0bffe15 	stw	r2,-8(fp)
    47d0:	e0fffe17 	ldw	r3,-8(fp)
    47d4:	008003f4 	movhi	r2,15
    47d8:	10909004 	addi	r2,r2,16960
    47dc:	1885383a 	mul	r2,r3,r2
    47e0:	100b883a 	mov	r5,r2
    47e4:	0100bef4 	movhi	r4,763
    47e8:	213c2004 	addi	r4,r4,-3968
    47ec:	0001a640 	call	1a64 <__udivsi3>
    47f0:	100b883a 	mov	r5,r2
    47f4:	01200034 	movhi	r4,32768
    47f8:	213fffc4 	addi	r4,r4,-1
    47fc:	0001a640 	call	1a64 <__udivsi3>
    4800:	100b883a 	mov	r5,r2
    4804:	e13ffc17 	ldw	r4,-16(fp)
    4808:	0001a640 	call	1a64 <__udivsi3>
    480c:	e0bffd15 	stw	r2,-12(fp)
    4810:	e0bffd17 	ldw	r2,-12(fp)
    4814:	10002a26 	beq	r2,zero,48c0 <alt_busy_sleep+0x10c>
    4818:	e03fff15 	stw	zero,-4(fp)
    481c:	00001706 	br	487c <alt_busy_sleep+0xc8>
    4820:	00a00034 	movhi	r2,32768
    4824:	10bfffc4 	addi	r2,r2,-1
    4828:	10bfffc4 	addi	r2,r2,-1
    482c:	103ffe1e 	bne	r2,zero,4828 <alt_busy_sleep+0x74>
    4830:	e0fffe17 	ldw	r3,-8(fp)
    4834:	008003f4 	movhi	r2,15
    4838:	10909004 	addi	r2,r2,16960
    483c:	1885383a 	mul	r2,r3,r2
    4840:	100b883a 	mov	r5,r2
    4844:	0100bef4 	movhi	r4,763
    4848:	213c2004 	addi	r4,r4,-3968
    484c:	0001a640 	call	1a64 <__udivsi3>
    4850:	100b883a 	mov	r5,r2
    4854:	01200034 	movhi	r4,32768
    4858:	213fffc4 	addi	r4,r4,-1
    485c:	0001a640 	call	1a64 <__udivsi3>
    4860:	1007883a 	mov	r3,r2
    4864:	e0bffc17 	ldw	r2,-16(fp)
    4868:	10c5c83a 	sub	r2,r2,r3
    486c:	e0bffc15 	stw	r2,-16(fp)
    4870:	e0bfff17 	ldw	r2,-4(fp)
    4874:	10800044 	addi	r2,r2,1
    4878:	e0bfff15 	stw	r2,-4(fp)
    487c:	e0ffff17 	ldw	r3,-4(fp)
    4880:	e0bffd17 	ldw	r2,-12(fp)
    4884:	18bfe616 	blt	r3,r2,4820 <alt_busy_sleep+0x6c>
    4888:	e0fffe17 	ldw	r3,-8(fp)
    488c:	008003f4 	movhi	r2,15
    4890:	10909004 	addi	r2,r2,16960
    4894:	1885383a 	mul	r2,r3,r2
    4898:	100b883a 	mov	r5,r2
    489c:	0100bef4 	movhi	r4,763
    48a0:	213c2004 	addi	r4,r4,-3968
    48a4:	0001a640 	call	1a64 <__udivsi3>
    48a8:	1007883a 	mov	r3,r2
    48ac:	e0bffc17 	ldw	r2,-16(fp)
    48b0:	1885383a 	mul	r2,r3,r2
    48b4:	10bfffc4 	addi	r2,r2,-1
    48b8:	103ffe1e 	bne	r2,zero,48b4 <alt_busy_sleep+0x100>
    48bc:	00000d06 	br	48f4 <alt_busy_sleep+0x140>
    48c0:	e0fffe17 	ldw	r3,-8(fp)
    48c4:	008003f4 	movhi	r2,15
    48c8:	10909004 	addi	r2,r2,16960
    48cc:	1885383a 	mul	r2,r3,r2
    48d0:	100b883a 	mov	r5,r2
    48d4:	0100bef4 	movhi	r4,763
    48d8:	213c2004 	addi	r4,r4,-3968
    48dc:	0001a640 	call	1a64 <__udivsi3>
    48e0:	1007883a 	mov	r3,r2
    48e4:	e0bffc17 	ldw	r2,-16(fp)
    48e8:	1885383a 	mul	r2,r3,r2
    48ec:	10bfffc4 	addi	r2,r2,-1
    48f0:	00bffe16 	blt	zero,r2,48ec <alt_busy_sleep+0x138>
    48f4:	0005883a 	mov	r2,zero
    48f8:	e037883a 	mov	sp,fp
    48fc:	dfc00117 	ldw	ra,4(sp)
    4900:	df000017 	ldw	fp,0(sp)
    4904:	dec00204 	addi	sp,sp,8
    4908:	f800283a 	ret

0000490c <alt_get_errno>:
    490c:	defffe04 	addi	sp,sp,-8
    4910:	dfc00115 	stw	ra,4(sp)
    4914:	df000015 	stw	fp,0(sp)
    4918:	d839883a 	mov	fp,sp
    491c:	00800034 	movhi	r2,0
    4920:	10999817 	ldw	r2,26208(r2)
    4924:	10000426 	beq	r2,zero,4938 <alt_get_errno+0x2c>
    4928:	00800034 	movhi	r2,0
    492c:	10999817 	ldw	r2,26208(r2)
    4930:	103ee83a 	callr	r2
    4934:	00000206 	br	4940 <alt_get_errno+0x34>
    4938:	00800034 	movhi	r2,0
    493c:	109a6404 	addi	r2,r2,27024
    4940:	e037883a 	mov	sp,fp
    4944:	dfc00117 	ldw	ra,4(sp)
    4948:	df000017 	ldw	fp,0(sp)
    494c:	dec00204 	addi	sp,sp,8
    4950:	f800283a 	ret

00004954 <close>:
    4954:	defffb04 	addi	sp,sp,-20
    4958:	dfc00415 	stw	ra,16(sp)
    495c:	df000315 	stw	fp,12(sp)
    4960:	df000304 	addi	fp,sp,12
    4964:	e13ffd15 	stw	r4,-12(fp)
    4968:	e0bffd17 	ldw	r2,-12(fp)
    496c:	10000616 	blt	r2,zero,4988 <close+0x34>
    4970:	e0bffd17 	ldw	r2,-12(fp)
    4974:	10c00324 	muli	r3,r2,12
    4978:	00800034 	movhi	r2,0
    497c:	10992d04 	addi	r2,r2,25780
    4980:	1885883a 	add	r2,r3,r2
    4984:	00000106 	br	498c <close+0x38>
    4988:	0005883a 	mov	r2,zero
    498c:	e0bfff15 	stw	r2,-4(fp)
    4990:	e0bfff17 	ldw	r2,-4(fp)
    4994:	10001926 	beq	r2,zero,49fc <close+0xa8>
    4998:	e0bfff17 	ldw	r2,-4(fp)
    499c:	10800017 	ldw	r2,0(r2)
    49a0:	10800417 	ldw	r2,16(r2)
    49a4:	10000626 	beq	r2,zero,49c0 <close+0x6c>
    49a8:	e0bfff17 	ldw	r2,-4(fp)
    49ac:	10800017 	ldw	r2,0(r2)
    49b0:	10800417 	ldw	r2,16(r2)
    49b4:	e13fff17 	ldw	r4,-4(fp)
    49b8:	103ee83a 	callr	r2
    49bc:	00000106 	br	49c4 <close+0x70>
    49c0:	0005883a 	mov	r2,zero
    49c4:	e0bffe15 	stw	r2,-8(fp)
    49c8:	e13ffd17 	ldw	r4,-12(fp)
    49cc:	00055600 	call	5560 <alt_release_fd>
    49d0:	e0bffe17 	ldw	r2,-8(fp)
    49d4:	1000070e 	bge	r2,zero,49f4 <close+0xa0>
    49d8:	000490c0 	call	490c <alt_get_errno>
    49dc:	1007883a 	mov	r3,r2
    49e0:	e0bffe17 	ldw	r2,-8(fp)
    49e4:	0085c83a 	sub	r2,zero,r2
    49e8:	18800015 	stw	r2,0(r3)
    49ec:	00bfffc4 	movi	r2,-1
    49f0:	00000706 	br	4a10 <close+0xbc>
    49f4:	0005883a 	mov	r2,zero
    49f8:	00000506 	br	4a10 <close+0xbc>
    49fc:	000490c0 	call	490c <alt_get_errno>
    4a00:	1007883a 	mov	r3,r2
    4a04:	00801444 	movi	r2,81
    4a08:	18800015 	stw	r2,0(r3)
    4a0c:	00bfffc4 	movi	r2,-1
    4a10:	e037883a 	mov	sp,fp
    4a14:	dfc00117 	ldw	ra,4(sp)
    4a18:	df000017 	ldw	fp,0(sp)
    4a1c:	dec00204 	addi	sp,sp,8
    4a20:	f800283a 	ret

00004a24 <alt_dev_null_write>:
    4a24:	defffc04 	addi	sp,sp,-16
    4a28:	df000315 	stw	fp,12(sp)
    4a2c:	df000304 	addi	fp,sp,12
    4a30:	e13fff15 	stw	r4,-4(fp)
    4a34:	e17ffe15 	stw	r5,-8(fp)
    4a38:	e1bffd15 	stw	r6,-12(fp)
    4a3c:	e0bffd17 	ldw	r2,-12(fp)
    4a40:	e037883a 	mov	sp,fp
    4a44:	df000017 	ldw	fp,0(sp)
    4a48:	dec00104 	addi	sp,sp,4
    4a4c:	f800283a 	ret

00004a50 <alt_get_errno>:
    4a50:	defffe04 	addi	sp,sp,-8
    4a54:	dfc00115 	stw	ra,4(sp)
    4a58:	df000015 	stw	fp,0(sp)
    4a5c:	d839883a 	mov	fp,sp
    4a60:	00800034 	movhi	r2,0
    4a64:	10999817 	ldw	r2,26208(r2)
    4a68:	10000426 	beq	r2,zero,4a7c <alt_get_errno+0x2c>
    4a6c:	00800034 	movhi	r2,0
    4a70:	10999817 	ldw	r2,26208(r2)
    4a74:	103ee83a 	callr	r2
    4a78:	00000206 	br	4a84 <alt_get_errno+0x34>
    4a7c:	00800034 	movhi	r2,0
    4a80:	109a6404 	addi	r2,r2,27024
    4a84:	e037883a 	mov	sp,fp
    4a88:	dfc00117 	ldw	ra,4(sp)
    4a8c:	df000017 	ldw	fp,0(sp)
    4a90:	dec00204 	addi	sp,sp,8
    4a94:	f800283a 	ret

00004a98 <alt_dev_llist_insert>:
    4a98:	defffa04 	addi	sp,sp,-24
    4a9c:	dfc00515 	stw	ra,20(sp)
    4aa0:	df000415 	stw	fp,16(sp)
    4aa4:	df000404 	addi	fp,sp,16
    4aa8:	e13ffd15 	stw	r4,-12(fp)
    4aac:	e17ffc15 	stw	r5,-16(fp)
    4ab0:	e0bffd17 	ldw	r2,-12(fp)
    4ab4:	10000326 	beq	r2,zero,4ac4 <alt_dev_llist_insert+0x2c>
    4ab8:	e0bffd17 	ldw	r2,-12(fp)
    4abc:	10800217 	ldw	r2,8(r2)
    4ac0:	1000061e 	bne	r2,zero,4adc <alt_dev_llist_insert+0x44>
    4ac4:	0004a500 	call	4a50 <alt_get_errno>
    4ac8:	1007883a 	mov	r3,r2
    4acc:	00800584 	movi	r2,22
    4ad0:	18800015 	stw	r2,0(r3)
    4ad4:	00bffa84 	movi	r2,-22
    4ad8:	00001406 	br	4b2c <alt_dev_llist_insert+0x94>
    4adc:	e0bffd17 	ldw	r2,-12(fp)
    4ae0:	e0fffc17 	ldw	r3,-16(fp)
    4ae4:	e0ffff15 	stw	r3,-4(fp)
    4ae8:	e0bffe15 	stw	r2,-8(fp)
    4aec:	e0bffe17 	ldw	r2,-8(fp)
    4af0:	e0ffff17 	ldw	r3,-4(fp)
    4af4:	10c00115 	stw	r3,4(r2)
    4af8:	e0bfff17 	ldw	r2,-4(fp)
    4afc:	10c00017 	ldw	r3,0(r2)
    4b00:	e0bffe17 	ldw	r2,-8(fp)
    4b04:	10c00015 	stw	r3,0(r2)
    4b08:	e0bfff17 	ldw	r2,-4(fp)
    4b0c:	10800017 	ldw	r2,0(r2)
    4b10:	e0fffe17 	ldw	r3,-8(fp)
    4b14:	10c00115 	stw	r3,4(r2)
    4b18:	e0bfff17 	ldw	r2,-4(fp)
    4b1c:	e0fffe17 	ldw	r3,-8(fp)
    4b20:	10c00015 	stw	r3,0(r2)
    4b24:	0001883a 	nop
    4b28:	0005883a 	mov	r2,zero
    4b2c:	e037883a 	mov	sp,fp
    4b30:	dfc00117 	ldw	ra,4(sp)
    4b34:	df000017 	ldw	fp,0(sp)
    4b38:	dec00204 	addi	sp,sp,8
    4b3c:	f800283a 	ret

00004b40 <_do_ctors>:
    4b40:	defffd04 	addi	sp,sp,-12
    4b44:	dfc00215 	stw	ra,8(sp)
    4b48:	df000115 	stw	fp,4(sp)
    4b4c:	df000104 	addi	fp,sp,4
    4b50:	00800034 	movhi	r2,0
    4b54:	10971804 	addi	r2,r2,23648
    4b58:	e0bfff15 	stw	r2,-4(fp)
    4b5c:	00000606 	br	4b78 <_do_ctors+0x38>
    4b60:	e0bfff17 	ldw	r2,-4(fp)
    4b64:	10800017 	ldw	r2,0(r2)
    4b68:	103ee83a 	callr	r2
    4b6c:	e0bfff17 	ldw	r2,-4(fp)
    4b70:	10bfff04 	addi	r2,r2,-4
    4b74:	e0bfff15 	stw	r2,-4(fp)
    4b78:	e0ffff17 	ldw	r3,-4(fp)
    4b7c:	00800034 	movhi	r2,0
    4b80:	10971904 	addi	r2,r2,23652
    4b84:	18bff62e 	bgeu	r3,r2,4b60 <_do_ctors+0x20>
    4b88:	0001883a 	nop
    4b8c:	0001883a 	nop
    4b90:	e037883a 	mov	sp,fp
    4b94:	dfc00117 	ldw	ra,4(sp)
    4b98:	df000017 	ldw	fp,0(sp)
    4b9c:	dec00204 	addi	sp,sp,8
    4ba0:	f800283a 	ret

00004ba4 <_do_dtors>:
    4ba4:	defffd04 	addi	sp,sp,-12
    4ba8:	dfc00215 	stw	ra,8(sp)
    4bac:	df000115 	stw	fp,4(sp)
    4bb0:	df000104 	addi	fp,sp,4
    4bb4:	00800034 	movhi	r2,0
    4bb8:	10971804 	addi	r2,r2,23648
    4bbc:	e0bfff15 	stw	r2,-4(fp)
    4bc0:	00000606 	br	4bdc <_do_dtors+0x38>
    4bc4:	e0bfff17 	ldw	r2,-4(fp)
    4bc8:	10800017 	ldw	r2,0(r2)
    4bcc:	103ee83a 	callr	r2
    4bd0:	e0bfff17 	ldw	r2,-4(fp)
    4bd4:	10bfff04 	addi	r2,r2,-4
    4bd8:	e0bfff15 	stw	r2,-4(fp)
    4bdc:	e0ffff17 	ldw	r3,-4(fp)
    4be0:	00800034 	movhi	r2,0
    4be4:	10971904 	addi	r2,r2,23652
    4be8:	18bff62e 	bgeu	r3,r2,4bc4 <_do_dtors+0x20>
    4bec:	0001883a 	nop
    4bf0:	0001883a 	nop
    4bf4:	e037883a 	mov	sp,fp
    4bf8:	dfc00117 	ldw	ra,4(sp)
    4bfc:	df000017 	ldw	fp,0(sp)
    4c00:	dec00204 	addi	sp,sp,8
    4c04:	f800283a 	ret

00004c08 <alt_find_dev>:
    4c08:	defffa04 	addi	sp,sp,-24
    4c0c:	dfc00515 	stw	ra,20(sp)
    4c10:	df000415 	stw	fp,16(sp)
    4c14:	df000404 	addi	fp,sp,16
    4c18:	e13ffd15 	stw	r4,-12(fp)
    4c1c:	e17ffc15 	stw	r5,-16(fp)
    4c20:	e0bffc17 	ldw	r2,-16(fp)
    4c24:	10800017 	ldw	r2,0(r2)
    4c28:	e0bfff15 	stw	r2,-4(fp)
    4c2c:	e13ffd17 	ldw	r4,-12(fp)
    4c30:	0001c380 	call	1c38 <strlen>
    4c34:	10800044 	addi	r2,r2,1
    4c38:	e0bffe15 	stw	r2,-8(fp)
    4c3c:	00000d06 	br	4c74 <alt_find_dev+0x6c>
    4c40:	e0bfff17 	ldw	r2,-4(fp)
    4c44:	10800217 	ldw	r2,8(r2)
    4c48:	e0fffe17 	ldw	r3,-8(fp)
    4c4c:	180d883a 	mov	r6,r3
    4c50:	e17ffd17 	ldw	r5,-12(fp)
    4c54:	1009883a 	mov	r4,r2
    4c58:	00058f00 	call	58f0 <memcmp>
    4c5c:	1000021e 	bne	r2,zero,4c68 <alt_find_dev+0x60>
    4c60:	e0bfff17 	ldw	r2,-4(fp)
    4c64:	00000706 	br	4c84 <alt_find_dev+0x7c>
    4c68:	e0bfff17 	ldw	r2,-4(fp)
    4c6c:	10800017 	ldw	r2,0(r2)
    4c70:	e0bfff15 	stw	r2,-4(fp)
    4c74:	e0ffff17 	ldw	r3,-4(fp)
    4c78:	e0bffc17 	ldw	r2,-16(fp)
    4c7c:	18bff01e 	bne	r3,r2,4c40 <alt_find_dev+0x38>
    4c80:	0005883a 	mov	r2,zero
    4c84:	e037883a 	mov	sp,fp
    4c88:	dfc00117 	ldw	ra,4(sp)
    4c8c:	df000017 	ldw	fp,0(sp)
    4c90:	dec00204 	addi	sp,sp,8
    4c94:	f800283a 	ret

00004c98 <alt_icache_flush_all>:
    4c98:	defffe04 	addi	sp,sp,-8
    4c9c:	dfc00115 	stw	ra,4(sp)
    4ca0:	df000015 	stw	fp,0(sp)
    4ca4:	d839883a 	mov	fp,sp
    4ca8:	01440004 	movi	r5,4096
    4cac:	0009883a 	mov	r4,zero
    4cb0:	00057940 	call	5794 <alt_icache_flush>
    4cb4:	0001883a 	nop
    4cb8:	e037883a 	mov	sp,fp
    4cbc:	dfc00117 	ldw	ra,4(sp)
    4cc0:	df000017 	ldw	fp,0(sp)
    4cc4:	dec00204 	addi	sp,sp,8
    4cc8:	f800283a 	ret

00004ccc <alt_ic_isr_register>:
    4ccc:	defff904 	addi	sp,sp,-28
    4cd0:	dfc00615 	stw	ra,24(sp)
    4cd4:	df000515 	stw	fp,20(sp)
    4cd8:	df000504 	addi	fp,sp,20
    4cdc:	e13fff15 	stw	r4,-4(fp)
    4ce0:	e17ffe15 	stw	r5,-8(fp)
    4ce4:	e1bffd15 	stw	r6,-12(fp)
    4ce8:	e1fffc15 	stw	r7,-16(fp)
    4cec:	e0800217 	ldw	r2,8(fp)
    4cf0:	d8800015 	stw	r2,0(sp)
    4cf4:	e1fffc17 	ldw	r7,-16(fp)
    4cf8:	e1bffd17 	ldw	r6,-12(fp)
    4cfc:	e17ffe17 	ldw	r5,-8(fp)
    4d00:	e13fff17 	ldw	r4,-4(fp)
    4d04:	0004e940 	call	4e94 <alt_iic_isr_register>
    4d08:	e037883a 	mov	sp,fp
    4d0c:	dfc00117 	ldw	ra,4(sp)
    4d10:	df000017 	ldw	fp,0(sp)
    4d14:	dec00204 	addi	sp,sp,8
    4d18:	f800283a 	ret

00004d1c <alt_ic_irq_enable>:
    4d1c:	defff904 	addi	sp,sp,-28
    4d20:	df000615 	stw	fp,24(sp)
    4d24:	df000604 	addi	fp,sp,24
    4d28:	e13ffb15 	stw	r4,-20(fp)
    4d2c:	e17ffa15 	stw	r5,-24(fp)
    4d30:	e0bffa17 	ldw	r2,-24(fp)
    4d34:	e0bfff15 	stw	r2,-4(fp)
    4d38:	0005303a 	rdctl	r2,status
    4d3c:	e0bffe15 	stw	r2,-8(fp)
    4d40:	e0fffe17 	ldw	r3,-8(fp)
    4d44:	00bfff84 	movi	r2,-2
    4d48:	1884703a 	and	r2,r3,r2
    4d4c:	1001703a 	wrctl	status,r2
    4d50:	e0bffe17 	ldw	r2,-8(fp)
    4d54:	e0bffd15 	stw	r2,-12(fp)
    4d58:	00c00044 	movi	r3,1
    4d5c:	e0bfff17 	ldw	r2,-4(fp)
    4d60:	1884983a 	sll	r2,r3,r2
    4d64:	1007883a 	mov	r3,r2
    4d68:	00800034 	movhi	r2,0
    4d6c:	109a6a17 	ldw	r2,27048(r2)
    4d70:	1886b03a 	or	r3,r3,r2
    4d74:	00800034 	movhi	r2,0
    4d78:	10da6a15 	stw	r3,27048(r2)
    4d7c:	00800034 	movhi	r2,0
    4d80:	109a6a17 	ldw	r2,27048(r2)
    4d84:	100170fa 	wrctl	ienable,r2
    4d88:	e0bffd17 	ldw	r2,-12(fp)
    4d8c:	e0bffc15 	stw	r2,-16(fp)
    4d90:	e0bffc17 	ldw	r2,-16(fp)
    4d94:	1001703a 	wrctl	status,r2
    4d98:	0001883a 	nop
    4d9c:	0005883a 	mov	r2,zero
    4da0:	e037883a 	mov	sp,fp
    4da4:	df000017 	ldw	fp,0(sp)
    4da8:	dec00104 	addi	sp,sp,4
    4dac:	f800283a 	ret

00004db0 <alt_ic_irq_disable>:
    4db0:	defff904 	addi	sp,sp,-28
    4db4:	df000615 	stw	fp,24(sp)
    4db8:	df000604 	addi	fp,sp,24
    4dbc:	e13ffb15 	stw	r4,-20(fp)
    4dc0:	e17ffa15 	stw	r5,-24(fp)
    4dc4:	e0bffa17 	ldw	r2,-24(fp)
    4dc8:	e0bfff15 	stw	r2,-4(fp)
    4dcc:	0005303a 	rdctl	r2,status
    4dd0:	e0bffe15 	stw	r2,-8(fp)
    4dd4:	e0fffe17 	ldw	r3,-8(fp)
    4dd8:	00bfff84 	movi	r2,-2
    4ddc:	1884703a 	and	r2,r3,r2
    4de0:	1001703a 	wrctl	status,r2
    4de4:	e0bffe17 	ldw	r2,-8(fp)
    4de8:	e0bffd15 	stw	r2,-12(fp)
    4dec:	00c00044 	movi	r3,1
    4df0:	e0bfff17 	ldw	r2,-4(fp)
    4df4:	1884983a 	sll	r2,r3,r2
    4df8:	0084303a 	nor	r2,zero,r2
    4dfc:	1007883a 	mov	r3,r2
    4e00:	00800034 	movhi	r2,0
    4e04:	109a6a17 	ldw	r2,27048(r2)
    4e08:	1886703a 	and	r3,r3,r2
    4e0c:	00800034 	movhi	r2,0
    4e10:	10da6a15 	stw	r3,27048(r2)
    4e14:	00800034 	movhi	r2,0
    4e18:	109a6a17 	ldw	r2,27048(r2)
    4e1c:	100170fa 	wrctl	ienable,r2
    4e20:	e0bffd17 	ldw	r2,-12(fp)
    4e24:	e0bffc15 	stw	r2,-16(fp)
    4e28:	e0bffc17 	ldw	r2,-16(fp)
    4e2c:	1001703a 	wrctl	status,r2
    4e30:	0001883a 	nop
    4e34:	0005883a 	mov	r2,zero
    4e38:	e037883a 	mov	sp,fp
    4e3c:	df000017 	ldw	fp,0(sp)
    4e40:	dec00104 	addi	sp,sp,4
    4e44:	f800283a 	ret

00004e48 <alt_ic_irq_enabled>:
    4e48:	defffc04 	addi	sp,sp,-16
    4e4c:	df000315 	stw	fp,12(sp)
    4e50:	df000304 	addi	fp,sp,12
    4e54:	e13ffe15 	stw	r4,-8(fp)
    4e58:	e17ffd15 	stw	r5,-12(fp)
    4e5c:	000530fa 	rdctl	r2,ienable
    4e60:	e0bfff15 	stw	r2,-4(fp)
    4e64:	00c00044 	movi	r3,1
    4e68:	e0bffd17 	ldw	r2,-12(fp)
    4e6c:	1884983a 	sll	r2,r3,r2
    4e70:	1007883a 	mov	r3,r2
    4e74:	e0bfff17 	ldw	r2,-4(fp)
    4e78:	1884703a 	and	r2,r3,r2
    4e7c:	1004c03a 	cmpne	r2,r2,zero
    4e80:	10803fcc 	andi	r2,r2,255
    4e84:	e037883a 	mov	sp,fp
    4e88:	df000017 	ldw	fp,0(sp)
    4e8c:	dec00104 	addi	sp,sp,4
    4e90:	f800283a 	ret

00004e94 <alt_iic_isr_register>:
    4e94:	defff504 	addi	sp,sp,-44
    4e98:	dfc00a15 	stw	ra,40(sp)
    4e9c:	df000915 	stw	fp,36(sp)
    4ea0:	df000904 	addi	fp,sp,36
    4ea4:	e13ffa15 	stw	r4,-24(fp)
    4ea8:	e17ff915 	stw	r5,-28(fp)
    4eac:	e1bff815 	stw	r6,-32(fp)
    4eb0:	e1fff715 	stw	r7,-36(fp)
    4eb4:	00bffa84 	movi	r2,-22
    4eb8:	e0bfff15 	stw	r2,-4(fp)
    4ebc:	e0bff917 	ldw	r2,-28(fp)
    4ec0:	e0bffe15 	stw	r2,-8(fp)
    4ec4:	e0bffe17 	ldw	r2,-8(fp)
    4ec8:	10800808 	cmpgei	r2,r2,32
    4ecc:	1000251e 	bne	r2,zero,4f64 <alt_iic_isr_register+0xd0>
    4ed0:	0005303a 	rdctl	r2,status
    4ed4:	e0bffc15 	stw	r2,-16(fp)
    4ed8:	e0fffc17 	ldw	r3,-16(fp)
    4edc:	00bfff84 	movi	r2,-2
    4ee0:	1884703a 	and	r2,r3,r2
    4ee4:	1001703a 	wrctl	status,r2
    4ee8:	e0bffc17 	ldw	r2,-16(fp)
    4eec:	e0bffd15 	stw	r2,-12(fp)
    4ef0:	e0bffe17 	ldw	r2,-8(fp)
    4ef4:	100890fa 	slli	r4,r2,3
    4ef8:	e0fff817 	ldw	r3,-32(fp)
    4efc:	00800034 	movhi	r2,0
    4f00:	2085883a 	add	r2,r4,r2
    4f04:	10de7015 	stw	r3,31168(r2)
    4f08:	e0bffe17 	ldw	r2,-8(fp)
    4f0c:	100890fa 	slli	r4,r2,3
    4f10:	e0fff717 	ldw	r3,-36(fp)
    4f14:	00800034 	movhi	r2,0
    4f18:	2085883a 	add	r2,r4,r2
    4f1c:	10de7115 	stw	r3,31172(r2)
    4f20:	e0bff817 	ldw	r2,-32(fp)
    4f24:	10000526 	beq	r2,zero,4f3c <alt_iic_isr_register+0xa8>
    4f28:	e0bffe17 	ldw	r2,-8(fp)
    4f2c:	100b883a 	mov	r5,r2
    4f30:	e13ffa17 	ldw	r4,-24(fp)
    4f34:	0004d1c0 	call	4d1c <alt_ic_irq_enable>
    4f38:	00000406 	br	4f4c <alt_iic_isr_register+0xb8>
    4f3c:	e0bffe17 	ldw	r2,-8(fp)
    4f40:	100b883a 	mov	r5,r2
    4f44:	e13ffa17 	ldw	r4,-24(fp)
    4f48:	0004db00 	call	4db0 <alt_ic_irq_disable>
    4f4c:	e0bfff15 	stw	r2,-4(fp)
    4f50:	e0bffd17 	ldw	r2,-12(fp)
    4f54:	e0bffb15 	stw	r2,-20(fp)
    4f58:	e0bffb17 	ldw	r2,-20(fp)
    4f5c:	1001703a 	wrctl	status,r2
    4f60:	0001883a 	nop
    4f64:	e0bfff17 	ldw	r2,-4(fp)
    4f68:	e037883a 	mov	sp,fp
    4f6c:	dfc00117 	ldw	ra,4(sp)
    4f70:	df000017 	ldw	fp,0(sp)
    4f74:	dec00204 	addi	sp,sp,8
    4f78:	f800283a 	ret

00004f7c <alt_open_fd>:
    4f7c:	defff904 	addi	sp,sp,-28
    4f80:	dfc00615 	stw	ra,24(sp)
    4f84:	df000515 	stw	fp,20(sp)
    4f88:	df000504 	addi	fp,sp,20
    4f8c:	e13ffe15 	stw	r4,-8(fp)
    4f90:	e17ffd15 	stw	r5,-12(fp)
    4f94:	e1bffc15 	stw	r6,-16(fp)
    4f98:	e1fffb15 	stw	r7,-20(fp)
    4f9c:	e1bffb17 	ldw	r6,-20(fp)
    4fa0:	e17ffc17 	ldw	r5,-16(fp)
    4fa4:	e13ffd17 	ldw	r4,-12(fp)
    4fa8:	00051ac0 	call	51ac <open>
    4fac:	e0bfff15 	stw	r2,-4(fp)
    4fb0:	e0bfff17 	ldw	r2,-4(fp)
    4fb4:	10001716 	blt	r2,zero,5014 <alt_open_fd+0x98>
    4fb8:	e0bfff17 	ldw	r2,-4(fp)
    4fbc:	10c00324 	muli	r3,r2,12
    4fc0:	00800034 	movhi	r2,0
    4fc4:	1885883a 	add	r2,r3,r2
    4fc8:	10d92d17 	ldw	r3,25780(r2)
    4fcc:	e0bffe17 	ldw	r2,-8(fp)
    4fd0:	10c00015 	stw	r3,0(r2)
    4fd4:	e0bfff17 	ldw	r2,-4(fp)
    4fd8:	10c00324 	muli	r3,r2,12
    4fdc:	00800034 	movhi	r2,0
    4fe0:	1885883a 	add	r2,r3,r2
    4fe4:	10d92e17 	ldw	r3,25784(r2)
    4fe8:	e0bffe17 	ldw	r2,-8(fp)
    4fec:	10c00115 	stw	r3,4(r2)
    4ff0:	e0bfff17 	ldw	r2,-4(fp)
    4ff4:	10c00324 	muli	r3,r2,12
    4ff8:	00800034 	movhi	r2,0
    4ffc:	1885883a 	add	r2,r3,r2
    5000:	10d92f17 	ldw	r3,25788(r2)
    5004:	e0bffe17 	ldw	r2,-8(fp)
    5008:	10c00215 	stw	r3,8(r2)
    500c:	e13fff17 	ldw	r4,-4(fp)
    5010:	00055600 	call	5560 <alt_release_fd>
    5014:	0001883a 	nop
    5018:	e037883a 	mov	sp,fp
    501c:	dfc00117 	ldw	ra,4(sp)
    5020:	df000017 	ldw	fp,0(sp)
    5024:	dec00204 	addi	sp,sp,8
    5028:	f800283a 	ret

0000502c <alt_io_redirect>:
    502c:	defffb04 	addi	sp,sp,-20
    5030:	dfc00415 	stw	ra,16(sp)
    5034:	df000315 	stw	fp,12(sp)
    5038:	df000304 	addi	fp,sp,12
    503c:	e13fff15 	stw	r4,-4(fp)
    5040:	e17ffe15 	stw	r5,-8(fp)
    5044:	e1bffd15 	stw	r6,-12(fp)
    5048:	01c07fc4 	movi	r7,511
    504c:	01800044 	movi	r6,1
    5050:	e17fff17 	ldw	r5,-4(fp)
    5054:	01000034 	movhi	r4,0
    5058:	21193004 	addi	r4,r4,25792
    505c:	0004f7c0 	call	4f7c <alt_open_fd>
    5060:	01c07fc4 	movi	r7,511
    5064:	000d883a 	mov	r6,zero
    5068:	e17ffe17 	ldw	r5,-8(fp)
    506c:	01000034 	movhi	r4,0
    5070:	21192d04 	addi	r4,r4,25780
    5074:	0004f7c0 	call	4f7c <alt_open_fd>
    5078:	01c07fc4 	movi	r7,511
    507c:	01800044 	movi	r6,1
    5080:	e17ffd17 	ldw	r5,-12(fp)
    5084:	01000034 	movhi	r4,0
    5088:	21193304 	addi	r4,r4,25804
    508c:	0004f7c0 	call	4f7c <alt_open_fd>
    5090:	0001883a 	nop
    5094:	e037883a 	mov	sp,fp
    5098:	dfc00117 	ldw	ra,4(sp)
    509c:	df000017 	ldw	fp,0(sp)
    50a0:	dec00204 	addi	sp,sp,8
    50a4:	f800283a 	ret

000050a8 <alt_get_errno>:
    50a8:	defffe04 	addi	sp,sp,-8
    50ac:	dfc00115 	stw	ra,4(sp)
    50b0:	df000015 	stw	fp,0(sp)
    50b4:	d839883a 	mov	fp,sp
    50b8:	00800034 	movhi	r2,0
    50bc:	10999817 	ldw	r2,26208(r2)
    50c0:	10000426 	beq	r2,zero,50d4 <alt_get_errno+0x2c>
    50c4:	00800034 	movhi	r2,0
    50c8:	10999817 	ldw	r2,26208(r2)
    50cc:	103ee83a 	callr	r2
    50d0:	00000206 	br	50dc <alt_get_errno+0x34>
    50d4:	00800034 	movhi	r2,0
    50d8:	109a6404 	addi	r2,r2,27024
    50dc:	e037883a 	mov	sp,fp
    50e0:	dfc00117 	ldw	ra,4(sp)
    50e4:	df000017 	ldw	fp,0(sp)
    50e8:	dec00204 	addi	sp,sp,8
    50ec:	f800283a 	ret

000050f0 <alt_file_locked>:
    50f0:	defffd04 	addi	sp,sp,-12
    50f4:	df000215 	stw	fp,8(sp)
    50f8:	df000204 	addi	fp,sp,8
    50fc:	e13ffe15 	stw	r4,-8(fp)
    5100:	e0bffe17 	ldw	r2,-8(fp)
    5104:	10800217 	ldw	r2,8(r2)
    5108:	10d00034 	orhi	r3,r2,16384
    510c:	e0bffe17 	ldw	r2,-8(fp)
    5110:	10c00215 	stw	r3,8(r2)
    5114:	e03fff15 	stw	zero,-4(fp)
    5118:	00001a06 	br	5184 <alt_file_locked+0x94>
    511c:	e0bfff17 	ldw	r2,-4(fp)
    5120:	10c00324 	muli	r3,r2,12
    5124:	00800034 	movhi	r2,0
    5128:	1885883a 	add	r2,r3,r2
    512c:	10d92d17 	ldw	r3,25780(r2)
    5130:	e0bffe17 	ldw	r2,-8(fp)
    5134:	10800017 	ldw	r2,0(r2)
    5138:	18800f1e 	bne	r3,r2,5178 <alt_file_locked+0x88>
    513c:	e0bfff17 	ldw	r2,-4(fp)
    5140:	10c00324 	muli	r3,r2,12
    5144:	00800034 	movhi	r2,0
    5148:	1885883a 	add	r2,r3,r2
    514c:	10992f17 	ldw	r2,25788(r2)
    5150:	1000090e 	bge	r2,zero,5178 <alt_file_locked+0x88>
    5154:	e0bfff17 	ldw	r2,-4(fp)
    5158:	10c00324 	muli	r3,r2,12
    515c:	00800034 	movhi	r2,0
    5160:	10992d04 	addi	r2,r2,25780
    5164:	1885883a 	add	r2,r3,r2
    5168:	e0fffe17 	ldw	r3,-8(fp)
    516c:	18800226 	beq	r3,r2,5178 <alt_file_locked+0x88>
    5170:	00bffcc4 	movi	r2,-13
    5174:	00000906 	br	519c <alt_file_locked+0xac>
    5178:	e0bfff17 	ldw	r2,-4(fp)
    517c:	10800044 	addi	r2,r2,1
    5180:	e0bfff15 	stw	r2,-4(fp)
    5184:	00800034 	movhi	r2,0
    5188:	10999717 	ldw	r2,26204(r2)
    518c:	1007883a 	mov	r3,r2
    5190:	e0bfff17 	ldw	r2,-4(fp)
    5194:	18bfe12e 	bgeu	r3,r2,511c <alt_file_locked+0x2c>
    5198:	0005883a 	mov	r2,zero
    519c:	e037883a 	mov	sp,fp
    51a0:	df000017 	ldw	fp,0(sp)
    51a4:	dec00104 	addi	sp,sp,4
    51a8:	f800283a 	ret

000051ac <open>:
    51ac:	defff604 	addi	sp,sp,-40
    51b0:	dfc00915 	stw	ra,36(sp)
    51b4:	df000815 	stw	fp,32(sp)
    51b8:	df000804 	addi	fp,sp,32
    51bc:	e13ffa15 	stw	r4,-24(fp)
    51c0:	e17ff915 	stw	r5,-28(fp)
    51c4:	e1bff815 	stw	r6,-32(fp)
    51c8:	00bfffc4 	movi	r2,-1
    51cc:	e0bffe15 	stw	r2,-8(fp)
    51d0:	00bffb44 	movi	r2,-19
    51d4:	e0bffd15 	stw	r2,-12(fp)
    51d8:	e03ffc15 	stw	zero,-16(fp)
    51dc:	01400034 	movhi	r5,0
    51e0:	29599504 	addi	r5,r5,26196
    51e4:	e13ffa17 	ldw	r4,-24(fp)
    51e8:	0004c080 	call	4c08 <alt_find_dev>
    51ec:	e0bfff15 	stw	r2,-4(fp)
    51f0:	e0bfff17 	ldw	r2,-4(fp)
    51f4:	1000051e 	bne	r2,zero,520c <open+0x60>
    51f8:	e13ffa17 	ldw	r4,-24(fp)
    51fc:	00055dc0 	call	55dc <alt_find_file>
    5200:	e0bfff15 	stw	r2,-4(fp)
    5204:	00800044 	movi	r2,1
    5208:	e0bffc15 	stw	r2,-16(fp)
    520c:	e0bfff17 	ldw	r2,-4(fp)
    5210:	10002926 	beq	r2,zero,52b8 <open+0x10c>
    5214:	e13fff17 	ldw	r4,-4(fp)
    5218:	00056ec0 	call	56ec <alt_get_fd>
    521c:	e0bffe15 	stw	r2,-8(fp)
    5220:	e0bffe17 	ldw	r2,-8(fp)
    5224:	1000030e 	bge	r2,zero,5234 <open+0x88>
    5228:	e0bffe17 	ldw	r2,-8(fp)
    522c:	e0bffd15 	stw	r2,-12(fp)
    5230:	00002306 	br	52c0 <open+0x114>
    5234:	e0bffe17 	ldw	r2,-8(fp)
    5238:	10c00324 	muli	r3,r2,12
    523c:	00800034 	movhi	r2,0
    5240:	10992d04 	addi	r2,r2,25780
    5244:	1885883a 	add	r2,r3,r2
    5248:	e0bffb15 	stw	r2,-20(fp)
    524c:	e0fff917 	ldw	r3,-28(fp)
    5250:	00900034 	movhi	r2,16384
    5254:	10bfffc4 	addi	r2,r2,-1
    5258:	1886703a 	and	r3,r3,r2
    525c:	e0bffb17 	ldw	r2,-20(fp)
    5260:	10c00215 	stw	r3,8(r2)
    5264:	e0bffc17 	ldw	r2,-16(fp)
    5268:	1000051e 	bne	r2,zero,5280 <open+0xd4>
    526c:	e13ffb17 	ldw	r4,-20(fp)
    5270:	00050f00 	call	50f0 <alt_file_locked>
    5274:	e0bffd15 	stw	r2,-12(fp)
    5278:	e0bffd17 	ldw	r2,-12(fp)
    527c:	10001016 	blt	r2,zero,52c0 <open+0x114>
    5280:	e0bfff17 	ldw	r2,-4(fp)
    5284:	10800317 	ldw	r2,12(r2)
    5288:	10000826 	beq	r2,zero,52ac <open+0x100>
    528c:	e0bfff17 	ldw	r2,-4(fp)
    5290:	10800317 	ldw	r2,12(r2)
    5294:	e1fff817 	ldw	r7,-32(fp)
    5298:	e1bff917 	ldw	r6,-28(fp)
    529c:	e17ffa17 	ldw	r5,-24(fp)
    52a0:	e13ffb17 	ldw	r4,-20(fp)
    52a4:	103ee83a 	callr	r2
    52a8:	00000106 	br	52b0 <open+0x104>
    52ac:	0005883a 	mov	r2,zero
    52b0:	e0bffd15 	stw	r2,-12(fp)
    52b4:	00000206 	br	52c0 <open+0x114>
    52b8:	00bffb44 	movi	r2,-19
    52bc:	e0bffd15 	stw	r2,-12(fp)
    52c0:	e0bffd17 	ldw	r2,-12(fp)
    52c4:	1000090e 	bge	r2,zero,52ec <open+0x140>
    52c8:	e13ffe17 	ldw	r4,-8(fp)
    52cc:	00055600 	call	5560 <alt_release_fd>
    52d0:	00050a80 	call	50a8 <alt_get_errno>
    52d4:	1007883a 	mov	r3,r2
    52d8:	e0bffd17 	ldw	r2,-12(fp)
    52dc:	0085c83a 	sub	r2,zero,r2
    52e0:	18800015 	stw	r2,0(r3)
    52e4:	00bfffc4 	movi	r2,-1
    52e8:	00000106 	br	52f0 <open+0x144>
    52ec:	e0bffe17 	ldw	r2,-8(fp)
    52f0:	e037883a 	mov	sp,fp
    52f4:	dfc00117 	ldw	ra,4(sp)
    52f8:	df000017 	ldw	fp,0(sp)
    52fc:	dec00204 	addi	sp,sp,8
    5300:	f800283a 	ret

00005304 <alt_printf>:
    5304:	defff204 	addi	sp,sp,-56
    5308:	dfc00a15 	stw	ra,40(sp)
    530c:	df000915 	stw	fp,36(sp)
    5310:	df000904 	addi	fp,sp,36
    5314:	e13ff715 	stw	r4,-36(fp)
    5318:	e1400215 	stw	r5,8(fp)
    531c:	e1800315 	stw	r6,12(fp)
    5320:	e1c00415 	stw	r7,16(fp)
    5324:	e0800204 	addi	r2,fp,8
    5328:	e0bff815 	stw	r2,-32(fp)
    532c:	e0bff717 	ldw	r2,-36(fp)
    5330:	e0bfff15 	stw	r2,-4(fp)
    5334:	00006f06 	br	54f4 <alt_printf+0x1f0>
    5338:	e0bffec7 	ldb	r2,-5(fp)
    533c:	10800960 	cmpeqi	r2,r2,37
    5340:	1000041e 	bne	r2,zero,5354 <alt_printf+0x50>
    5344:	e0bffec7 	ldb	r2,-5(fp)
    5348:	1009883a 	mov	r4,r2
    534c:	00055300 	call	5530 <alt_putchar>
    5350:	00006806 	br	54f4 <alt_printf+0x1f0>
    5354:	e0bfff17 	ldw	r2,-4(fp)
    5358:	10c00044 	addi	r3,r2,1
    535c:	e0ffff15 	stw	r3,-4(fp)
    5360:	10800003 	ldbu	r2,0(r2)
    5364:	e0bffec5 	stb	r2,-5(fp)
    5368:	e0bffec7 	ldb	r2,-5(fp)
    536c:	10006926 	beq	r2,zero,5514 <alt_printf+0x210>
    5370:	e0bffec7 	ldb	r2,-5(fp)
    5374:	10800958 	cmpnei	r2,r2,37
    5378:	1000041e 	bne	r2,zero,538c <alt_printf+0x88>
    537c:	e0bffec7 	ldb	r2,-5(fp)
    5380:	1009883a 	mov	r4,r2
    5384:	00055300 	call	5530 <alt_putchar>
    5388:	00005a06 	br	54f4 <alt_printf+0x1f0>
    538c:	e0bffec7 	ldb	r2,-5(fp)
    5390:	108018d8 	cmpnei	r2,r2,99
    5394:	1000081e 	bne	r2,zero,53b8 <alt_printf+0xb4>
    5398:	e0bff817 	ldw	r2,-32(fp)
    539c:	10c00104 	addi	r3,r2,4
    53a0:	e0fff815 	stw	r3,-32(fp)
    53a4:	10800017 	ldw	r2,0(r2)
    53a8:	e0bff915 	stw	r2,-28(fp)
    53ac:	e13ff917 	ldw	r4,-28(fp)
    53b0:	00055300 	call	5530 <alt_putchar>
    53b4:	00004f06 	br	54f4 <alt_printf+0x1f0>
    53b8:	e0bffec7 	ldb	r2,-5(fp)
    53bc:	10801e18 	cmpnei	r2,r2,120
    53c0:	1000341e 	bne	r2,zero,5494 <alt_printf+0x190>
    53c4:	e0bff817 	ldw	r2,-32(fp)
    53c8:	10c00104 	addi	r3,r2,4
    53cc:	e0fff815 	stw	r3,-32(fp)
    53d0:	10800017 	ldw	r2,0(r2)
    53d4:	e0bffb15 	stw	r2,-20(fp)
    53d8:	e0bffb17 	ldw	r2,-20(fp)
    53dc:	1000031e 	bne	r2,zero,53ec <alt_printf+0xe8>
    53e0:	01000c04 	movi	r4,48
    53e4:	00055300 	call	5530 <alt_putchar>
    53e8:	00004206 	br	54f4 <alt_printf+0x1f0>
    53ec:	00800704 	movi	r2,28
    53f0:	e0bffd15 	stw	r2,-12(fp)
    53f4:	00000306 	br	5404 <alt_printf+0x100>
    53f8:	e0bffd17 	ldw	r2,-12(fp)
    53fc:	10bfff04 	addi	r2,r2,-4
    5400:	e0bffd15 	stw	r2,-12(fp)
    5404:	00c003c4 	movi	r3,15
    5408:	e0bffd17 	ldw	r2,-12(fp)
    540c:	1884983a 	sll	r2,r3,r2
    5410:	1007883a 	mov	r3,r2
    5414:	e0bffb17 	ldw	r2,-20(fp)
    5418:	1884703a 	and	r2,r3,r2
    541c:	103ff626 	beq	r2,zero,53f8 <alt_printf+0xf4>
    5420:	00001906 	br	5488 <alt_printf+0x184>
    5424:	00c003c4 	movi	r3,15
    5428:	e0bffd17 	ldw	r2,-12(fp)
    542c:	1884983a 	sll	r2,r3,r2
    5430:	1007883a 	mov	r3,r2
    5434:	e0bffb17 	ldw	r2,-20(fp)
    5438:	1886703a 	and	r3,r3,r2
    543c:	e0bffd17 	ldw	r2,-12(fp)
    5440:	1884d83a 	srl	r2,r3,r2
    5444:	e0bffa15 	stw	r2,-24(fp)
    5448:	e0bffa17 	ldw	r2,-24(fp)
    544c:	108002a8 	cmpgeui	r2,r2,10
    5450:	1000041e 	bne	r2,zero,5464 <alt_printf+0x160>
    5454:	e0bffa17 	ldw	r2,-24(fp)
    5458:	10800c04 	addi	r2,r2,48
    545c:	e0bffec5 	stb	r2,-5(fp)
    5460:	00000306 	br	5470 <alt_printf+0x16c>
    5464:	e0bffa17 	ldw	r2,-24(fp)
    5468:	108015c4 	addi	r2,r2,87
    546c:	e0bffec5 	stb	r2,-5(fp)
    5470:	e0bffec7 	ldb	r2,-5(fp)
    5474:	1009883a 	mov	r4,r2
    5478:	00055300 	call	5530 <alt_putchar>
    547c:	e0bffd17 	ldw	r2,-12(fp)
    5480:	10bfff04 	addi	r2,r2,-4
    5484:	e0bffd15 	stw	r2,-12(fp)
    5488:	e0bffd17 	ldw	r2,-12(fp)
    548c:	103fe50e 	bge	r2,zero,5424 <alt_printf+0x120>
    5490:	00001806 	br	54f4 <alt_printf+0x1f0>
    5494:	e0bffec7 	ldb	r2,-5(fp)
    5498:	10801cd8 	cmpnei	r2,r2,115
    549c:	1000151e 	bne	r2,zero,54f4 <alt_printf+0x1f0>
    54a0:	e0bff817 	ldw	r2,-32(fp)
    54a4:	10c00104 	addi	r3,r2,4
    54a8:	e0fff815 	stw	r3,-32(fp)
    54ac:	10800017 	ldw	r2,0(r2)
    54b0:	e0bffc15 	stw	r2,-16(fp)
    54b4:	00000906 	br	54dc <alt_printf+0x1d8>
    54b8:	e0bffc17 	ldw	r2,-16(fp)
    54bc:	10c00044 	addi	r3,r2,1
    54c0:	e0fffc15 	stw	r3,-16(fp)
    54c4:	10800003 	ldbu	r2,0(r2)
    54c8:	10803fcc 	andi	r2,r2,255
    54cc:	1080201c 	xori	r2,r2,128
    54d0:	10bfe004 	addi	r2,r2,-128
    54d4:	1009883a 	mov	r4,r2
    54d8:	00055300 	call	5530 <alt_putchar>
    54dc:	e0bffc17 	ldw	r2,-16(fp)
    54e0:	10800003 	ldbu	r2,0(r2)
    54e4:	10803fcc 	andi	r2,r2,255
    54e8:	1080201c 	xori	r2,r2,128
    54ec:	10bfe004 	addi	r2,r2,-128
    54f0:	103ff11e 	bne	r2,zero,54b8 <alt_printf+0x1b4>
    54f4:	e0bfff17 	ldw	r2,-4(fp)
    54f8:	10c00044 	addi	r3,r2,1
    54fc:	e0ffff15 	stw	r3,-4(fp)
    5500:	10800003 	ldbu	r2,0(r2)
    5504:	e0bffec5 	stb	r2,-5(fp)
    5508:	e0bffec7 	ldb	r2,-5(fp)
    550c:	103f8a1e 	bne	r2,zero,5338 <alt_printf+0x34>
    5510:	00000106 	br	5518 <alt_printf+0x214>
    5514:	0001883a 	nop
    5518:	0001883a 	nop
    551c:	e037883a 	mov	sp,fp
    5520:	dfc00117 	ldw	ra,4(sp)
    5524:	df000017 	ldw	fp,0(sp)
    5528:	dec00504 	addi	sp,sp,20
    552c:	f800283a 	ret

00005530 <alt_putchar>:
    5530:	defffd04 	addi	sp,sp,-12
    5534:	dfc00215 	stw	ra,8(sp)
    5538:	df000115 	stw	fp,4(sp)
    553c:	df000104 	addi	fp,sp,4
    5540:	e13fff15 	stw	r4,-4(fp)
    5544:	e13fff17 	ldw	r4,-4(fp)
    5548:	00059280 	call	5928 <putchar>
    554c:	e037883a 	mov	sp,fp
    5550:	dfc00117 	ldw	ra,4(sp)
    5554:	df000017 	ldw	fp,0(sp)
    5558:	dec00204 	addi	sp,sp,8
    555c:	f800283a 	ret

00005560 <alt_release_fd>:
    5560:	defffe04 	addi	sp,sp,-8
    5564:	df000115 	stw	fp,4(sp)
    5568:	df000104 	addi	fp,sp,4
    556c:	e13fff15 	stw	r4,-4(fp)
    5570:	e0bfff17 	ldw	r2,-4(fp)
    5574:	108000d0 	cmplti	r2,r2,3
    5578:	10000a1e 	bne	r2,zero,55a4 <alt_release_fd+0x44>
    557c:	e0bfff17 	ldw	r2,-4(fp)
    5580:	10c00324 	muli	r3,r2,12
    5584:	00800034 	movhi	r2,0
    5588:	1885883a 	add	r2,r3,r2
    558c:	10192f15 	stw	zero,25788(r2)
    5590:	e0bfff17 	ldw	r2,-4(fp)
    5594:	10c00324 	muli	r3,r2,12
    5598:	00800034 	movhi	r2,0
    559c:	1885883a 	add	r2,r3,r2
    55a0:	10192d15 	stw	zero,25780(r2)
    55a4:	0001883a 	nop
    55a8:	e037883a 	mov	sp,fp
    55ac:	df000017 	ldw	fp,0(sp)
    55b0:	dec00104 	addi	sp,sp,4
    55b4:	f800283a 	ret

000055b8 <altera_nios2_gen2_irq_init>:
    55b8:	deffff04 	addi	sp,sp,-4
    55bc:	df000015 	stw	fp,0(sp)
    55c0:	d839883a 	mov	fp,sp
    55c4:	000170fa 	wrctl	ienable,zero
    55c8:	0001883a 	nop
    55cc:	e037883a 	mov	sp,fp
    55d0:	df000017 	ldw	fp,0(sp)
    55d4:	dec00104 	addi	sp,sp,4
    55d8:	f800283a 	ret

000055dc <alt_find_file>:
    55dc:	defffb04 	addi	sp,sp,-20
    55e0:	dfc00415 	stw	ra,16(sp)
    55e4:	df000315 	stw	fp,12(sp)
    55e8:	df000304 	addi	fp,sp,12
    55ec:	e13ffd15 	stw	r4,-12(fp)
    55f0:	00800034 	movhi	r2,0
    55f4:	10999317 	ldw	r2,26188(r2)
    55f8:	e0bfff15 	stw	r2,-4(fp)
    55fc:	00003106 	br	56c4 <alt_find_file+0xe8>
    5600:	e0bfff17 	ldw	r2,-4(fp)
    5604:	10800217 	ldw	r2,8(r2)
    5608:	1009883a 	mov	r4,r2
    560c:	0001c380 	call	1c38 <strlen>
    5610:	e0bffe15 	stw	r2,-8(fp)
    5614:	e0bfff17 	ldw	r2,-4(fp)
    5618:	10c00217 	ldw	r3,8(r2)
    561c:	e0bffe17 	ldw	r2,-8(fp)
    5620:	10bfffc4 	addi	r2,r2,-1
    5624:	1885883a 	add	r2,r3,r2
    5628:	10800003 	ldbu	r2,0(r2)
    562c:	10803fcc 	andi	r2,r2,255
    5630:	1080201c 	xori	r2,r2,128
    5634:	10bfe004 	addi	r2,r2,-128
    5638:	10800bd8 	cmpnei	r2,r2,47
    563c:	1000031e 	bne	r2,zero,564c <alt_find_file+0x70>
    5640:	e0bffe17 	ldw	r2,-8(fp)
    5644:	10bfffc4 	addi	r2,r2,-1
    5648:	e0bffe15 	stw	r2,-8(fp)
    564c:	e0bffe17 	ldw	r2,-8(fp)
    5650:	e0fffd17 	ldw	r3,-12(fp)
    5654:	1885883a 	add	r2,r3,r2
    5658:	10800003 	ldbu	r2,0(r2)
    565c:	10803fcc 	andi	r2,r2,255
    5660:	1080201c 	xori	r2,r2,128
    5664:	10bfe004 	addi	r2,r2,-128
    5668:	10800be0 	cmpeqi	r2,r2,47
    566c:	1000081e 	bne	r2,zero,5690 <alt_find_file+0xb4>
    5670:	e0bffe17 	ldw	r2,-8(fp)
    5674:	e0fffd17 	ldw	r3,-12(fp)
    5678:	1885883a 	add	r2,r3,r2
    567c:	10800003 	ldbu	r2,0(r2)
    5680:	10803fcc 	andi	r2,r2,255
    5684:	1080201c 	xori	r2,r2,128
    5688:	10bfe004 	addi	r2,r2,-128
    568c:	10000a1e 	bne	r2,zero,56b8 <alt_find_file+0xdc>
    5690:	e0bfff17 	ldw	r2,-4(fp)
    5694:	10800217 	ldw	r2,8(r2)
    5698:	e0fffe17 	ldw	r3,-8(fp)
    569c:	180d883a 	mov	r6,r3
    56a0:	e17ffd17 	ldw	r5,-12(fp)
    56a4:	1009883a 	mov	r4,r2
    56a8:	00058f00 	call	58f0 <memcmp>
    56ac:	1000021e 	bne	r2,zero,56b8 <alt_find_file+0xdc>
    56b0:	e0bfff17 	ldw	r2,-4(fp)
    56b4:	00000806 	br	56d8 <alt_find_file+0xfc>
    56b8:	e0bfff17 	ldw	r2,-4(fp)
    56bc:	10800017 	ldw	r2,0(r2)
    56c0:	e0bfff15 	stw	r2,-4(fp)
    56c4:	e0ffff17 	ldw	r3,-4(fp)
    56c8:	00800034 	movhi	r2,0
    56cc:	10999304 	addi	r2,r2,26188
    56d0:	18bfcb1e 	bne	r3,r2,5600 <alt_find_file+0x24>
    56d4:	0005883a 	mov	r2,zero
    56d8:	e037883a 	mov	sp,fp
    56dc:	dfc00117 	ldw	ra,4(sp)
    56e0:	df000017 	ldw	fp,0(sp)
    56e4:	dec00204 	addi	sp,sp,8
    56e8:	f800283a 	ret

000056ec <alt_get_fd>:
    56ec:	defffc04 	addi	sp,sp,-16
    56f0:	df000315 	stw	fp,12(sp)
    56f4:	df000304 	addi	fp,sp,12
    56f8:	e13ffd15 	stw	r4,-12(fp)
    56fc:	00bffa04 	movi	r2,-24
    5700:	e0bffe15 	stw	r2,-8(fp)
    5704:	e03fff15 	stw	zero,-4(fp)
    5708:	00001906 	br	5770 <alt_get_fd+0x84>
    570c:	e0bfff17 	ldw	r2,-4(fp)
    5710:	10c00324 	muli	r3,r2,12
    5714:	00800034 	movhi	r2,0
    5718:	1885883a 	add	r2,r3,r2
    571c:	10992d17 	ldw	r2,25780(r2)
    5720:	1000101e 	bne	r2,zero,5764 <alt_get_fd+0x78>
    5724:	e0bfff17 	ldw	r2,-4(fp)
    5728:	11000324 	muli	r4,r2,12
    572c:	e0fffd17 	ldw	r3,-12(fp)
    5730:	00800034 	movhi	r2,0
    5734:	2085883a 	add	r2,r4,r2
    5738:	10d92d15 	stw	r3,25780(r2)
    573c:	00800034 	movhi	r2,0
    5740:	10d99717 	ldw	r3,26204(r2)
    5744:	e0bfff17 	ldw	r2,-4(fp)
    5748:	1880030e 	bge	r3,r2,5758 <alt_get_fd+0x6c>
    574c:	e0ffff17 	ldw	r3,-4(fp)
    5750:	00800034 	movhi	r2,0
    5754:	10d99715 	stw	r3,26204(r2)
    5758:	e0bfff17 	ldw	r2,-4(fp)
    575c:	e0bffe15 	stw	r2,-8(fp)
    5760:	00000706 	br	5780 <alt_get_fd+0x94>
    5764:	e0bfff17 	ldw	r2,-4(fp)
    5768:	10800044 	addi	r2,r2,1
    576c:	e0bfff15 	stw	r2,-4(fp)
    5770:	e0bfff17 	ldw	r2,-4(fp)
    5774:	10800810 	cmplti	r2,r2,32
    5778:	103fe41e 	bne	r2,zero,570c <alt_get_fd+0x20>
    577c:	0001883a 	nop
    5780:	e0bffe17 	ldw	r2,-8(fp)
    5784:	e037883a 	mov	sp,fp
    5788:	df000017 	ldw	fp,0(sp)
    578c:	dec00104 	addi	sp,sp,4
    5790:	f800283a 	ret

00005794 <alt_icache_flush>:
    5794:	defffb04 	addi	sp,sp,-20
    5798:	df000415 	stw	fp,16(sp)
    579c:	df000404 	addi	fp,sp,16
    57a0:	e13ffd15 	stw	r4,-12(fp)
    57a4:	e17ffc15 	stw	r5,-16(fp)
    57a8:	e0bffc17 	ldw	r2,-16(fp)
    57ac:	10840070 	cmpltui	r2,r2,4097
    57b0:	1000021e 	bne	r2,zero,57bc <alt_icache_flush+0x28>
    57b4:	00840004 	movi	r2,4096
    57b8:	e0bffc15 	stw	r2,-16(fp)
    57bc:	e0fffd17 	ldw	r3,-12(fp)
    57c0:	e0bffc17 	ldw	r2,-16(fp)
    57c4:	1885883a 	add	r2,r3,r2
    57c8:	e0bffe15 	stw	r2,-8(fp)
    57cc:	e0bffd17 	ldw	r2,-12(fp)
    57d0:	e0bfff15 	stw	r2,-4(fp)
    57d4:	00000506 	br	57ec <alt_icache_flush+0x58>
    57d8:	e0bfff17 	ldw	r2,-4(fp)
    57dc:	1000603a 	flushi	r2
    57e0:	e0bfff17 	ldw	r2,-4(fp)
    57e4:	10800804 	addi	r2,r2,32
    57e8:	e0bfff15 	stw	r2,-4(fp)
    57ec:	e0ffff17 	ldw	r3,-4(fp)
    57f0:	e0bffe17 	ldw	r2,-8(fp)
    57f4:	18bff836 	bltu	r3,r2,57d8 <alt_icache_flush+0x44>
    57f8:	e0bffd17 	ldw	r2,-12(fp)
    57fc:	108007cc 	andi	r2,r2,31
    5800:	10000226 	beq	r2,zero,580c <alt_icache_flush+0x78>
    5804:	e0bfff17 	ldw	r2,-4(fp)
    5808:	1000603a 	flushi	r2
    580c:	0000203a 	flushp
    5810:	0001883a 	nop
    5814:	e037883a 	mov	sp,fp
    5818:	df000017 	ldw	fp,0(sp)
    581c:	dec00104 	addi	sp,sp,4
    5820:	f800283a 	ret

00005824 <alt_exception_cause_generated_bad_addr>:
    5824:	defffe04 	addi	sp,sp,-8
    5828:	df000115 	stw	fp,4(sp)
    582c:	df000104 	addi	fp,sp,4
    5830:	e13fff15 	stw	r4,-4(fp)
    5834:	e0bfff17 	ldw	r2,-4(fp)
    5838:	10bffe84 	addi	r2,r2,-6
    583c:	10c00428 	cmpgeui	r3,r2,16
    5840:	1800191e 	bne	r3,zero,58a8 <alt_exception_cause_generated_bad_addr+0x84>
    5844:	100690ba 	slli	r3,r2,2
    5848:	00800034 	movhi	r2,0
    584c:	1885883a 	add	r2,r3,r2
    5850:	10961617 	ldw	r2,22616(r2)
    5854:	1000683a 	jmp	r2
    5858:	00005898 	cmpnei	zero,zero,354
    585c:	00005898 	cmpnei	zero,zero,354
    5860:	000058a8 	cmpgeui	zero,zero,354
    5864:	000058a8 	cmpgeui	zero,zero,354
    5868:	000058a8 	cmpgeui	zero,zero,354
    586c:	00005898 	cmpnei	zero,zero,354
    5870:	000058a0 	cmpeqi	zero,zero,354
    5874:	000058a8 	cmpgeui	zero,zero,354
    5878:	00005898 	cmpnei	zero,zero,354
    587c:	00005898 	cmpnei	zero,zero,354
    5880:	000058a8 	cmpgeui	zero,zero,354
    5884:	00005898 	cmpnei	zero,zero,354
    5888:	000058a0 	cmpeqi	zero,zero,354
    588c:	000058a8 	cmpgeui	zero,zero,354
    5890:	000058a8 	cmpgeui	zero,zero,354
    5894:	00005898 	cmpnei	zero,zero,354
    5898:	00800044 	movi	r2,1
    589c:	00000306 	br	58ac <alt_exception_cause_generated_bad_addr+0x88>
    58a0:	0005883a 	mov	r2,zero
    58a4:	00000106 	br	58ac <alt_exception_cause_generated_bad_addr+0x88>
    58a8:	0005883a 	mov	r2,zero
    58ac:	e037883a 	mov	sp,fp
    58b0:	df000017 	ldw	fp,0(sp)
    58b4:	dec00104 	addi	sp,sp,4
    58b8:	f800283a 	ret

000058bc <atexit>:
    58bc:	200b883a 	mov	r5,r4
    58c0:	000f883a 	mov	r7,zero
    58c4:	000d883a 	mov	r6,zero
    58c8:	0009883a 	mov	r4,zero
    58cc:	00059401 	jmpi	5940 <__register_exitproc>

000058d0 <exit>:
    58d0:	defffe04 	addi	sp,sp,-8
    58d4:	000b883a 	mov	r5,zero
    58d8:	dc000015 	stw	r16,0(sp)
    58dc:	dfc00115 	stw	ra,4(sp)
    58e0:	2021883a 	mov	r16,r4
    58e4:	0005a5c0 	call	5a5c <__call_exitprocs>
    58e8:	8009883a 	mov	r4,r16
    58ec:	0005c2c0 	call	5c2c <_exit>

000058f0 <memcmp>:
    58f0:	0007883a 	mov	r3,zero
    58f4:	30c0021e 	bne	r6,r3,5900 <memcmp+0x10>
    58f8:	0005883a 	mov	r2,zero
    58fc:	f800283a 	ret
    5900:	20c5883a 	add	r2,r4,r3
    5904:	18c00044 	addi	r3,r3,1
    5908:	28cf883a 	add	r7,r5,r3
    590c:	10800003 	ldbu	r2,0(r2)
    5910:	39ffffc3 	ldbu	r7,-1(r7)
    5914:	11fff726 	beq	r2,r7,58f4 <memcmp+0x4>
    5918:	11c5c83a 	sub	r2,r2,r7
    591c:	f800283a 	ret

00005920 <_putchar_r>:
    5920:	21800217 	ldw	r6,8(r4)
    5924:	0005bd81 	jmpi	5bd8 <_putc_r>

00005928 <putchar>:
    5928:	00800034 	movhi	r2,0
    592c:	10998e17 	ldw	r2,26168(r2)
    5930:	200b883a 	mov	r5,r4
    5934:	11800217 	ldw	r6,8(r2)
    5938:	1009883a 	mov	r4,r2
    593c:	0005bd81 	jmpi	5bd8 <_putc_r>

00005940 <__register_exitproc>:
    5940:	00800034 	movhi	r2,0
    5944:	10998d17 	ldw	r2,26164(r2)
    5948:	defff904 	addi	sp,sp,-28
    594c:	dc000015 	stw	r16,0(sp)
    5950:	14000d17 	ldw	r16,52(r2)
    5954:	dd400515 	stw	r21,20(sp)
    5958:	dd000415 	stw	r20,16(sp)
    595c:	dcc00315 	stw	r19,12(sp)
    5960:	dc800215 	stw	r18,8(sp)
    5964:	dfc00615 	stw	ra,24(sp)
    5968:	dc400115 	stw	r17,4(sp)
    596c:	2025883a 	mov	r18,r4
    5970:	2827883a 	mov	r19,r5
    5974:	302b883a 	mov	r21,r6
    5978:	3829883a 	mov	r20,r7
    597c:	8000081e 	bne	r16,zero,59a0 <__register_exitproc+0x60>
    5980:	14000e04 	addi	r16,r2,56
    5984:	00c00034 	movhi	r3,0
    5988:	14000d15 	stw	r16,52(r2)
    598c:	18c00004 	addi	r3,r3,0
    5990:	18000326 	beq	r3,zero,59a0 <__register_exitproc+0x60>
    5994:	00c00034 	movhi	r3,0
    5998:	18c00017 	ldw	r3,0(r3)
    599c:	10c03015 	stw	r3,192(r2)
    59a0:	84400117 	ldw	r17,4(r16)
    59a4:	88800810 	cmplti	r2,r17,32
    59a8:	10000a1e 	bne	r2,zero,59d4 <__register_exitproc+0x94>
    59ac:	00bfffc4 	movi	r2,-1
    59b0:	dfc00617 	ldw	ra,24(sp)
    59b4:	dd400517 	ldw	r21,20(sp)
    59b8:	dd000417 	ldw	r20,16(sp)
    59bc:	dcc00317 	ldw	r19,12(sp)
    59c0:	dc800217 	ldw	r18,8(sp)
    59c4:	dc400117 	ldw	r17,4(sp)
    59c8:	dc000017 	ldw	r16,0(sp)
    59cc:	dec00704 	addi	sp,sp,28
    59d0:	f800283a 	ret
    59d4:	90001926 	beq	r18,zero,5a3c <__register_exitproc+0xfc>
    59d8:	80802217 	ldw	r2,136(r16)
    59dc:	1000091e 	bne	r2,zero,5a04 <__register_exitproc+0xc4>
    59e0:	00800034 	movhi	r2,0
    59e4:	10800004 	addi	r2,r2,0
    59e8:	103ff026 	beq	r2,zero,59ac <__register_exitproc+0x6c>
    59ec:	01004204 	movi	r4,264
    59f0:	00000000 	call	0 <__alt_mem_onchip_memory2_0>
    59f4:	103fed26 	beq	r2,zero,59ac <__register_exitproc+0x6c>
    59f8:	10004015 	stw	zero,256(r2)
    59fc:	10004115 	stw	zero,260(r2)
    5a00:	80802215 	stw	r2,136(r16)
    5a04:	880890ba 	slli	r4,r17,2
    5a08:	00c00044 	movi	r3,1
    5a0c:	1c46983a 	sll	r3,r3,r17
    5a10:	1109883a 	add	r4,r2,r4
    5a14:	25400015 	stw	r21,0(r4)
    5a18:	11404017 	ldw	r5,256(r2)
    5a1c:	94800098 	cmpnei	r18,r18,2
    5a20:	28cab03a 	or	r5,r5,r3
    5a24:	11404015 	stw	r5,256(r2)
    5a28:	25002015 	stw	r20,128(r4)
    5a2c:	9000031e 	bne	r18,zero,5a3c <__register_exitproc+0xfc>
    5a30:	11004117 	ldw	r4,260(r2)
    5a34:	20c6b03a 	or	r3,r4,r3
    5a38:	10c04115 	stw	r3,260(r2)
    5a3c:	88800044 	addi	r2,r17,1
    5a40:	8c400084 	addi	r17,r17,2
    5a44:	882290ba 	slli	r17,r17,2
    5a48:	80800115 	stw	r2,4(r16)
    5a4c:	0005883a 	mov	r2,zero
    5a50:	8461883a 	add	r16,r16,r17
    5a54:	84c00015 	stw	r19,0(r16)
    5a58:	003fd506 	br	59b0 <__register_exitproc+0x70>

00005a5c <__call_exitprocs>:
    5a5c:	defff604 	addi	sp,sp,-40
    5a60:	00800034 	movhi	r2,0
    5a64:	dd800615 	stw	r22,24(sp)
    5a68:	15998d17 	ldw	r22,26164(r2)
    5a6c:	dd400515 	stw	r21,20(sp)
    5a70:	dd000415 	stw	r20,16(sp)
    5a74:	dfc00915 	stw	ra,36(sp)
    5a78:	df000815 	stw	fp,32(sp)
    5a7c:	ddc00715 	stw	r23,28(sp)
    5a80:	dcc00315 	stw	r19,12(sp)
    5a84:	dc800215 	stw	r18,8(sp)
    5a88:	dc400115 	stw	r17,4(sp)
    5a8c:	dc000015 	stw	r16,0(sp)
    5a90:	202b883a 	mov	r21,r4
    5a94:	2829883a 	mov	r20,r5
    5a98:	b4400d17 	ldw	r17,52(r22)
    5a9c:	88000726 	beq	r17,zero,5abc <__call_exitprocs+0x60>
    5aa0:	8c000117 	ldw	r16,4(r17)
    5aa4:	8cc02217 	ldw	r19,136(r17)
    5aa8:	84bfffc4 	addi	r18,r16,-1
    5aac:	802090ba 	slli	r16,r16,2
    5ab0:	9c2f883a 	add	r23,r19,r16
    5ab4:	8c21883a 	add	r16,r17,r16
    5ab8:	90000c0e 	bge	r18,zero,5aec <__call_exitprocs+0x90>
    5abc:	dfc00917 	ldw	ra,36(sp)
    5ac0:	df000817 	ldw	fp,32(sp)
    5ac4:	ddc00717 	ldw	r23,28(sp)
    5ac8:	dd800617 	ldw	r22,24(sp)
    5acc:	dd400517 	ldw	r21,20(sp)
    5ad0:	dd000417 	ldw	r20,16(sp)
    5ad4:	dcc00317 	ldw	r19,12(sp)
    5ad8:	dc800217 	ldw	r18,8(sp)
    5adc:	dc400117 	ldw	r17,4(sp)
    5ae0:	dc000017 	ldw	r16,0(sp)
    5ae4:	dec00a04 	addi	sp,sp,40
    5ae8:	f800283a 	ret
    5aec:	a0000726 	beq	r20,zero,5b0c <__call_exitprocs+0xb0>
    5af0:	9800041e 	bne	r19,zero,5b04 <__call_exitprocs+0xa8>
    5af4:	94bfffc4 	addi	r18,r18,-1
    5af8:	bdffff04 	addi	r23,r23,-4
    5afc:	843fff04 	addi	r16,r16,-4
    5b00:	003fed06 	br	5ab8 <__call_exitprocs+0x5c>
    5b04:	b8c01f17 	ldw	r3,124(r23)
    5b08:	1d3ffa1e 	bne	r3,r20,5af4 <__call_exitprocs+0x98>
    5b0c:	89000117 	ldw	r4,4(r17)
    5b10:	80c00117 	ldw	r3,4(r16)
    5b14:	213fffc4 	addi	r4,r4,-1
    5b18:	24800f1e 	bne	r4,r18,5b58 <__call_exitprocs+0xfc>
    5b1c:	8c800115 	stw	r18,4(r17)
    5b20:	183ff426 	beq	r3,zero,5af4 <__call_exitprocs+0x98>
    5b24:	8f000117 	ldw	fp,4(r17)
    5b28:	98000526 	beq	r19,zero,5b40 <__call_exitprocs+0xe4>
    5b2c:	00800044 	movi	r2,1
    5b30:	148c983a 	sll	r6,r2,r18
    5b34:	99004017 	ldw	r4,256(r19)
    5b38:	3108703a 	and	r4,r6,r4
    5b3c:	2000081e 	bne	r4,zero,5b60 <__call_exitprocs+0x104>
    5b40:	183ee83a 	callr	r3
    5b44:	89000117 	ldw	r4,4(r17)
    5b48:	b0c00d17 	ldw	r3,52(r22)
    5b4c:	273fd21e 	bne	r4,fp,5a98 <__call_exitprocs+0x3c>
    5b50:	88ffe826 	beq	r17,r3,5af4 <__call_exitprocs+0x98>
    5b54:	003fd006 	br	5a98 <__call_exitprocs+0x3c>
    5b58:	80000115 	stw	zero,4(r16)
    5b5c:	003ff006 	br	5b20 <__call_exitprocs+0xc4>
    5b60:	99404117 	ldw	r5,260(r19)
    5b64:	b93fff17 	ldw	r4,-4(r23)
    5b68:	314c703a 	and	r6,r6,r5
    5b6c:	3000041e 	bne	r6,zero,5b80 <__call_exitprocs+0x124>
    5b70:	200b883a 	mov	r5,r4
    5b74:	a809883a 	mov	r4,r21
    5b78:	183ee83a 	callr	r3
    5b7c:	003ff106 	br	5b44 <__call_exitprocs+0xe8>
    5b80:	183ee83a 	callr	r3
    5b84:	003fef06 	br	5b44 <__call_exitprocs+0xe8>

00005b88 <putc>:
    5b88:	defffd04 	addi	sp,sp,-12
    5b8c:	00800034 	movhi	r2,0
    5b90:	dc000115 	stw	r16,4(sp)
    5b94:	dfc00215 	stw	ra,8(sp)
    5b98:	10887104 	addi	r2,r2,8644
    5b9c:	28800115 	stw	r2,4(r5)
    5ba0:	00800034 	movhi	r2,0
    5ba4:	d90000c5 	stb	r4,3(sp)
    5ba8:	2021883a 	mov	r16,r4
    5bac:	11198e17 	ldw	r4,26168(r2)
    5bb0:	01c00044 	movi	r7,1
    5bb4:	d98000c4 	addi	r6,sp,3
    5bb8:	00021c40 	call	21c4 <__sfvwrite_small_dev>
    5bbc:	10ffffe0 	cmpeqi	r3,r2,-1
    5bc0:	1800011e 	bne	r3,zero,5bc8 <putc+0x40>
    5bc4:	8005883a 	mov	r2,r16
    5bc8:	dfc00217 	ldw	ra,8(sp)
    5bcc:	dc000117 	ldw	r16,4(sp)
    5bd0:	dec00304 	addi	sp,sp,12
    5bd4:	f800283a 	ret

00005bd8 <_putc_r>:
    5bd8:	defffd04 	addi	sp,sp,-12
    5bdc:	00800034 	movhi	r2,0
    5be0:	dc000115 	stw	r16,4(sp)
    5be4:	dfc00215 	stw	ra,8(sp)
    5be8:	10887104 	addi	r2,r2,8644
    5bec:	30800115 	stw	r2,4(r6)
    5bf0:	00800034 	movhi	r2,0
    5bf4:	11198e17 	ldw	r4,26168(r2)
    5bf8:	2821883a 	mov	r16,r5
    5bfc:	01c00044 	movi	r7,1
    5c00:	300b883a 	mov	r5,r6
    5c04:	d98000c4 	addi	r6,sp,3
    5c08:	dc0000c5 	stb	r16,3(sp)
    5c0c:	00021c40 	call	21c4 <__sfvwrite_small_dev>
    5c10:	10ffffe0 	cmpeqi	r3,r2,-1
    5c14:	1800011e 	bne	r3,zero,5c1c <_putc_r+0x44>
    5c18:	8005883a 	mov	r2,r16
    5c1c:	dfc00217 	ldw	ra,8(sp)
    5c20:	dc000117 	ldw	r16,4(sp)
    5c24:	dec00304 	addi	sp,sp,12
    5c28:	f800283a 	ret

00005c2c <_exit>:
    5c2c:	defffd04 	addi	sp,sp,-12
    5c30:	df000215 	stw	fp,8(sp)
    5c34:	df000204 	addi	fp,sp,8
    5c38:	e13ffe15 	stw	r4,-8(fp)
    5c3c:	0001883a 	nop
    5c40:	e0bffe17 	ldw	r2,-8(fp)
    5c44:	e0bfff15 	stw	r2,-4(fp)
    5c48:	e0bfff17 	ldw	r2,-4(fp)
    5c4c:	10000226 	beq	r2,zero,5c58 <_exit+0x2c>
    5c50:	002af070 	cmpltui	zero,zero,43969
    5c54:	00000106 	br	5c5c <_exit+0x30>
    5c58:	002af0b0 	cmpltui	zero,zero,43970
    5c5c:	0001883a 	nop
    5c60:	003fff06 	br	5c60 <_exit+0x34>
